
Minirt_bonus:	file format Mach-O 64-bit x86-64


Disassembly of section __TEXT,__text:

0000000100001420 _cone_parcer:
100001420: 55                          	pushq	%rbp
100001421: 48 89 e5                    	movq	%rsp, %rbp
100001424: 41 56                       	pushq	%r14
100001426: 53                          	pushq	%rbx
100001427: 48 81 ec 90 00 00 00        	subq	$144, %rsp
10000142e: 48 89 f3                    	movq	%rsi, %rbx
100001431: ff 46 20                    	incl	32(%rsi)
100001434: 48 83 c7 03                 	addq	$3, %rdi
100001438: 48 89 7d e8                 	movq	%rdi, -24(%rbp)
10000143c: 48 8d bd 60 ff ff ff        	leaq	-160(%rbp), %rdi
100001443: ba 88 00 00 00              	movl	$136, %edx
100001448: 31 f6                       	xorl	%esi, %esi
10000144a: e8 01 83 00 00              	callq	33537 <_ft_memset>
10000144f: 48 8d 75 b8                 	leaq	-72(%rbp), %rsi
100001453: 48 8d 7d e8                 	leaq	-24(%rbp), %rdi
100001457: ba ff ff ff 7f              	movl	$2147483647, %edx
10000145c: b9 00 00 00 80              	movl	$2147483648, %ecx
100001461: e8 4a 11 00 00              	callq	4426 <_cordinate_parcer>
100001466: 84 c0                       	testb	%al, %al
100001468: 0f 84 d3 00 00 00           	je	211 <_cone_parcer+0x121>
10000146e: 48 8d 75 a0                 	leaq	-96(%rbp), %rsi
100001472: 48 8d 7d e8                 	leaq	-24(%rbp), %rdi
100001476: ba 01 00 00 00              	movl	$1, %edx
10000147b: b9 ff ff ff ff              	movl	$4294967295, %ecx
100001480: e8 2b 11 00 00              	callq	4395 <_cordinate_parcer>
100001485: 84 c0                       	testb	%al, %al
100001487: 0f 84 d2 00 00 00           	je	210 <_cone_parcer+0x13f>
10000148d: 48 8d 75 d8                 	leaq	-40(%rbp), %rsi
100001491: 48 8d 7d e8                 	leaq	-24(%rbp), %rdi
100001495: ba b4 00 00 00              	movl	$180, %edx
10000149a: 31 c9                       	xorl	%ecx, %ecx
10000149c: e8 6f 20 00 00              	callq	8303 <_ft_atod>
1000014a1: 84 c0                       	testb	%al, %al
1000014a3: 0f 84 ee 00 00 00           	je	238 <_cone_parcer+0x177>
1000014a9: 48 8d 75 e0                 	leaq	-32(%rbp), %rsi
1000014ad: 48 8d 7d e8                 	leaq	-24(%rbp), %rdi
1000014b1: ba ff ff ff 7f              	movl	$2147483647, %edx
1000014b6: b9 00 00 00 80              	movl	$2147483648, %ecx
1000014bb: e8 50 20 00 00              	callq	8272 <_ft_atod>
1000014c0: 84 c0                       	testb	%al, %al
1000014c2: 0f 84 f4 00 00 00           	je	244 <_cone_parcer+0x19c>
1000014c8: 48 8b 7d e8                 	movq	-24(%rbp), %rdi
1000014cc: e8 7f 24 00 00              	callq	9343 <_skip_spaces>
1000014d1: 48 63 f8                    	movslq	%eax, %rdi
1000014d4: 48 03 7d e8                 	addq	-24(%rbp), %rdi
1000014d8: 48 89 7d e8                 	movq	%rdi, -24(%rbp)
1000014dc: 48 8d 75 d0                 	leaq	-48(%rbp), %rsi
1000014e0: e8 db 0e 00 00              	callq	3803 <_color_parcer>
1000014e5: 83 f8 ff                    	cmpl	$-1, %eax
1000014e8: 0f 84 01 01 00 00           	je	257 <_cone_parcer+0x1cf>
1000014ee: 41 89 c6                    	movl	%eax, %r14d
1000014f1: 48 63 f8                    	movslq	%eax, %rdi
1000014f4: 48 03 7d e8                 	addq	-24(%rbp), %rdi
1000014f8: e8 53 24 00 00              	callq	9299 <_skip_spaces>
1000014fd: 44 01 f0                    	addl	%r14d, %eax
100001500: 48 63 f8                    	movslq	%eax, %rdi
100001503: 48 03 7d e8                 	addq	-24(%rbp), %rdi
100001507: 48 89 7d e8                 	movq	%rdi, -24(%rbp)
10000150b: 48 8d b5 60 ff ff ff        	leaq	-160(%rbp), %rsi
100001512: ba 04 00 00 00              	movl	$4, %edx
100001517: e8 14 1c 00 00              	callq	7188 <_check_for_features>
10000151c: 84 c0                       	testb	%al, %al
10000151e: 0f 84 ec 00 00 00           	je	236 <_cone_parcer+0x1f0>
100001524: 48 8d 8d 60 ff ff ff        	leaq	-160(%rbp), %rcx
10000152b: bf 88 00 00 00              	movl	$136, %edi
100001530: be 04 00 00 00              	movl	$4, %esi
100001535: 48 89 da                    	movq	%rbx, %rdx
100001538: e8 43 1e 00 00              	callq	7747 <_object_validate>
10000153d: 89 c3                       	movl	%eax, %ebx
10000153f: eb 48                       	jmp	72 <_cone_parcer+0x169>
100001541: 48 8d 35 18 d2 00 00        	leaq	53784(%rip), %rsi
100001548: 48 8d 15 18 d2 00 00        	leaq	53784(%rip), %rdx
10000154f: 48 8d 0d 1a d2 00 00        	leaq	53786(%rip), %rcx
100001556: 4c 8d 05 1b d2 00 00        	leaq	53787(%rip), %r8
10000155d: eb 1c                       	jmp	28 <_cone_parcer+0x15b>
10000155f: 48 8d 35 fa d1 00 00        	leaq	53754(%rip), %rsi
100001566: 48 8d 15 fa d1 00 00        	leaq	53754(%rip), %rdx
10000156d: 48 8d 0d fc d1 00 00        	leaq	53756(%rip), %rcx
100001574: 4c 8d 05 17 d2 00 00        	leaq	53783(%rip), %r8
10000157b: 31 db                       	xorl	%ebx, %ebx
10000157d: bf 04 00 00 00              	movl	$4, %edi
100001582: 31 c0                       	xorl	%eax, %eax
100001584: e8 97 24 00 00              	callq	9367 <_print_err>
100001589: 89 d8                       	movl	%ebx, %eax
10000158b: 48 81 c4 90 00 00 00        	addq	$144, %rsp
100001592: 5b                          	popq	%rbx
100001593: 41 5e                       	popq	%r14
100001595: 5d                          	popq	%rbp
100001596: c3                          	retq
100001597: 48 8d 35 c2 d1 00 00        	leaq	53698(%rip), %rsi
10000159e: 48 8d 15 c2 d1 00 00        	leaq	53698(%rip), %rdx
1000015a5: 48 8d 0d c4 d1 00 00        	leaq	53700(%rip), %rcx
1000015ac: 4c 8d 05 01 d2 00 00        	leaq	53761(%rip), %r8
1000015b3: 4c 8d 0d 09 d2 00 00        	leaq	53769(%rip), %r9
1000015ba: eb 23                       	jmp	35 <_cone_parcer+0x1bf>
1000015bc: 48 8d 35 9d d1 00 00        	leaq	53661(%rip), %rsi
1000015c3: 48 8d 15 9d d1 00 00        	leaq	53661(%rip), %rdx
1000015ca: 48 8d 0d 9f d1 00 00        	leaq	53663(%rip), %rcx
1000015d1: 4c 8d 05 dc d1 00 00        	leaq	53724(%rip), %r8
1000015d8: 4c 8d 0d f0 d1 00 00        	leaq	53744(%rip), %r9
1000015df: 31 db                       	xorl	%ebx, %ebx
1000015e1: bf 05 00 00 00              	movl	$5, %edi
1000015e6: 31 c0                       	xorl	%eax, %eax
1000015e8: e8 33 24 00 00              	callq	9267 <_print_err>
1000015ed: eb 9a                       	jmp	-102 <_cone_parcer+0x169>
1000015ef: 48 8d 35 6a d1 00 00        	leaq	53610(%rip), %rsi
1000015f6: 48 8d 15 6a d1 00 00        	leaq	53610(%rip), %rdx
1000015fd: 48 8d 0d 6c d1 00 00        	leaq	53612(%rip), %rcx
100001604: 4c 8d 05 cc d1 00 00        	leaq	53708(%rip), %r8
10000160b: e9 6b ff ff ff              	jmp	-149 <_cone_parcer+0x15b>
100001610: 31 db                       	xorl	%ebx, %ebx
100001612: e9 72 ff ff ff              	jmp	-142 <_cone_parcer+0x169>
100001617: 90                          	nop
100001618: 90                          	nop
100001619: 90                          	nop
10000161a: 90                          	nop
10000161b: 90                          	nop
10000161c: 90                          	nop
10000161d: 90                          	nop
10000161e: 90                          	nop
10000161f: 90                          	nop

0000000100001620 _calculate_disk_plan:
100001620: 55                          	pushq	%rbp
100001621: 48 89 e5                    	movq	%rsp, %rbp
100001624: 41 56                       	pushq	%r14
100001626: 53                          	pushq	%rbx
100001627: 48 83 ec 50                 	subq	$80, %rsp
10000162b: 48 89 fb                    	movq	%rdi, %rbx
10000162e: 4c 8b 76 18                 	movq	24(%rsi), %r14
100001632: 48 8d 47 40                 	leaq	64(%rdi), %rax
100001636: 48 8b 4f 50                 	movq	80(%rdi), %rcx
10000163a: 49 89 4e 50                 	movq	%rcx, 80(%r14)
10000163e: 48 8b 4f 40                 	movq	64(%rdi), %rcx
100001642: 48 8b 77 48                 	movq	72(%rdi), %rsi
100001646: 49 89 76 48                 	movq	%rsi, 72(%r14)
10000164a: 49 89 4e 40                 	movq	%rcx, 64(%r14)
10000164e: 49 83 c6 60                 	addq	$96, %r14
100001652: 84 d2                       	testb	%dl, %dl
100001654: 74 59                       	je	89 <_calculate_disk_plan+0x8f>
100001656: f2 0f 10 83 88 00 00 00     	movsd	136(%rbx), %xmm0
10000165e: f2 0f 59 05 fa f7 00 00     	mulsd	63482(%rip), %xmm0
100001666: 48 83 ec 08                 	subq	$8, %rsp
10000166a: 48 8b 48 10                 	movq	16(%rax), %rcx
10000166e: 48 8b 10                    	movq	(%rax), %rdx
100001671: 48 8b 40 08                 	movq	8(%rax), %rax
100001675: 48 8d 7d a8                 	leaq	-88(%rbp), %rdi
100001679: 51                          	pushq	%rcx
10000167a: 50                          	pushq	%rax
10000167b: 52                          	pushq	%rdx
10000167c: e8 ff 76 00 00              	callq	30463 <_scalar_mult>
100001681: 48 83 c4 20                 	addq	$32, %rsp
100001685: 48 8b 45 b8                 	movq	-72(%rbp), %rax
100001689: 48 8b 4d a8                 	movq	-88(%rbp), %rcx
10000168d: 48 8b 55 b0                 	movq	-80(%rbp), %rdx
100001691: 48 8b 73 68                 	movq	104(%rbx), %rsi
100001695: 4c 8b 43 58                 	movq	88(%rbx), %r8
100001699: 48 8b 5b 60                 	movq	96(%rbx), %rbx
10000169d: 48 8d 7d d8                 	leaq	-40(%rbp), %rdi
1000016a1: 50                          	pushq	%rax
1000016a2: 52                          	pushq	%rdx
1000016a3: 51                          	pushq	%rcx
1000016a4: 56                          	pushq	%rsi
1000016a5: 53                          	pushq	%rbx
1000016a6: 41 50                       	pushq	%r8
1000016a8: e8 73 76 00 00              	callq	30323 <_vec_addition>
1000016ad: eb 57                       	jmp	87 <_calculate_disk_plan+0xe6>
1000016af: f2 0f 10 83 88 00 00 00     	movsd	136(%rbx), %xmm0
1000016b7: f2 0f 59 05 a1 f7 00 00     	mulsd	63393(%rip), %xmm0
1000016bf: 48 83 ec 08                 	subq	$8, %rsp
1000016c3: 48 8b 48 10                 	movq	16(%rax), %rcx
1000016c7: 48 8b 10                    	movq	(%rax), %rdx
1000016ca: 48 8b 40 08                 	movq	8(%rax), %rax
1000016ce: 48 8d 7d c0                 	leaq	-64(%rbp), %rdi
1000016d2: 51                          	pushq	%rcx
1000016d3: 50                          	pushq	%rax
1000016d4: 52                          	pushq	%rdx
1000016d5: e8 a6 76 00 00              	callq	30374 <_scalar_mult>
1000016da: 48 83 c4 20                 	addq	$32, %rsp
1000016de: 48 8b 45 d0                 	movq	-48(%rbp), %rax
1000016e2: 48 8b 4d c0                 	movq	-64(%rbp), %rcx
1000016e6: 48 8b 55 c8                 	movq	-56(%rbp), %rdx
1000016ea: 48 8b 73 68                 	movq	104(%rbx), %rsi
1000016ee: 4c 8b 43 58                 	movq	88(%rbx), %r8
1000016f2: 48 8b 5b 60                 	movq	96(%rbx), %rbx
1000016f6: 48 8d 7d d8                 	leaq	-40(%rbp), %rdi
1000016fa: 50                          	pushq	%rax
1000016fb: 52                          	pushq	%rdx
1000016fc: 51                          	pushq	%rcx
1000016fd: 56                          	pushq	%rsi
1000016fe: 53                          	pushq	%rbx
1000016ff: 41 50                       	pushq	%r8
100001701: e8 4a 76 00 00              	callq	30282 <_vec_sub>
100001706: 48 83 c4 30                 	addq	$48, %rsp
10000170a: 48 8b 45 e8                 	movq	-24(%rbp), %rax
10000170e: 49 89 46 10                 	movq	%rax, 16(%r14)
100001712: 48 8b 45 d8                 	movq	-40(%rbp), %rax
100001716: 48 8b 4d e0                 	movq	-32(%rbp), %rcx
10000171a: 49 89 4e 08                 	movq	%rcx, 8(%r14)
10000171e: 49 89 06                    	movq	%rax, (%r14)
100001721: 48 83 c4 50                 	addq	$80, %rsp
100001725: 5b                          	popq	%rbx
100001726: 41 5e                       	popq	%r14
100001728: 5d                          	popq	%rbp
100001729: c3                          	retq
10000172a: 66 0f 1f 44 00 00           	nopw	(%rax,%rax)

0000000100001730 _cylinder_cap:
100001730: 55                          	pushq	%rbp
100001731: 48 89 e5                    	movq	%rsp, %rbp
100001734: 41 57                       	pushq	%r15
100001736: 41 56                       	pushq	%r14
100001738: 53                          	pushq	%rbx
100001739: 48 83 ec 38                 	subq	$56, %rsp
10000173d: 49 89 fe                    	movq	%rdi, %r14
100001740: bf 78 00 00 00              	movl	$120, %edi
100001745: be 01 00 00 00              	movl	$1, %esi
10000174a: e8 b1 7e 00 00              	callq	32433 <_ft_calloc>
10000174f: 48 85 c0                    	testq	%rax, %rax
100001752: 0f 84 c2 01 00 00           	je	450 <_cylinder_cap+0x1ea>
100001758: 48 89 c3                    	movq	%rax, %rbx
10000175b: bf 78 00 00 00              	movl	$120, %edi
100001760: be 01 00 00 00              	movl	$1, %esi
100001765: e8 96 7e 00 00              	callq	32406 <_ft_calloc>
10000176a: 48 85 c0                    	testq	%rax, %rax
10000176d: 0f 84 88 01 00 00           	je	392 <_cylinder_cap+0x1cb>
100001773: 49 89 c7                    	movq	%rax, %r15
100001776: 48 89 df                    	movq	%rbx, %rdi
100001779: be 02 00 00 00              	movl	$2, %esi
10000177e: e8 8d 20 00 00              	callq	8333 <_newobject>
100001783: 49 89 46 78                 	movq	%rax, 120(%r14)
100001787: 48 85 c0                    	testq	%rax, %rax
10000178a: 0f 84 70 01 00 00           	je	368 <_cylinder_cap+0x1d0>
100001790: 49 8d 5e 78                 	leaq	120(%r14), %rbx
100001794: 4c 89 ff                    	movq	%r15, %rdi
100001797: be 02 00 00 00              	movl	$2, %esi
10000179c: e8 6f 20 00 00              	callq	8303 <_newobject>
1000017a1: 48 89 df                    	movq	%rbx, %rdi
1000017a4: 48 89 c6                    	movq	%rax, %rsi
1000017a7: e8 f4 1a 00 00              	callq	6900 <_addobject_front>
1000017ac: 48 8b 03                    	movq	(%rbx), %rax
1000017af: 48 83 78 28 00              	cmpq	$0, 40(%rax)
1000017b4: 0f 84 58 01 00 00           	je	344 <_cylinder_cap+0x1e2>
1000017ba: 49 8d 76 40                 	leaq	64(%r14), %rsi
1000017be: 48 8d 7d d0                 	leaq	-48(%rbp), %rdi
1000017c2: e8 09 76 00 00              	callq	30217 <_normalize>
1000017c7: 49 8b 46 78                 	movq	120(%r14), %rax
1000017cb: 48 8b 58 18                 	movq	24(%rax), %rbx
1000017cf: 49 8b 46 50                 	movq	80(%r14), %rax
1000017d3: 48 89 43 50                 	movq	%rax, 80(%rbx)
1000017d7: 49 8b 46 40                 	movq	64(%r14), %rax
1000017db: 49 8b 4e 48                 	movq	72(%r14), %rcx
1000017df: 48 89 4b 48                 	movq	%rcx, 72(%rbx)
1000017e3: 48 89 43 40                 	movq	%rax, 64(%rbx)
1000017e7: f2 41 0f 10 86 88 00 00 00  	movsd	136(%r14), %xmm0
1000017f0: f2 0f 59 05 68 f6 00 00     	mulsd	63080(%rip), %xmm0
1000017f8: 48 83 ec 08                 	subq	$8, %rsp
1000017fc: 49 8b 46 50                 	movq	80(%r14), %rax
100001800: 49 8b 4e 40                 	movq	64(%r14), %rcx
100001804: 49 8b 56 48                 	movq	72(%r14), %rdx
100001808: 48 8d 7d b8                 	leaq	-72(%rbp), %rdi
10000180c: 50                          	pushq	%rax
10000180d: 52                          	pushq	%rdx
10000180e: 51                          	pushq	%rcx
10000180f: e8 6c 75 00 00              	callq	30060 <_scalar_mult>
100001814: 48 83 c4 20                 	addq	$32, %rsp
100001818: 48 8b 45 c8                 	movq	-56(%rbp), %rax
10000181c: 4c 8b 4d b8                 	movq	-72(%rbp), %r9
100001820: 48 8b 55 c0                 	movq	-64(%rbp), %rdx
100001824: 49 8b 76 68                 	movq	104(%r14), %rsi
100001828: 4d 8b 46 58                 	movq	88(%r14), %r8
10000182c: 49 8b 4e 60                 	movq	96(%r14), %rcx
100001830: 48 8d 7d d0                 	leaq	-48(%rbp), %rdi
100001834: 50                          	pushq	%rax
100001835: 52                          	pushq	%rdx
100001836: 41 51                       	pushq	%r9
100001838: 56                          	pushq	%rsi
100001839: 51                          	pushq	%rcx
10000183a: 41 50                       	pushq	%r8
10000183c: e8 df 74 00 00              	callq	29919 <_vec_addition>
100001841: 48 83 c4 30                 	addq	$48, %rsp
100001845: 48 8b 45 e0                 	movq	-32(%rbp), %rax
100001849: 48 89 43 70                 	movq	%rax, 112(%rbx)
10000184d: 48 8b 45 d0                 	movq	-48(%rbp), %rax
100001851: 48 8b 4d d8                 	movq	-40(%rbp), %rcx
100001855: 48 89 4b 68                 	movq	%rcx, 104(%rbx)
100001859: 48 89 43 60                 	movq	%rax, 96(%rbx)
10000185d: 49 8b 46 78                 	movq	120(%r14), %rax
100001861: 48 8b 40 28                 	movq	40(%rax), %rax
100001865: 48 8b 58 18                 	movq	24(%rax), %rbx
100001869: 49 8b 46 50                 	movq	80(%r14), %rax
10000186d: 48 89 43 50                 	movq	%rax, 80(%rbx)
100001871: 49 8b 46 40                 	movq	64(%r14), %rax
100001875: 49 8b 4e 48                 	movq	72(%r14), %rcx
100001879: 48 89 4b 48                 	movq	%rcx, 72(%rbx)
10000187d: 48 89 43 40                 	movq	%rax, 64(%rbx)
100001881: f2 0f 10 05 d7 f5 00 00     	movsd	62935(%rip), %xmm0
100001889: f2 41 0f 59 86 88 00 00 00  	mulsd	136(%r14), %xmm0
100001892: 48 83 ec 08                 	subq	$8, %rsp
100001896: 49 8b 46 50                 	movq	80(%r14), %rax
10000189a: 49 8b 4e 40                 	movq	64(%r14), %rcx
10000189e: 49 8b 56 48                 	movq	72(%r14), %rdx
1000018a2: 48 8d 7d b8                 	leaq	-72(%rbp), %rdi
1000018a6: 50                          	pushq	%rax
1000018a7: 52                          	pushq	%rdx
1000018a8: 51                          	pushq	%rcx
1000018a9: e8 d2 74 00 00              	callq	29906 <_scalar_mult>
1000018ae: 48 83 c4 20                 	addq	$32, %rsp
1000018b2: 48 8b 45 c8                 	movq	-56(%rbp), %rax
1000018b6: 4c 8b 4d b8                 	movq	-72(%rbp), %r9
1000018ba: 48 8b 55 c0                 	movq	-64(%rbp), %rdx
1000018be: 49 8b 76 68                 	movq	104(%r14), %rsi
1000018c2: 4d 8b 46 58                 	movq	88(%r14), %r8
1000018c6: 49 8b 4e 60                 	movq	96(%r14), %rcx
1000018ca: 48 8d 7d d0                 	leaq	-48(%rbp), %rdi
1000018ce: 50                          	pushq	%rax
1000018cf: 52                          	pushq	%rdx
1000018d0: 41 51                       	pushq	%r9
1000018d2: 56                          	pushq	%rsi
1000018d3: 51                          	pushq	%rcx
1000018d4: 41 50                       	pushq	%r8
1000018d6: e8 75 74 00 00              	callq	29813 <_vec_sub>
1000018db: 48 83 c4 30                 	addq	$48, %rsp
1000018df: 48 8b 45 e0                 	movq	-32(%rbp), %rax
1000018e3: 48 89 43 70                 	movq	%rax, 112(%rbx)
1000018e7: 48 8b 45 d0                 	movq	-48(%rbp), %rax
1000018eb: 48 8b 4d d8                 	movq	-40(%rbp), %rcx
1000018ef: 48 89 4b 68                 	movq	%rcx, 104(%rbx)
1000018f3: 48 89 43 60                 	movq	%rax, 96(%rbx)
1000018f7: b0 01                       	movb	$1, %al
1000018f9: eb 21                       	jmp	33 <_cylinder_cap+0x1ec>
1000018fb: 48 89 df                    	movq	%rbx, %rdi
1000018fe: eb 0b                       	jmp	11 <_cylinder_cap+0x1db>
100001900: 48 89 df                    	movq	%rbx, %rdi
100001903: e8 2a c9 00 00              	callq	51498 <dyld_stub_binder+0x10000e232>
100001908: 4c 89 ff                    	movq	%r15, %rdi
10000190b: e8 22 c9 00 00              	callq	51490 <dyld_stub_binder+0x10000e232>
100001910: eb 08                       	jmp	8 <_cylinder_cap+0x1ea>
100001912: 48 89 df                    	movq	%rbx, %rdi
100001915: e8 86 1f 00 00              	callq	8070 <_clearobjs>
10000191a: 31 c0                       	xorl	%eax, %eax
10000191c: 48 83 c4 38                 	addq	$56, %rsp
100001920: 5b                          	popq	%rbx
100001921: 41 5e                       	popq	%r14
100001923: 41 5f                       	popq	%r15
100001925: 5d                          	popq	%rbp
100001926: c3                          	retq
100001927: 66 0f 1f 84 00 00 00 00 00  	nopw	(%rax,%rax)

0000000100001930 _cylender_parcer:
100001930: 55                          	pushq	%rbp
100001931: 48 89 e5                    	movq	%rsp, %rbp
100001934: 41 57                       	pushq	%r15
100001936: 41 56                       	pushq	%r14
100001938: 53                          	pushq	%rbx
100001939: 48 81 ec 98 00 00 00        	subq	$152, %rsp
100001940: 49 89 f7                    	movq	%rsi, %r15
100001943: 48 89 fb                    	movq	%rdi, %rbx
100001946: 48 8d bd 50 ff ff ff        	leaq	-176(%rbp), %rdi
10000194d: ba 90 00 00 00              	movl	$144, %edx
100001952: 31 f6                       	xorl	%esi, %esi
100001954: e8 f7 7d 00 00              	callq	32247 <_ft_memset>
100001959: 41 ff 47 14                 	incl	20(%r15)
10000195d: 48 83 c3 03                 	addq	$3, %rbx
100001961: 48 89 5d e0                 	movq	%rbx, -32(%rbp)
100001965: 48 8d 75 a8                 	leaq	-88(%rbp), %rsi
100001969: 48 8d 7d e0                 	leaq	-32(%rbp), %rdi
10000196d: ba ff ff ff 7f              	movl	$2147483647, %edx
100001972: b9 00 00 00 80              	movl	$2147483648, %ecx
100001977: e8 34 0c 00 00              	callq	3124 <_cordinate_parcer>
10000197c: 84 c0                       	testb	%al, %al
10000197e: 0f 84 e6 00 00 00           	je	230 <_cylender_parcer+0x13a>
100001984: 48 8d 75 90                 	leaq	-112(%rbp), %rsi
100001988: 48 8d 7d e0                 	leaq	-32(%rbp), %rdi
10000198c: ba 01 00 00 00              	movl	$1, %edx
100001991: b9 ff ff ff ff              	movl	$4294967295, %ecx
100001996: e8 15 0c 00 00              	callq	3093 <_cordinate_parcer>
10000199b: 84 c0                       	testb	%al, %al
10000199d: 0f 84 e5 00 00 00           	je	229 <_cylender_parcer+0x158>
1000019a3: 48 8d 75 d0                 	leaq	-48(%rbp), %rsi
1000019a7: 48 8d 7d e0                 	leaq	-32(%rbp), %rdi
1000019ab: ba ff ff ff 7f              	movl	$2147483647, %edx
1000019b0: b9 00 00 00 80              	movl	$2147483648, %ecx
1000019b5: e8 56 1b 00 00              	callq	6998 <_ft_atod>
1000019ba: 84 c0                       	testb	%al, %al
1000019bc: 0f 84 00 01 00 00           	je	256 <_cylender_parcer+0x192>
1000019c2: 48 8d 75 d8                 	leaq	-40(%rbp), %rsi
1000019c6: 48 8d 7d e0                 	leaq	-32(%rbp), %rdi
1000019ca: ba ff ff ff 7f              	movl	$2147483647, %edx
1000019cf: b9 00 00 00 80              	movl	$2147483648, %ecx
1000019d4: e8 37 1b 00 00              	callq	6967 <_ft_atod>
1000019d9: 84 c0                       	testb	%al, %al
1000019db: 0f 84 06 01 00 00           	je	262 <_cylender_parcer+0x1b7>
1000019e1: 48 8b 7d e0                 	movq	-32(%rbp), %rdi
1000019e5: e8 66 1f 00 00              	callq	8038 <_skip_spaces>
1000019ea: 48 63 f8                    	movslq	%eax, %rdi
1000019ed: 48 03 7d e0                 	addq	-32(%rbp), %rdi
1000019f1: 48 89 7d e0                 	movq	%rdi, -32(%rbp)
1000019f5: 48 8d 75 c0                 	leaq	-64(%rbp), %rsi
1000019f9: e8 c2 09 00 00              	callq	2498 <_color_parcer>
1000019fe: 83 f8 ff                    	cmpl	$-1, %eax
100001a01: 0f 84 13 01 00 00           	je	275 <_cylender_parcer+0x1ea>
100001a07: 41 89 c6                    	movl	%eax, %r14d
100001a0a: 48 63 f8                    	movslq	%eax, %rdi
100001a0d: 48 03 7d e0                 	addq	-32(%rbp), %rdi
100001a11: e8 3a 1f 00 00              	callq	7994 <_skip_spaces>
100001a16: 44 01 f0                    	addl	%r14d, %eax
100001a19: 48 63 f8                    	movslq	%eax, %rdi
100001a1c: 48 03 7d e0                 	addq	-32(%rbp), %rdi
100001a20: 48 89 7d e0                 	movq	%rdi, -32(%rbp)
100001a24: 48 8d b5 50 ff ff ff        	leaq	-176(%rbp), %rsi
100001a2b: ba 01 00 00 00              	movl	$1, %edx
100001a30: e8 fb 16 00 00              	callq	5883 <_check_for_features>
100001a35: 84 c0                       	testb	%al, %al
100001a37: 0f 84 fe 00 00 00           	je	254 <_cylender_parcer+0x20b>
100001a3d: 48 8d 8d 50 ff ff ff        	leaq	-176(%rbp), %rcx
100001a44: bf 90 00 00 00              	movl	$144, %edi
100001a49: be 01 00 00 00              	movl	$1, %esi
100001a4e: 4c 89 fa                    	movq	%r15, %rdx
100001a51: e8 2a 19 00 00              	callq	6442 <_object_validate>
100001a56: 49 8b 87 20 01 00 00        	movq	288(%r15), %rax
100001a5d: 48 8b 78 18                 	movq	24(%rax), %rdi
100001a61: e8 ca fc ff ff              	callq	-822 <_cylinder_cap>
100001a66: 89 c3                       	movl	%eax, %ebx
100001a68: eb 48                       	jmp	72 <_cylender_parcer+0x182>
100001a6a: 48 8d 35 ef cc 00 00        	leaq	52463(%rip), %rsi
100001a71: 48 8d 15 ef cc 00 00        	leaq	52463(%rip), %rdx
100001a78: 48 8d 0d 6e cd 00 00        	leaq	52590(%rip), %rcx
100001a7f: 4c 8d 05 f2 cc 00 00        	leaq	52466(%rip), %r8
100001a86: eb 1c                       	jmp	28 <_cylender_parcer+0x174>
100001a88: 48 8d 35 d1 cc 00 00        	leaq	52433(%rip), %rsi
100001a8f: 48 8d 15 d1 cc 00 00        	leaq	52433(%rip), %rdx
100001a96: 48 8d 0d 50 cd 00 00        	leaq	52560(%rip), %rcx
100001a9d: 4c 8d 05 ee cc 00 00        	leaq	52462(%rip), %r8
100001aa4: 31 db                       	xorl	%ebx, %ebx
100001aa6: bf 04 00 00 00              	movl	$4, %edi
100001aab: 31 c0                       	xorl	%eax, %eax
100001aad: e8 6e 1f 00 00              	callq	8046 <_print_err>
100001ab2: 89 d8                       	movl	%ebx, %eax
100001ab4: 48 81 c4 98 00 00 00        	addq	$152, %rsp
100001abb: 5b                          	popq	%rbx
100001abc: 41 5e                       	popq	%r14
100001abe: 41 5f                       	popq	%r15
100001ac0: 5d                          	popq	%rbp
100001ac1: c3                          	retq
100001ac2: 48 8d 35 97 cc 00 00        	leaq	52375(%rip), %rsi
100001ac9: 48 8d 15 97 cc 00 00        	leaq	52375(%rip), %rdx
100001ad0: 48 8d 0d 16 cd 00 00        	leaq	52502(%rip), %rcx
100001ad7: 4c 8d 05 d6 cc 00 00        	leaq	52438(%rip), %r8
100001ade: 4c 8d 0d 14 cd 00 00        	leaq	52500(%rip), %r9
100001ae5: eb 23                       	jmp	35 <_cylender_parcer+0x1da>
100001ae7: 48 8d 35 72 cc 00 00        	leaq	52338(%rip), %rsi
100001aee: 48 8d 15 72 cc 00 00        	leaq	52338(%rip), %rdx
100001af5: 48 8d 0d f1 cc 00 00        	leaq	52465(%rip), %rcx
100001afc: 4c 8d 05 b1 cc 00 00        	leaq	52401(%rip), %r8
100001b03: 4c 8d 0d c5 cc 00 00        	leaq	52421(%rip), %r9
100001b0a: 31 db                       	xorl	%ebx, %ebx
100001b0c: bf 05 00 00 00              	movl	$5, %edi
100001b11: 31 c0                       	xorl	%eax, %eax
100001b13: e8 08 1f 00 00              	callq	7944 <_print_err>
100001b18: eb 98                       	jmp	-104 <_cylender_parcer+0x182>
100001b1a: 48 8d 35 3f cc 00 00        	leaq	52287(%rip), %rsi
100001b21: 48 8d 15 3f cc 00 00        	leaq	52287(%rip), %rdx
100001b28: 48 8d 0d be cc 00 00        	leaq	52414(%rip), %rcx
100001b2f: 4c 8d 05 a1 cc 00 00        	leaq	52385(%rip), %r8
100001b36: e9 69 ff ff ff              	jmp	-151 <_cylender_parcer+0x174>
100001b3b: 48 8d bd 50 ff ff ff        	leaq	-176(%rbp), %rdi
100001b42: be 01 00 00 00              	movl	$1, %esi
100001b47: e8 24 20 00 00              	callq	8228 <_clear_texture>
100001b4c: 31 db                       	xorl	%ebx, %ebx
100001b4e: e9 5f ff ff ff              	jmp	-161 <_cylender_parcer+0x182>
100001b53: 90                          	nop
100001b54: 90                          	nop
100001b55: 90                          	nop
100001b56: 90                          	nop
100001b57: 90                          	nop
100001b58: 90                          	nop
100001b59: 90                          	nop
100001b5a: 90                          	nop
100001b5b: 90                          	nop
100001b5c: 90                          	nop
100001b5d: 90                          	nop
100001b5e: 90                          	nop
100001b5f: 90                          	nop

0000000100001b60 _plane_parcer:
100001b60: 55                          	pushq	%rbp
100001b61: 48 89 e5                    	movq	%rsp, %rbp
100001b64: 41 56                       	pushq	%r14
100001b66: 53                          	pushq	%rbx
100001b67: 48 81 ec 80 00 00 00        	subq	$128, %rsp
100001b6e: 49 89 f6                    	movq	%rsi, %r14
100001b71: 48 89 fb                    	movq	%rdi, %rbx
100001b74: 48 8d bd 70 ff ff ff        	leaq	-144(%rbp), %rdi
100001b7b: ba 78 00 00 00              	movl	$120, %edx
100001b80: 31 f6                       	xorl	%esi, %esi
100001b82: e8 c9 7b 00 00              	callq	31689 <_ft_memset>
100001b87: 41 ff 46 18                 	incl	24(%r14)
100001b8b: 48 83 c3 03                 	addq	$3, %rbx
100001b8f: 48 89 5d e8                 	movq	%rbx, -24(%rbp)
100001b93: 48 8d 75 d0                 	leaq	-48(%rbp), %rsi
100001b97: 48 8d 7d e8                 	leaq	-24(%rbp), %rdi
100001b9b: ba ff ff ff 7f              	movl	$2147483647, %edx
100001ba0: b9 00 00 00 80              	movl	$2147483648, %ecx
100001ba5: e8 06 0a 00 00              	callq	2566 <_cordinate_parcer>
100001baa: 84 c0                       	testb	%al, %al
100001bac: 0f 84 96 00 00 00           	je	150 <_plane_parcer+0xe8>
100001bb2: 48 8d 75 b0                 	leaq	-80(%rbp), %rsi
100001bb6: 48 8d 7d e8                 	leaq	-24(%rbp), %rdi
100001bba: ba 01 00 00 00              	movl	$1, %edx
100001bbf: b9 ff ff ff ff              	movl	$4294967295, %ecx
100001bc4: e8 e7 09 00 00              	callq	2535 <_cordinate_parcer>
100001bc9: 84 c0                       	testb	%al, %al
100001bcb: 0f 84 95 00 00 00           	je	149 <_plane_parcer+0x106>
100001bd1: 48 8b 7d e8                 	movq	-24(%rbp), %rdi
100001bd5: e8 76 1d 00 00              	callq	7542 <_skip_spaces>
100001bda: 48 63 f8                    	movslq	%eax, %rdi
100001bdd: 48 03 7d e8                 	addq	-24(%rbp), %rdi
100001be1: 48 89 7d e8                 	movq	%rdi, -24(%rbp)
100001be5: 48 8d 75 c8                 	leaq	-56(%rbp), %rsi
100001be9: e8 d2 07 00 00              	callq	2002 <_color_parcer>
100001bee: 83 f8 ff                    	cmpl	$-1, %eax
100001bf1: 0f 84 8d 00 00 00           	je	141 <_plane_parcer+0x124>
100001bf7: 89 c3                       	movl	%eax, %ebx
100001bf9: 48 63 f8                    	movslq	%eax, %rdi
100001bfc: 48 03 7d e8                 	addq	-24(%rbp), %rdi
100001c00: e8 4b 1d 00 00              	callq	7499 <_skip_spaces>
100001c05: 01 d8                       	addl	%ebx, %eax
100001c07: 48 63 f8                    	movslq	%eax, %rdi
100001c0a: 48 03 7d e8                 	addq	-24(%rbp), %rdi
100001c0e: 48 89 7d e8                 	movq	%rdi, -24(%rbp)
100001c12: 48 8d b5 70 ff ff ff        	leaq	-144(%rbp), %rsi
100001c19: ba 02 00 00 00              	movl	$2, %edx
100001c1e: e8 0d 15 00 00              	callq	5389 <_check_for_features>
100001c23: 84 c0                       	testb	%al, %al
100001c25: 0f 84 91 00 00 00           	je	145 <_plane_parcer+0x15c>
100001c2b: 48 8d 8d 70 ff ff ff        	leaq	-144(%rbp), %rcx
100001c32: bf 78 00 00 00              	movl	$120, %edi
100001c37: be 02 00 00 00              	movl	$2, %esi
100001c3c: 4c 89 f2                    	movq	%r14, %rdx
100001c3f: e8 3c 17 00 00              	callq	5948 <_object_validate>
100001c44: 89 c3                       	movl	%eax, %ebx
100001c46: eb 66                       	jmp	102 <_plane_parcer+0x14e>
100001c48: 48 8d 35 11 cb 00 00        	leaq	51985(%rip), %rsi
100001c4f: 48 8d 15 11 cb 00 00        	leaq	51985(%rip), %rdx
100001c56: 48 8d 0d a6 cb 00 00        	leaq	52134(%rip), %rcx
100001c5d: 4c 8d 05 14 cb 00 00        	leaq	51988(%rip), %r8
100001c64: eb 3a                       	jmp	58 <_plane_parcer+0x140>
100001c66: 48 8d 35 f3 ca 00 00        	leaq	51955(%rip), %rsi
100001c6d: 48 8d 15 f3 ca 00 00        	leaq	51955(%rip), %rdx
100001c74: 48 8d 0d 72 cb 00 00        	leaq	52082(%rip), %rcx
100001c7b: 4c 8d 05 10 cb 00 00        	leaq	51984(%rip), %r8
100001c82: eb 1c                       	jmp	28 <_plane_parcer+0x140>
100001c84: 48 8d 35 d5 ca 00 00        	leaq	51925(%rip), %rsi
100001c8b: 48 8d 15 d5 ca 00 00        	leaq	51925(%rip), %rdx
100001c92: 48 8d 0d 54 cb 00 00        	leaq	52052(%rip), %rcx
100001c99: 4c 8d 05 37 cb 00 00        	leaq	52023(%rip), %r8
100001ca0: 31 db                       	xorl	%ebx, %ebx
100001ca2: bf 04 00 00 00              	movl	$4, %edi
100001ca7: 31 c0                       	xorl	%eax, %eax
100001ca9: e8 72 1d 00 00              	callq	7538 <_print_err>
100001cae: 89 d8                       	movl	%ebx, %eax
100001cb0: 48 81 c4 80 00 00 00        	addq	$128, %rsp
100001cb7: 5b                          	popq	%rbx
100001cb8: 41 5e                       	popq	%r14
100001cba: 5d                          	popq	%rbp
100001cbb: c3                          	retq
100001cbc: 48 8d bd 70 ff ff ff        	leaq	-144(%rbp), %rdi
100001cc3: be 02 00 00 00              	movl	$2, %esi
100001cc8: e8 a3 1e 00 00              	callq	7843 <_clear_texture>
100001ccd: 31 db                       	xorl	%ebx, %ebx
100001ccf: eb dd                       	jmp	-35 <_plane_parcer+0x14e>
100001cd1: 90                          	nop
100001cd2: 90                          	nop
100001cd3: 90                          	nop
100001cd4: 90                          	nop
100001cd5: 90                          	nop
100001cd6: 90                          	nop
100001cd7: 90                          	nop
100001cd8: 90                          	nop
100001cd9: 90                          	nop
100001cda: 90                          	nop
100001cdb: 90                          	nop
100001cdc: 90                          	nop
100001cdd: 90                          	nop
100001cde: 90                          	nop
100001cdf: 90                          	nop

0000000100001ce0 _sphere_parcer:
100001ce0: 55                          	pushq	%rbp
100001ce1: 48 89 e5                    	movq	%rsp, %rbp
100001ce4: 41 56                       	pushq	%r14
100001ce6: 53                          	pushq	%rbx
100001ce7: 48 81 ec 80 00 00 00        	subq	$128, %rsp
100001cee: 49 89 f6                    	movq	%rsi, %r14
100001cf1: 48 89 fb                    	movq	%rdi, %rbx
100001cf4: 48 8d bd 78 ff ff ff        	leaq	-136(%rbp), %rdi
100001cfb: ba 70 00 00 00              	movl	$112, %edx
100001d00: 31 f6                       	xorl	%esi, %esi
100001d02: e8 49 7a 00 00              	callq	31305 <_ft_memset>
100001d07: 41 ff 46 10                 	incl	16(%r14)
100001d0b: 48 83 c3 03                 	addq	$3, %rbx
100001d0f: 48 89 5d e8                 	movq	%rbx, -24(%rbp)
100001d13: 48 8d 75 b8                 	leaq	-72(%rbp), %rsi
100001d17: 48 8d 7d e8                 	leaq	-24(%rbp), %rdi
100001d1b: ba ff ff ff 7f              	movl	$2147483647, %edx
100001d20: b9 00 00 00 80              	movl	$2147483648, %ecx
100001d25: e8 86 08 00 00              	callq	2182 <_cordinate_parcer>
100001d2a: 84 c0                       	testb	%al, %al
100001d2c: 0f 84 93 00 00 00           	je	147 <_sphere_parcer+0xe5>
100001d32: 48 8d 75 d8                 	leaq	-40(%rbp), %rsi
100001d36: 48 8d 7d e8                 	leaq	-24(%rbp), %rdi
100001d3a: ba ff ff ff 7f              	movl	$2147483647, %edx
100001d3f: b9 00 00 00 80              	movl	$2147483648, %ecx
100001d44: e8 c7 17 00 00              	callq	6087 <_ft_atod>
100001d49: 84 c0                       	testb	%al, %al
100001d4b: 0f 84 a0 00 00 00           	je	160 <_sphere_parcer+0x111>
100001d51: 48 8b 7d e8                 	movq	-24(%rbp), %rdi
100001d55: e8 f6 1b 00 00              	callq	7158 <_skip_spaces>
100001d5a: 48 63 f8                    	movslq	%eax, %rdi
100001d5d: 48 03 7d e8                 	addq	-24(%rbp), %rdi
100001d61: 48 89 7d e8                 	movq	%rdi, -24(%rbp)
100001d65: 48 8d 75 d0                 	leaq	-48(%rbp), %rsi
100001d69: e8 52 06 00 00              	callq	1618 <_color_parcer>
100001d6e: 83 f8 ff                    	cmpl	$-1, %eax
100001d71: 0f 84 ad 00 00 00           	je	173 <_sphere_parcer+0x144>
100001d77: 89 c3                       	movl	%eax, %ebx
100001d79: 48 63 f8                    	movslq	%eax, %rdi
100001d7c: 48 03 7d e8                 	addq	-24(%rbp), %rdi
100001d80: e8 cb 1b 00 00              	callq	7115 <_skip_spaces>
100001d85: 01 d8                       	addl	%ebx, %eax
100001d87: 48 63 f8                    	movslq	%eax, %rdi
100001d8a: 48 03 7d e8                 	addq	-24(%rbp), %rdi
100001d8e: 48 89 7d e8                 	movq	%rdi, -24(%rbp)
100001d92: 48 8d b5 78 ff ff ff        	leaq	-136(%rbp), %rsi
100001d99: 31 d2                       	xorl	%edx, %edx
100001d9b: e8 90 13 00 00              	callq	5008 <_check_for_features>
100001da0: 84 c0                       	testb	%al, %al
100001da2: 0f 84 9a 00 00 00           	je	154 <_sphere_parcer+0x162>
100001da8: 48 8d 8d 78 ff ff ff        	leaq	-136(%rbp), %rcx
100001daf: bf 70 00 00 00              	movl	$112, %edi
100001db4: 31 f6                       	xorl	%esi, %esi
100001db6: 4c 89 f2                    	movq	%r14, %rdx
100001db9: e8 c2 15 00 00              	callq	5570 <_object_validate>
100001dbe: 89 c3                       	movl	%eax, %ebx
100001dc0: e9 8d 00 00 00              	jmp	141 <_sphere_parcer+0x172>
100001dc5: 48 8d 35 94 c9 00 00        	leaq	51604(%rip), %rsi
100001dcc: 48 8d 15 94 c9 00 00        	leaq	51604(%rip), %rdx
100001dd3: 48 8d 0d 32 ca 00 00        	leaq	51762(%rip), %rcx
100001dda: 4c 8d 05 97 c9 00 00        	leaq	51607(%rip), %r8
100001de1: 31 db                       	xorl	%ebx, %ebx
100001de3: bf 04 00 00 00              	movl	$4, %edi
100001de8: 31 c0                       	xorl	%eax, %eax
100001dea: e8 31 1c 00 00              	callq	7217 <_print_err>
100001def: eb 61                       	jmp	97 <_sphere_parcer+0x172>
100001df1: 48 8d 35 68 c9 00 00        	leaq	51560(%rip), %rsi
100001df8: 48 8d 15 68 c9 00 00        	leaq	51560(%rip), %rdx
100001dff: 48 8d 0d 06 ca 00 00        	leaq	51718(%rip), %rcx
100001e06: 4c 8d 05 a7 c9 00 00        	leaq	51623(%rip), %r8
100001e0d: 4c 8d 0d e5 c9 00 00        	leaq	51685(%rip), %r9
100001e14: 31 db                       	xorl	%ebx, %ebx
100001e16: bf 05 00 00 00              	movl	$5, %edi
100001e1b: 31 c0                       	xorl	%eax, %eax
100001e1d: e8 fe 1b 00 00              	callq	7166 <_print_err>
100001e22: eb 2e                       	jmp	46 <_sphere_parcer+0x172>
100001e24: 48 8d 35 35 c9 00 00        	leaq	51509(%rip), %rsi
100001e2b: 48 8d 15 35 c9 00 00        	leaq	51509(%rip), %rdx
100001e32: 48 8d 0d d3 c9 00 00        	leaq	51667(%rip), %rcx
100001e39: 4c 8d 05 97 c9 00 00        	leaq	51607(%rip), %r8
100001e40: eb 9f                       	jmp	-97 <_sphere_parcer+0x101>
100001e42: 48 8d bd 78 ff ff ff        	leaq	-136(%rbp), %rdi
100001e49: 31 db                       	xorl	%ebx, %ebx
100001e4b: 31 f6                       	xorl	%esi, %esi
100001e4d: e8 1e 1d 00 00              	callq	7454 <_clear_texture>
100001e52: 89 d8                       	movl	%ebx, %eax
100001e54: 48 81 c4 80 00 00 00        	addq	$128, %rsp
100001e5b: 5b                          	popq	%rbx
100001e5c: 41 5e                       	popq	%r14
100001e5e: 5d                          	popq	%rbp
100001e5f: c3                          	retq

0000000100001e60 _triangle_parcer:
100001e60: 55                          	pushq	%rbp
100001e61: 48 89 e5                    	movq	%rsp, %rbp
100001e64: 41 57                       	pushq	%r15
100001e66: 41 56                       	pushq	%r14
100001e68: 53                          	pushq	%rbx
100001e69: 48 81 ec f8 00 00 00        	subq	$248, %rsp
100001e70: 49 89 f7                    	movq	%rsi, %r15
100001e73: 48 89 fb                    	movq	%rdi, %rbx
100001e76: 48 8d bd f0 fe ff ff        	leaq	-272(%rbp), %rdi
100001e7d: ba f0 00 00 00              	movl	$240, %edx
100001e82: 31 f6                       	xorl	%esi, %esi
100001e84: e8 c7 78 00 00              	callq	30919 <_ft_memset>
100001e89: 41 ff 47 1c                 	incl	28(%r15)
100001e8d: 48 83 c3 03                 	addq	$3, %rbx
100001e91: 48 89 5d e0                 	movq	%rbx, -32(%rbp)
100001e95: 48 8d b5 50 ff ff ff        	leaq	-176(%rbp), %rsi
100001e9c: 48 8d 7d e0                 	leaq	-32(%rbp), %rdi
100001ea0: ba ff ff ff 7f              	movl	$2147483647, %edx
100001ea5: b9 00 00 00 80              	movl	$2147483648, %ecx
100001eaa: e8 01 07 00 00              	callq	1793 <_cordinate_parcer>
100001eaf: 84 c0                       	testb	%al, %al
100001eb1: 0f 84 b5 00 00 00           	je	181 <_triangle_parcer+0x10c>
100001eb7: 48 8d b5 68 ff ff ff        	leaq	-152(%rbp), %rsi
100001ebe: 48 8d 7d e0                 	leaq	-32(%rbp), %rdi
100001ec2: ba ff ff ff 7f              	movl	$2147483647, %edx
100001ec7: b9 00 00 00 80              	movl	$2147483648, %ecx
100001ecc: e8 df 06 00 00              	callq	1759 <_cordinate_parcer>
100001ed1: 84 c0                       	testb	%al, %al
100001ed3: 0f 84 93 00 00 00           	je	147 <_triangle_parcer+0x10c>
100001ed9: 48 8d 75 80                 	leaq	-128(%rbp), %rsi
100001edd: 48 8d 7d e0                 	leaq	-32(%rbp), %rdi
100001ee1: ba ff ff ff 7f              	movl	$2147483647, %edx
100001ee6: b9 00 00 00 80              	movl	$2147483648, %ecx
100001eeb: e8 c0 06 00 00              	callq	1728 <_cordinate_parcer>
100001ef0: 84 c0                       	testb	%al, %al
100001ef2: 74 78                       	je	120 <_triangle_parcer+0x10c>
100001ef4: 48 8b 7d e0                 	movq	-32(%rbp), %rdi
100001ef8: e8 53 1a 00 00              	callq	6739 <_skip_spaces>
100001efd: 48 63 f8                    	movslq	%eax, %rdi
100001f00: 48 03 7d e0                 	addq	-32(%rbp), %rdi
100001f04: 48 89 7d e0                 	movq	%rdi, -32(%rbp)
100001f08: 48 8d b5 48 ff ff ff        	leaq	-184(%rbp), %rsi
100001f0f: e8 ac 04 00 00              	callq	1196 <_color_parcer>
100001f14: 83 f8 ff                    	cmpl	$-1, %eax
100001f17: 0f 84 89 00 00 00           	je	137 <_triangle_parcer+0x146>
100001f1d: 41 89 c6                    	movl	%eax, %r14d
100001f20: 48 63 f8                    	movslq	%eax, %rdi
100001f23: 48 03 7d e0                 	addq	-32(%rbp), %rdi
100001f27: e8 24 1a 00 00              	callq	6692 <_skip_spaces>
100001f2c: 44 01 f0                    	addl	%r14d, %eax
100001f2f: 48 63 f8                    	movslq	%eax, %rdi
100001f32: 48 03 7d e0                 	addq	-32(%rbp), %rdi
100001f36: 48 89 7d e0                 	movq	%rdi, -32(%rbp)
100001f3a: 48 8d b5 f0 fe ff ff        	leaq	-272(%rbp), %rsi
100001f41: ba 03 00 00 00              	movl	$3, %edx
100001f46: e8 e5 11 00 00              	callq	4581 <_check_for_features>
100001f4b: 84 c0                       	testb	%al, %al
100001f4d: 74 75                       	je	117 <_triangle_parcer+0x164>
100001f4f: 48 8d 8d f0 fe ff ff        	leaq	-272(%rbp), %rcx
100001f56: bf f0 00 00 00              	movl	$240, %edi
100001f5b: be 03 00 00 00              	movl	$3, %esi
100001f60: 4c 89 fa                    	movq	%r15, %rdx
100001f63: e8 18 14 00 00              	callq	5144 <_object_validate>
100001f68: 89 c3                       	movl	%eax, %ebx
100001f6a: eb 2a                       	jmp	42 <_triangle_parcer+0x136>
100001f6c: 48 8d 35 ed c7 00 00        	leaq	51181(%rip), %rsi
100001f73: 48 8d 15 ed c7 00 00        	leaq	51181(%rip), %rdx
100001f7a: 48 8d 0d 95 c8 00 00        	leaq	51349(%rip), %rcx
100001f81: 4c 8d 05 f0 c7 00 00        	leaq	51184(%rip), %r8
100001f88: 31 db                       	xorl	%ebx, %ebx
100001f8a: bf 04 00 00 00              	movl	$4, %edi
100001f8f: 31 c0                       	xorl	%eax, %eax
100001f91: e8 8a 1a 00 00              	callq	6794 <_print_err>
100001f96: 89 d8                       	movl	%ebx, %eax
100001f98: 48 81 c4 f8 00 00 00        	addq	$248, %rsp
100001f9f: 5b                          	popq	%rbx
100001fa0: 41 5e                       	popq	%r14
100001fa2: 41 5f                       	popq	%r15
100001fa4: 5d                          	popq	%rbp
100001fa5: c3                          	retq
100001fa6: 48 8d 35 b3 c7 00 00        	leaq	51123(%rip), %rsi
100001fad: 48 8d 15 b3 c7 00 00        	leaq	51123(%rip), %rdx
100001fb4: 48 8d 0d 5b c8 00 00        	leaq	51291(%rip), %rcx
100001fbb: 4c 8d 05 15 c8 00 00        	leaq	51221(%rip), %r8
100001fc2: eb c4                       	jmp	-60 <_triangle_parcer+0x128>
100001fc4: 31 db                       	xorl	%ebx, %ebx
100001fc6: eb ce                       	jmp	-50 <_triangle_parcer+0x136>
100001fc8: 90                          	nop
100001fc9: 90                          	nop
100001fca: 90                          	nop
100001fcb: 90                          	nop
100001fcc: 90                          	nop
100001fcd: 90                          	nop
100001fce: 90                          	nop
100001fcf: 90                          	nop

0000000100001fd0 _camera_parcer:
100001fd0: 55                          	pushq	%rbp
100001fd1: 48 89 e5                    	movq	%rsp, %rbp
100001fd4: 41 57                       	pushq	%r15
100001fd6: 41 56                       	pushq	%r14
100001fd8: 53                          	pushq	%rbx
100001fd9: 50                          	pushq	%rax
100001fda: 49 89 f6                    	movq	%rsi, %r14
100001fdd: 48 89 7d e0                 	movq	%rdi, -32(%rbp)
100001fe1: 8a 1d 09 dc 02 00           	movb	187401(%rip), %bl
100001fe7: 48 85 ff                    	testq	%rdi, %rdi
100001fea: 75 09                       	jne	9 <_camera_parcer+0x25>
100001fec: 4d 85 f6                    	testq	%r14, %r14
100001fef: 0f 84 48 01 00 00           	je	328 <_camera_parcer+0x16d>
100001ff5: f6 c3 01                    	testb	$1, %bl
100001ff8: 74 21                       	je	33 <_camera_parcer+0x4b>
100001ffa: 48 8d 35 5f c7 00 00        	leaq	51039(%rip), %rsi
100002001: 48 8d 15 5f c7 00 00        	leaq	51039(%rip), %rdx
100002008: 48 8d 0d 13 c8 00 00        	leaq	51219(%rip), %rcx
10000200f: 4c 8d 05 14 c8 00 00        	leaq	51220(%rip), %r8
100002016: e9 14 01 00 00              	jmp	276 <_camera_parcer+0x15f>
10000201b: c6 05 ce db 02 00 01        	movb	$1, 187342(%rip)
100002022: 48 83 c7 02                 	addq	$2, %rdi
100002026: 48 89 7d e0                 	movq	%rdi, -32(%rbp)
10000202a: 49 8d 76 30                 	leaq	48(%r14), %rsi
10000202e: 48 8d 7d e0                 	leaq	-32(%rbp), %rdi
100002032: ba ff ff ff 7f              	movl	$2147483647, %edx
100002037: b9 00 00 00 80              	movl	$2147483648, %ecx
10000203c: e8 6f 05 00 00              	callq	1391 <_cordinate_parcer>
100002041: 84 c0                       	testb	%al, %al
100002043: 0f 84 ac 00 00 00           	je	172 <_camera_parcer+0x125>
100002049: 49 8d 76 48                 	leaq	72(%r14), %rsi
10000204d: 48 8d 7d e0                 	leaq	-32(%rbp), %rdi
100002051: ba 01 00 00 00              	movl	$1, %edx
100002056: b9 ff ff ff ff              	movl	$4294967295, %ecx
10000205b: e8 50 05 00 00              	callq	1360 <_cordinate_parcer>
100002060: 84 c0                       	testb	%al, %al
100002062: 0f 84 ab 00 00 00           	je	171 <_camera_parcer+0x143>
100002068: 48 8b 7d e0                 	movq	-32(%rbp), %rdi
10000206c: e8 df 18 00 00              	callq	6367 <_skip_spaces>
100002071: 48 8b 4d e0                 	movq	-32(%rbp), %rcx
100002075: 48 98                       	cltq
100002077: 48 8d 14 01                 	leaq	(%rcx,%rax), %rdx
10000207b: 48 89 55 e0                 	movq	%rdx, -32(%rbp)
10000207f: 0f be 3c 01                 	movsbl	(%rcx,%rax), %edi
100002083: e8 c8 75 00 00              	callq	30152 <_ft_isdigit>
100002088: 31 db                       	xorl	%ebx, %ebx
10000208a: 85 c0                       	testl	%eax, %eax
10000208c: 74 17                       	je	23 <_camera_parcer+0xd5>
10000208e: 66 90                       	nop
100002090: 48 8b 45 e0                 	movq	-32(%rbp), %rax
100002094: 0f be 7c 18 01              	movsbl	1(%rax,%rbx), %edi
100002099: 48 ff c3                    	incq	%rbx
10000209c: e8 af 75 00 00              	callq	30127 <_ft_isdigit>
1000020a1: 85 c0                       	testl	%eax, %eax
1000020a3: 75 eb                       	jne	-21 <_camera_parcer+0xc0>
1000020a5: 89 df                       	movl	%ebx, %edi
1000020a7: 4c 8b 7d e0                 	movq	-32(%rbp), %r15
1000020ab: 4c 01 ff                    	addq	%r15, %rdi
1000020ae: e8 9d 18 00 00              	callq	6301 <_skip_spaces>
1000020b3: 01 d8                       	addl	%ebx, %eax
1000020b5: 48 98                       	cltq
1000020b7: 41 80 3c 07 00              	cmpb	$0, (%r15,%rax)
1000020bc: 0f 84 8b 00 00 00           	je	139 <_camera_parcer+0x17d>
1000020c2: 48 8d 35 97 c6 00 00        	leaq	50839(%rip), %rsi
1000020c9: 48 8d 15 97 c6 00 00        	leaq	50839(%rip), %rdx
1000020d0: 48 8d 0d 4b c7 00 00        	leaq	51019(%rip), %rcx
1000020d7: 4c 8d 05 d6 c6 00 00        	leaq	50902(%rip), %r8
1000020de: 4c 8d 0d 50 c7 00 00        	leaq	51024(%rip), %r9
1000020e5: 31 db                       	xorl	%ebx, %ebx
1000020e7: bf 05 00 00 00              	movl	$5, %edi
1000020ec: 31 c0                       	xorl	%eax, %eax
1000020ee: e8 2d 19 00 00              	callq	6445 <_print_err>
1000020f3: eb 48                       	jmp	72 <_camera_parcer+0x16d>
1000020f5: 48 8d 35 64 c6 00 00        	leaq	50788(%rip), %rsi
1000020fc: 48 8d 15 64 c6 00 00        	leaq	50788(%rip), %rdx
100002103: 48 8d 0d 18 c7 00 00        	leaq	50968(%rip), %rcx
10000210a: 4c 8d 05 67 c6 00 00        	leaq	50791(%rip), %r8
100002111: eb 1c                       	jmp	28 <_camera_parcer+0x15f>
100002113: 48 8d 35 46 c6 00 00        	leaq	50758(%rip), %rsi
10000211a: 48 8d 15 46 c6 00 00        	leaq	50758(%rip), %rdx
100002121: 48 8d 0d fa c6 00 00        	leaq	50938(%rip), %rcx
100002128: 4c 8d 05 63 c6 00 00        	leaq	50787(%rip), %r8
10000212f: 31 db                       	xorl	%ebx, %ebx
100002131: bf 04 00 00 00              	movl	$4, %edi
100002136: 31 c0                       	xorl	%eax, %eax
100002138: e8 e3 18 00 00              	callq	6371 <_print_err>
10000213d: 80 e3 01                    	andb	$1, %bl
100002140: 89 d8                       	movl	%ebx, %eax
100002142: 48 83 c4 08                 	addq	$8, %rsp
100002146: 5b                          	popq	%rbx
100002147: 41 5e                       	popq	%r14
100002149: 41 5f                       	popq	%r15
10000214b: 5d                          	popq	%rbp
10000214c: c3                          	retq
10000214d: 48 8b 7d e0                 	movq	-32(%rbp), %rdi
100002151: e8 2a 73 00 00              	callq	29482 <_ft_atoi>
100002156: 41 88 46 28                 	movb	%al, 40(%r14)
10000215a: b3 01                       	movb	$1, %bl
10000215c: eb df                       	jmp	-33 <_camera_parcer+0x16d>
10000215e: 90                          	nop
10000215f: 90                          	nop

0000000100002160 _light_parcer:
100002160: 55                          	pushq	%rbp
100002161: 48 89 e5                    	movq	%rsp, %rbp
100002164: 53                          	pushq	%rbx
100002165: 48 83 ec 38                 	subq	$56, %rsp
100002169: 48 89 f3                    	movq	%rsi, %rbx
10000216c: 48 83 c7 02                 	addq	$2, %rdi
100002170: 48 89 7d f0                 	movq	%rdi, -16(%rbp)
100002174: 48 8d 75 d0                 	leaq	-48(%rbp), %rsi
100002178: 48 8d 7d f0                 	leaq	-16(%rbp), %rdi
10000217c: ba ff ff ff 7f              	movl	$2147483647, %edx
100002181: b9 00 00 00 80              	movl	$2147483648, %ecx
100002186: e8 25 04 00 00              	callq	1061 <_cordinate_parcer>
10000218b: 84 c0                       	testb	%al, %al
10000218d: 0f 84 89 00 00 00           	je	137 <_light_parcer+0xbc>
100002193: 48 8d 75 c8                 	leaq	-56(%rbp), %rsi
100002197: 48 8d 7d f0                 	leaq	-16(%rbp), %rdi
10000219b: ba 01 00 00 00              	movl	$1, %edx
1000021a0: 31 c9                       	xorl	%ecx, %ecx
1000021a2: e8 69 13 00 00              	callq	4969 <_ft_atod>
1000021a7: 84 c0                       	testb	%al, %al
1000021a9: 0f 84 99 00 00 00           	je	153 <_light_parcer+0xe8>
1000021af: 48 8b 7d f0                 	movq	-16(%rbp), %rdi
1000021b3: e8 98 17 00 00              	callq	6040 <_skip_spaces>
1000021b8: 48 63 f8                    	movslq	%eax, %rdi
1000021bb: 48 03 7d f0                 	addq	-16(%rbp), %rdi
1000021bf: 48 89 7d f0                 	movq	%rdi, -16(%rbp)
1000021c3: 48 8d 75 c0                 	leaq	-64(%rbp), %rsi
1000021c7: e8 f4 01 00 00              	callq	500 <_color_parcer>
1000021cc: 83 f8 ff                    	cmpl	$-1, %eax
1000021cf: 0f 84 ad 00 00 00           	je	173 <_light_parcer+0x122>
1000021d5: 48 8b 45 e8                 	movq	-24(%rbp), %rax
1000021d9: 48 8b 4d e0                 	movq	-32(%rbp), %rcx
1000021dd: 48 8b 55 d8                 	movq	-40(%rbp), %rdx
1000021e1: 48 8b 75 d0                 	movq	-48(%rbp), %rsi
1000021e5: 4c 8b 45 c0                 	movq	-64(%rbp), %r8
1000021e9: 48 8b 7d c8                 	movq	-56(%rbp), %rdi
1000021ed: 50                          	pushq	%rax
1000021ee: 51                          	pushq	%rcx
1000021ef: 52                          	pushq	%rdx
1000021f0: 56                          	pushq	%rsi
1000021f1: 57                          	pushq	%rdi
1000021f2: 41 50                       	pushq	%r8
1000021f4: e8 57 16 00 00              	callq	5719 <_newlight>
1000021f9: 48 83 c4 30                 	addq	$48, %rsp
1000021fd: 48 85 c0                    	testq	%rax, %rax
100002200: 0f 84 9a 00 00 00           	je	154 <_light_parcer+0x140>
100002206: 48 81 c3 28 01 00 00        	addq	$296, %rbx
10000220d: 48 89 df                    	movq	%rbx, %rdi
100002210: 48 89 c6                    	movq	%rax, %rsi
100002213: e8 a8 10 00 00              	callq	4264 <_addlight>
100002218: b3 01                       	movb	$1, %bl
10000221a: eb 5d                       	jmp	93 <_light_parcer+0x119>
10000221c: 48 8d 35 3d c5 00 00        	leaq	50493(%rip), %rsi
100002223: 48 8d 15 3d c5 00 00        	leaq	50493(%rip), %rdx
10000222a: 48 8d 0d 0f c6 00 00        	leaq	50703(%rip), %rcx
100002231: 4c 8d 05 40 c5 00 00        	leaq	50496(%rip), %r8
100002238: 31 db                       	xorl	%ebx, %ebx
10000223a: bf 04 00 00 00              	movl	$4, %edi
10000223f: 31 c0                       	xorl	%eax, %eax
100002241: e8 da 17 00 00              	callq	6106 <_print_err>
100002246: eb 31                       	jmp	49 <_light_parcer+0x119>
100002248: 48 8d 35 11 c5 00 00        	leaq	50449(%rip), %rsi
10000224f: 48 8d 15 11 c5 00 00        	leaq	50449(%rip), %rdx
100002256: 48 8d 0d e3 c5 00 00        	leaq	50659(%rip), %rcx
10000225d: 4c 8d 05 50 c5 00 00        	leaq	50512(%rip), %r8
100002264: 4c 8d 0d dc c5 00 00        	leaq	50652(%rip), %r9
10000226b: 31 db                       	xorl	%ebx, %ebx
10000226d: bf 05 00 00 00              	movl	$5, %edi
100002272: 31 c0                       	xorl	%eax, %eax
100002274: e8 a7 17 00 00              	callq	6055 <_print_err>
100002279: 89 d8                       	movl	%ebx, %eax
10000227b: 48 83 c4 38                 	addq	$56, %rsp
10000227f: 5b                          	popq	%rbx
100002280: 5d                          	popq	%rbp
100002281: c3                          	retq
100002282: 48 8d 35 d7 c4 00 00        	leaq	50391(%rip), %rsi
100002289: 48 8d 15 d7 c4 00 00        	leaq	50391(%rip), %rdx
100002290: 48 8d 0d a9 c5 00 00        	leaq	50601(%rip), %rcx
100002297: 4c 8d 05 39 c5 00 00        	leaq	50489(%rip), %r8
10000229e: eb 98                       	jmp	-104 <_light_parcer+0xd8>
1000022a0: 31 db                       	xorl	%ebx, %ebx
1000022a2: eb d5                       	jmp	-43 <_light_parcer+0x119>
1000022a4: 90                          	nop
1000022a5: 90                          	nop
1000022a6: 90                          	nop
1000022a7: 90                          	nop
1000022a8: 90                          	nop
1000022a9: 90                          	nop
1000022aa: 90                          	nop
1000022ab: 90                          	nop
1000022ac: 90                          	nop
1000022ad: 90                          	nop
1000022ae: 90                          	nop
1000022af: 90                          	nop

00000001000022b0 _lighting_parcer:
1000022b0: 55                          	pushq	%rbp
1000022b1: 48 89 e5                    	movq	%rsp, %rbp
1000022b4: 41 56                       	pushq	%r14
1000022b6: 53                          	pushq	%rbx
1000022b7: 48 83 ec 10                 	subq	$16, %rsp
1000022bb: 49 89 f6                    	movq	%rsi, %r14
1000022be: 48 89 7d e8                 	movq	%rdi, -24(%rbp)
1000022c2: 8a 1d 29 d9 02 00           	movb	186665(%rip), %bl
1000022c8: 48 85 ff                    	testq	%rdi, %rdi
1000022cb: 75 09                       	jne	9 <_lighting_parcer+0x26>
1000022cd: 4d 85 f6                    	testq	%r14, %r14
1000022d0: 0f 84 cd 00 00 00           	je	205 <_lighting_parcer+0xf3>
1000022d6: f6 c3 01                    	testb	$1, %bl
1000022d9: 74 2f                       	je	47 <_lighting_parcer+0x5a>
1000022db: 48 8d 35 7e c4 00 00        	leaq	50302(%rip), %rsi
1000022e2: 48 8d 15 7e c4 00 00        	leaq	50302(%rip), %rdx
1000022e9: 48 8d 0d 63 c5 00 00        	leaq	50531(%rip), %rcx
1000022f0: 4c 8d 05 33 c5 00 00        	leaq	50483(%rip), %r8
1000022f7: 31 db                       	xorl	%ebx, %ebx
1000022f9: bf 04 00 00 00              	movl	$4, %edi
1000022fe: 31 c0                       	xorl	%eax, %eax
100002300: e8 1b 17 00 00              	callq	5915 <_print_err>
100002305: e9 99 00 00 00              	jmp	153 <_lighting_parcer+0xf3>
10000230a: c6 05 e0 d8 02 00 01        	movb	$1, 186592(%rip)
100002311: 48 83 c7 02                 	addq	$2, %rdi
100002315: 48 89 7d e8                 	movq	%rdi, -24(%rbp)
100002319: 49 8d 76 08                 	leaq	8(%r14), %rsi
10000231d: 48 8d 7d e8                 	leaq	-24(%rbp), %rdi
100002321: ba 01 00 00 00              	movl	$1, %edx
100002326: 31 c9                       	xorl	%ecx, %ecx
100002328: e8 e3 11 00 00              	callq	4579 <_ft_atod>
10000232d: 84 c0                       	testb	%al, %al
10000232f: 74 41                       	je	65 <_lighting_parcer+0xc2>
100002331: 48 8b 7d e8                 	movq	-24(%rbp), %rdi
100002335: e8 16 16 00 00              	callq	5654 <_skip_spaces>
10000233a: 48 63 f8                    	movslq	%eax, %rdi
10000233d: 48 03 7d e8                 	addq	-24(%rbp), %rdi
100002341: 48 89 7d e8                 	movq	%rdi, -24(%rbp)
100002345: 4c 89 f6                    	movq	%r14, %rsi
100002348: e8 73 00 00 00              	callq	115 <_color_parcer>
10000234d: b3 01                       	movb	$1, %bl
10000234f: 83 f8 ff                    	cmpl	$-1, %eax
100002352: 75 4f                       	jne	79 <_lighting_parcer+0xf3>
100002354: 48 8d 35 05 c4 00 00        	leaq	50181(%rip), %rsi
10000235b: 48 8d 15 05 c4 00 00        	leaq	50181(%rip), %rdx
100002362: 48 8d 0d ea c4 00 00        	leaq	50410(%rip), %rcx
100002369: 4c 8d 05 67 c4 00 00        	leaq	50279(%rip), %r8
100002370: eb 85                       	jmp	-123 <_lighting_parcer+0x47>
100002372: 48 8d 35 e7 c3 00 00        	leaq	50151(%rip), %rsi
100002379: 48 8d 15 e7 c3 00 00        	leaq	50151(%rip), %rdx
100002380: 48 8d 0d cc c4 00 00        	leaq	50380(%rip), %rcx
100002387: 4c 8d 05 26 c4 00 00        	leaq	50214(%rip), %r8
10000238e: 4c 8d 0d d0 c4 00 00        	leaq	50384(%rip), %r9
100002395: 31 db                       	xorl	%ebx, %ebx
100002397: bf 05 00 00 00              	movl	$5, %edi
10000239c: 31 c0                       	xorl	%eax, %eax
10000239e: e8 7d 16 00 00              	callq	5757 <_print_err>
1000023a3: 80 e3 01                    	andb	$1, %bl
1000023a6: 89 d8                       	movl	%ebx, %eax
1000023a8: 48 83 c4 10                 	addq	$16, %rsp
1000023ac: 5b                          	popq	%rbx
1000023ad: 41 5e                       	popq	%r14
1000023af: 5d                          	popq	%rbp
1000023b0: c3                          	retq
1000023b1: 90                          	nop
1000023b2: 90                          	nop
1000023b3: 90                          	nop
1000023b4: 90                          	nop
1000023b5: 90                          	nop
1000023b6: 90                          	nop
1000023b7: 90                          	nop
1000023b8: 90                          	nop
1000023b9: 90                          	nop
1000023ba: 90                          	nop
1000023bb: 90                          	nop
1000023bc: 90                          	nop
1000023bd: 90                          	nop
1000023be: 90                          	nop
1000023bf: 90                          	nop

00000001000023c0 _color_parcer:
1000023c0: 55                          	pushq	%rbp
1000023c1: 48 89 e5                    	movq	%rsp, %rbp
1000023c4: 41 57                       	pushq	%r15
1000023c6: 41 56                       	pushq	%r14
1000023c8: 41 55                       	pushq	%r13
1000023ca: 41 54                       	pushq	%r12
1000023cc: 53                          	pushq	%rbx
1000023cd: 50                          	pushq	%rax
1000023ce: 8a 07                       	movb	(%rdi), %al
1000023d0: 41 bf ff ff ff ff           	movl	$4294967295, %r15d
1000023d6: 84 c0                       	testb	%al, %al
1000023d8: 0f 84 bb 01 00 00           	je	443 <_color_parcer+0x1d9>
1000023de: 49 89 f6                    	movq	%rsi, %r14
1000023e1: 49 89 fd                    	movq	%rdi, %r13
1000023e4: 31 db                       	xorl	%ebx, %ebx
1000023e6: 66 2e 0f 1f 84 00 00 00 00 00       	nopw	%cs:(%rax,%rax)
1000023f0: 0f be f8                    	movsbl	%al, %edi
1000023f3: e8 58 72 00 00              	callq	29272 <_ft_isdigit>
1000023f8: 48 83 fb 04                 	cmpq	$4, %rbx
1000023fc: 77 11                       	ja	17 <_color_parcer+0x4f>
1000023fe: 85 c0                       	testl	%eax, %eax
100002400: 74 0d                       	je	13 <_color_parcer+0x4f>
100002402: 41 0f b6 44 1d 01           	movzbl	1(%r13,%rbx), %eax
100002408: 48 ff c3                    	incq	%rbx
10000240b: 84 c0                       	testb	%al, %al
10000240d: 75 e1                       	jne	-31 <_color_parcer+0x30>
10000240f: 83 fb ff                    	cmpl	$-1, %ebx
100002412: 0f 84 81 01 00 00           	je	385 <_color_parcer+0x1d9>
100002418: 8d 43 ff                    	leal	-1(%rbx), %eax
10000241b: 83 f8 02                    	cmpl	$2, %eax
10000241e: 0f 87 75 01 00 00           	ja	373 <_color_parcer+0x1d9>
100002424: 89 d9                       	movl	%ebx, %ecx
100002426: 41 80 7c 0d 00 2c           	cmpb	$44, (%r13,%rcx)
10000242c: 0f 85 67 01 00 00           	jne	359 <_color_parcer+0x1d9>
100002432: 41 8a 44 0d 01              	movb	1(%r13,%rcx), %al
100002437: 84 c0                       	testb	%al, %al
100002439: 0f 84 5a 01 00 00           	je	346 <_color_parcer+0x1d9>
10000243f: 4e 8d 7c 29 02              	leaq	2(%rcx,%r13), %r15
100002444: 45 31 e4                    	xorl	%r12d, %r12d
100002447: 66 0f 1f 84 00 00 00 00 00  	nopw	(%rax,%rax)
100002450: 0f be f8                    	movsbl	%al, %edi
100002453: e8 f8 71 00 00              	callq	29176 <_ft_isdigit>
100002458: 49 83 fc 04                 	cmpq	$4, %r12
10000245c: 77 10                       	ja	16 <_color_parcer+0xae>
10000245e: 85 c0                       	testl	%eax, %eax
100002460: 74 0c                       	je	12 <_color_parcer+0xae>
100002462: 43 0f b6 04 27              	movzbl	(%r15,%r12), %eax
100002467: 49 ff c4                    	incq	%r12
10000246a: 84 c0                       	testb	%al, %al
10000246c: 75 e2                       	jne	-30 <_color_parcer+0x90>
10000246e: 41 8d 44 24 ff              	leal	-1(%r12), %eax
100002473: 83 f8 03                    	cmpl	$3, %eax
100002476: 41 bf ff ff ff ff           	movl	$4294967295, %r15d
10000247c: 45 0f 43 e7                 	cmovael	%r15d, %r12d
100002480: 41 83 fc ff                 	cmpl	$-1, %r12d
100002484: 0f 84 0f 01 00 00           	je	271 <_color_parcer+0x1d9>
10000248a: 42 8d 54 23 01              	leal	1(%rbx,%r12), %edx
10000248f: 48 63 ca                    	movslq	%edx, %rcx
100002492: 41 80 7c 0d 00 2c           	cmpb	$44, (%r13,%rcx)
100002498: 0f 85 fb 00 00 00           	jne	251 <_color_parcer+0x1d9>
10000249e: 41 8a 44 0d 01              	movb	1(%r13,%rcx), %al
1000024a3: 84 c0                       	testb	%al, %al
1000024a5: 0f 84 ee 00 00 00           	je	238 <_color_parcer+0x1d9>
1000024ab: 48 89 55 d0                 	movq	%rdx, -48(%rbp)
1000024af: 4a 8d 5c 29 02              	leaq	2(%rcx,%r13), %rbx
1000024b4: 45 31 e4                    	xorl	%r12d, %r12d
1000024b7: 66 0f 1f 84 00 00 00 00 00  	nopw	(%rax,%rax)
1000024c0: 0f be f8                    	movsbl	%al, %edi
1000024c3: e8 88 71 00 00              	callq	29064 <_ft_isdigit>
1000024c8: 49 83 fc 04                 	cmpq	$4, %r12
1000024cc: 77 10                       	ja	16 <_color_parcer+0x11e>
1000024ce: 85 c0                       	testl	%eax, %eax
1000024d0: 74 0c                       	je	12 <_color_parcer+0x11e>
1000024d2: 42 0f b6 04 23              	movzbl	(%rbx,%r12), %eax
1000024d7: 49 ff c4                    	incq	%r12
1000024da: 84 c0                       	testb	%al, %al
1000024dc: 75 e2                       	jne	-30 <_color_parcer+0x100>
1000024de: 41 83 fc ff                 	cmpl	$-1, %r12d
1000024e2: 0f 84 b1 00 00 00           	je	177 <_color_parcer+0x1d9>
1000024e8: 41 8d 44 24 ff              	leal	-1(%r12), %eax
1000024ed: 83 f8 02                    	cmpl	$2, %eax
1000024f0: 0f 87 a3 00 00 00           	ja	163 <_color_parcer+0x1d9>
1000024f6: 4c 89 ef                    	movq	%r13, %rdi
1000024f9: be 2c 00 00 00              	movl	$44, %esi
1000024fe: e8 ed 72 00 00              	callq	29421 <_ft_split>
100002503: 48 85 c0                    	testq	%rax, %rax
100002506: 0f 84 85 00 00 00           	je	133 <_color_parcer+0x1d1>
10000250c: 48 89 c3                    	movq	%rax, %rbx
10000250f: 48 8b 45 d0                 	movq	-48(%rbp), %rax
100002513: 46 8d 7c 20 01              	leal	1(%rax,%r12), %r15d
100002518: 48 8b 3b                    	movq	(%rbx), %rdi
10000251b: 48 85 ff                    	testq	%rdi, %rdi
10000251e: 74 6c                       	je	108 <_color_parcer+0x1cc>
100002520: e8 5b 6f 00 00              	callq	28507 <_ft_atoi>
100002525: 3d ff 00 00 00              	cmpl	$255, %eax
10000252a: 41 bc ff ff ff ff           	movl	$4294967295, %r12d
100002530: 45 0f 47 fc                 	cmoval	%r12d, %r15d
100002534: 41 88 06                    	movb	%al, (%r14)
100002537: 48 8b 3b                    	movq	(%rbx), %rdi
10000253a: e8 f3 bc 00 00              	callq	48371 <dyld_stub_binder+0x10000e232>
10000253f: 48 8b 7b 08                 	movq	8(%rbx), %rdi
100002543: 48 85 ff                    	testq	%rdi, %rdi
100002546: 74 44                       	je	68 <_color_parcer+0x1cc>
100002548: e8 33 6f 00 00              	callq	28467 <_ft_atoi>
10000254d: 3d ff 00 00 00              	cmpl	$255, %eax
100002552: 45 0f 47 fc                 	cmoval	%r12d, %r15d
100002556: 41 88 46 01                 	movb	%al, 1(%r14)
10000255a: 48 8b 7b 08                 	movq	8(%rbx), %rdi
10000255e: e8 cf bc 00 00              	callq	48335 <dyld_stub_binder+0x10000e232>
100002563: 48 8b 7b 10                 	movq	16(%rbx), %rdi
100002567: 48 85 ff                    	testq	%rdi, %rdi
10000256a: 74 20                       	je	32 <_color_parcer+0x1cc>
10000256c: e8 0f 6f 00 00              	callq	28431 <_ft_atoi>
100002571: 3d ff 00 00 00              	cmpl	$255, %eax
100002576: b9 ff ff ff ff              	movl	$4294967295, %ecx
10000257b: 44 0f 47 f9                 	cmoval	%ecx, %r15d
10000257f: 41 88 46 02                 	movb	%al, 2(%r14)
100002583: 48 8b 7b 10                 	movq	16(%rbx), %rdi
100002587: e8 a6 bc 00 00              	callq	48294 <dyld_stub_binder+0x10000e232>
10000258c: 48 89 df                    	movq	%rbx, %rdi
10000258f: eb 03                       	jmp	3 <_color_parcer+0x1d4>
100002591: 4c 89 ef                    	movq	%r13, %rdi
100002594: e8 99 bc 00 00              	callq	48281 <dyld_stub_binder+0x10000e232>
100002599: 44 89 f8                    	movl	%r15d, %eax
10000259c: 48 83 c4 08                 	addq	$8, %rsp
1000025a0: 5b                          	popq	%rbx
1000025a1: 41 5c                       	popq	%r12
1000025a3: 41 5d                       	popq	%r13
1000025a5: 41 5e                       	popq	%r14
1000025a7: 41 5f                       	popq	%r15
1000025a9: 5d                          	popq	%rbp
1000025aa: c3                          	retq
1000025ab: 90                          	nop
1000025ac: 90                          	nop
1000025ad: 90                          	nop
1000025ae: 90                          	nop
1000025af: 90                          	nop

00000001000025b0 _cordinate_parcer:
1000025b0: 55                          	pushq	%rbp
1000025b1: 48 89 e5                    	movq	%rsp, %rbp
1000025b4: 41 57                       	pushq	%r15
1000025b6: 41 56                       	pushq	%r14
1000025b8: 41 54                       	pushq	%r12
1000025ba: 53                          	pushq	%rbx
1000025bb: 41 89 ce                    	movl	%ecx, %r14d
1000025be: 41 89 d7                    	movl	%edx, %r15d
1000025c1: 49 89 f4                    	movq	%rsi, %r12
1000025c4: 48 89 fb                    	movq	%rdi, %rbx
1000025c7: e8 44 0f 00 00              	callq	3908 <_ft_atod>
1000025cc: 84 c0                       	testb	%al, %al
1000025ce: 74 3a                       	je	58 <_cordinate_parcer+0x5a>
1000025d0: 48 ff 03                    	incq	(%rbx)
1000025d3: 49 8d 74 24 08              	leaq	8(%r12), %rsi
1000025d8: 48 89 df                    	movq	%rbx, %rdi
1000025db: 44 89 fa                    	movl	%r15d, %edx
1000025de: 44 89 f1                    	movl	%r14d, %ecx
1000025e1: e8 2a 0f 00 00              	callq	3882 <_ft_atod>
1000025e6: 84 c0                       	testb	%al, %al
1000025e8: 74 20                       	je	32 <_cordinate_parcer+0x5a>
1000025ea: 48 ff 03                    	incq	(%rbx)
1000025ed: 49 83 c4 10                 	addq	$16, %r12
1000025f1: 48 89 df                    	movq	%rbx, %rdi
1000025f4: 4c 89 e6                    	movq	%r12, %rsi
1000025f7: 44 89 fa                    	movl	%r15d, %edx
1000025fa: 44 89 f1                    	movl	%r14d, %ecx
1000025fd: 5b                          	popq	%rbx
1000025fe: 41 5c                       	popq	%r12
100002600: 41 5e                       	popq	%r14
100002602: 41 5f                       	popq	%r15
100002604: 5d                          	popq	%rbp
100002605: e9 06 0f 00 00              	jmp	3846 <_ft_atod>
10000260a: 31 c0                       	xorl	%eax, %eax
10000260c: 5b                          	popq	%rbx
10000260d: 41 5c                       	popq	%r12
10000260f: 41 5e                       	popq	%r14
100002611: 41 5f                       	popq	%r15
100002613: 5d                          	popq	%rbp
100002614: c3                          	retq
100002615: 90                          	nop
100002616: 90                          	nop
100002617: 90                          	nop
100002618: 90                          	nop
100002619: 90                          	nop
10000261a: 90                          	nop
10000261b: 90                          	nop
10000261c: 90                          	nop
10000261d: 90                          	nop
10000261e: 90                          	nop
10000261f: 90                          	nop

0000000100002620 _find_type:
100002620: 55                          	pushq	%rbp
100002621: 48 89 e5                    	movq	%rsp, %rbp
100002624: 53                          	pushq	%rbx
100002625: 50                          	pushq	%rax
100002626: 48 89 fb                    	movq	%rdi, %rbx
100002629: 48 8d 35 37 c2 00 00        	leaq	49719(%rip), %rsi
100002630: ba 01 00 00 00              	movl	$1, %edx
100002635: e8 46 75 00 00              	callq	30022 <_ft_strncmp>
10000263a: 85 c0                       	testl	%eax, %eax
10000263c: 0f 84 e2 00 00 00           	je	226 <_find_type+0x104>
100002642: 48 8d 35 20 c2 00 00        	leaq	49696(%rip), %rsi
100002649: ba 01 00 00 00              	movl	$1, %edx
10000264e: 48 89 df                    	movq	%rbx, %rdi
100002651: e8 2a 75 00 00              	callq	29994 <_ft_strncmp>
100002656: 85 c0                       	testl	%eax, %eax
100002658: 0f 84 e3 00 00 00           	je	227 <_find_type+0x121>
10000265e: 48 8d 35 06 c2 00 00        	leaq	49670(%rip), %rsi
100002665: ba 01 00 00 00              	movl	$1, %edx
10000266a: 48 89 df                    	movq	%rbx, %rdi
10000266d: e8 0e 75 00 00              	callq	29966 <_ft_strncmp>
100002672: 85 c0                       	testl	%eax, %eax
100002674: 0f 84 e0 00 00 00           	je	224 <_find_type+0x13a>
10000267a: 48 8d 35 ec c1 00 00        	leaq	49644(%rip), %rsi
100002681: ba 02 00 00 00              	movl	$2, %edx
100002686: 48 89 df                    	movq	%rbx, %rdi
100002689: e8 f2 74 00 00              	callq	29938 <_ft_strncmp>
10000268e: 85 c0                       	testl	%eax, %eax
100002690: 0f 84 dd 00 00 00           	je	221 <_find_type+0x153>
100002696: 48 8d 35 d3 c1 00 00        	leaq	49619(%rip), %rsi
10000269d: ba 02 00 00 00              	movl	$2, %edx
1000026a2: 48 89 df                    	movq	%rbx, %rdi
1000026a5: e8 d6 74 00 00              	callq	29910 <_ft_strncmp>
1000026aa: 85 c0                       	testl	%eax, %eax
1000026ac: 0f 84 d7 00 00 00           	je	215 <_find_type+0x169>
1000026b2: 48 8d 35 ba c1 00 00        	leaq	49594(%rip), %rsi
1000026b9: ba 02 00 00 00              	movl	$2, %edx
1000026be: 48 89 df                    	movq	%rbx, %rdi
1000026c1: e8 ba 74 00 00              	callq	29882 <_ft_strncmp>
1000026c6: 85 c0                       	testl	%eax, %eax
1000026c8: 0f 84 d4 00 00 00           	je	212 <_find_type+0x182>
1000026ce: 48 8d 35 a1 c1 00 00        	leaq	49569(%rip), %rsi
1000026d5: ba 02 00 00 00              	movl	$2, %edx
1000026da: 48 89 df                    	movq	%rbx, %rdi
1000026dd: e8 9e 74 00 00              	callq	29854 <_ft_strncmp>
1000026e2: 85 c0                       	testl	%eax, %eax
1000026e4: 0f 84 d1 00 00 00           	je	209 <_find_type+0x19b>
1000026ea: 48 8d 35 88 c1 00 00        	leaq	49544(%rip), %rsi
1000026f1: ba 02 00 00 00              	movl	$2, %edx
1000026f6: 48 89 df                    	movq	%rbx, %rdi
1000026f9: e8 82 74 00 00              	callq	29826 <_ft_strncmp>
1000026fe: 85 c0                       	testl	%eax, %eax
100002700: 75 18                       	jne	24 <_find_type+0xfa>
100002702: 0f be 7b 02                 	movsbl	2(%rbx), %edi
100002706: e8 75 6f 00 00              	callq	28533 <_ft_isspace>
10000270b: 89 c1                       	movl	%eax, %ecx
10000270d: b8 04 00 00 00              	movl	$4, %eax
100002712: 85 c9                       	testl	%ecx, %ecx
100002714: 0f 85 b9 00 00 00           	jne	185 <_find_type+0x1b3>
10000271a: b8 20 00 00 00              	movl	$32, %eax
10000271f: e9 af 00 00 00              	jmp	175 <_find_type+0x1b3>
100002724: 0f be 7b 01                 	movsbl	1(%rbx), %edi
100002728: e8 53 6f 00 00              	callq	28499 <_ft_isspace>
10000272d: 89 c1                       	movl	%eax, %ecx
10000272f: b8 05 00 00 00              	movl	$5, %eax
100002734: 85 c9                       	testl	%ecx, %ecx
100002736: 0f 85 97 00 00 00           	jne	151 <_find_type+0x1b3>
10000273c: e9 01 ff ff ff              	jmp	-255 <_find_type+0x22>
100002741: 0f be 7b 01                 	movsbl	1(%rbx), %edi
100002745: e8 36 6f 00 00              	callq	28470 <_ft_isspace>
10000274a: 89 c1                       	movl	%eax, %ecx
10000274c: b8 07 00 00 00              	movl	$7, %eax
100002751: 85 c9                       	testl	%ecx, %ecx
100002753: 75 7e                       	jne	126 <_find_type+0x1b3>
100002755: e9 04 ff ff ff              	jmp	-252 <_find_type+0x3e>
10000275a: 0f be 7b 01                 	movsbl	1(%rbx), %edi
10000275e: e8 1d 6f 00 00              	callq	28445 <_ft_isspace>
100002763: 89 c1                       	movl	%eax, %ecx
100002765: b8 06 00 00 00              	movl	$6, %eax
10000276a: 85 c9                       	testl	%ecx, %ecx
10000276c: 75 65                       	jne	101 <_find_type+0x1b3>
10000276e: e9 07 ff ff ff              	jmp	-249 <_find_type+0x5a>
100002773: 0f be 7b 02                 	movsbl	2(%rbx), %edi
100002777: e8 04 6f 00 00              	callq	28420 <_ft_isspace>
10000277c: 89 c1                       	movl	%eax, %ecx
10000277e: 31 c0                       	xorl	%eax, %eax
100002780: 85 c9                       	testl	%ecx, %ecx
100002782: 75 4f                       	jne	79 <_find_type+0x1b3>
100002784: e9 0d ff ff ff              	jmp	-243 <_find_type+0x76>
100002789: 0f be 7b 02                 	movsbl	2(%rbx), %edi
10000278d: e8 ee 6e 00 00              	callq	28398 <_ft_isspace>
100002792: 89 c1                       	movl	%eax, %ecx
100002794: b8 01 00 00 00              	movl	$1, %eax
100002799: 85 c9                       	testl	%ecx, %ecx
10000279b: 75 36                       	jne	54 <_find_type+0x1b3>
10000279d: e9 10 ff ff ff              	jmp	-240 <_find_type+0x92>
1000027a2: 0f be 7b 02                 	movsbl	2(%rbx), %edi
1000027a6: e8 d5 6e 00 00              	callq	28373 <_ft_isspace>
1000027ab: 89 c1                       	movl	%eax, %ecx
1000027ad: b8 02 00 00 00              	movl	$2, %eax
1000027b2: 85 c9                       	testl	%ecx, %ecx
1000027b4: 75 1d                       	jne	29 <_find_type+0x1b3>
1000027b6: e9 13 ff ff ff              	jmp	-237 <_find_type+0xae>
1000027bb: 0f be 7b 02                 	movsbl	2(%rbx), %edi
1000027bf: e8 bc 6e 00 00              	callq	28348 <_ft_isspace>
1000027c4: 89 c1                       	movl	%eax, %ecx
1000027c6: b8 03 00 00 00              	movl	$3, %eax
1000027cb: 85 c9                       	testl	%ecx, %ecx
1000027cd: 0f 84 17 ff ff ff           	je	-233 <_find_type+0xca>
1000027d3: 48 83 c4 08                 	addq	$8, %rsp
1000027d7: 5b                          	popq	%rbx
1000027d8: 5d                          	popq	%rbp
1000027d9: c3                          	retq
1000027da: 66 0f 1f 44 00 00           	nopw	(%rax,%rax)

00000001000027e0 _objcets_parcers:
1000027e0: 55                          	pushq	%rbp
1000027e1: 48 89 e5                    	movq	%rsp, %rbp
1000027e4: 80 3d 55 d4 02 00 00        	cmpb	$0, 185429(%rip)
1000027eb: 75 77                       	jne	119 <_objcets_parcers+0x84>
1000027ed: c6 05 4c d4 02 00 01        	movb	$1, 185420(%rip)
1000027f4: 48 8d 05 e5 f4 ff ff        	leaq	-2843(%rip), %rax
1000027fb: 48 89 05 fe d3 02 00        	movq	%rax, 185342(%rip)
100002802: 48 8d 05 27 f1 ff ff        	leaq	-3801(%rip), %rax
100002809: 48 89 05 f8 d3 02 00        	movq	%rax, 185336(%rip)
100002810: 48 8d 05 49 f3 ff ff        	leaq	-3255(%rip), %rax
100002817: 48 89 05 f2 d3 02 00        	movq	%rax, 185330(%rip)
10000281e: 48 8d 05 8b fa ff ff        	leaq	-1397(%rip), %rax
100002825: 48 89 05 fc d3 02 00        	movq	%rax, 185340(%rip)
10000282c: 48 8d 05 9d f7 ff ff        	leaq	-2147(%rip), %rax
100002833: 48 89 05 f6 d3 02 00        	movq	%rax, 185334(%rip)
10000283a: 48 8d 05 1f f9 ff ff        	leaq	-1761(%rip), %rax
100002841: 48 89 05 f0 d3 02 00        	movq	%rax, 185328(%rip)
100002848: 48 8d 05 11 f6 ff ff        	leaq	-2543(%rip), %rax
10000284f: 48 89 05 c2 d3 02 00        	movq	%rax, 185282(%rip)
100002856: 48 8d 05 c3 eb ff ff        	leaq	-5181(%rip), %rax
10000285d: 48 89 05 bc d3 02 00        	movq	%rax, 185276(%rip)
100002864: 89 f8                       	movl	%edi, %eax
100002866: 48 8d 0d 93 d3 02 00        	leaq	185235(%rip), %rcx
10000286d: 48 8b 04 c1                 	movq	(%rcx,%rax,8), %rax
100002871: 5d                          	popq	%rbp
100002872: c3                          	retq
100002873: 66 2e 0f 1f 84 00 00 00 00 00       	nopw	%cs:(%rax,%rax)
10000287d: 0f 1f 00                    	nopl	(%rax)

0000000100002880 _transform_line:
100002880: 55                          	pushq	%rbp
100002881: 48 89 e5                    	movq	%rsp, %rbp
100002884: 41 57                       	pushq	%r15
100002886: 41 56                       	pushq	%r14
100002888: 53                          	pushq	%rbx
100002889: 50                          	pushq	%rax
10000288a: 49 89 f6                    	movq	%rsi, %r14
10000288d: 48 89 fb                    	movq	%rdi, %rbx
100002890: e8 bb 10 00 00              	callq	4283 <_skip_spaces>
100002895: 48 98                       	cltq
100002897: 41 b7 01                    	movb	$1, %r15b
10000289a: 80 3c 03 00                 	cmpb	$0, (%rbx,%rax)
10000289e: 74 48                       	je	72 <_transform_line+0x68>
1000028a0: 48 89 df                    	movq	%rbx, %rdi
1000028a3: e8 a8 10 00 00              	callq	4264 <_skip_spaces>
1000028a8: 48 98                       	cltq
1000028aa: 80 3c 03 23                 	cmpb	$35, (%rbx,%rax)
1000028ae: 74 38                       	je	56 <_transform_line+0x68>
1000028b0: 48 89 df                    	movq	%rbx, %rdi
1000028b3: e8 68 fd ff ff              	callq	-664 <_find_type>
1000028b8: 83 f8 20                    	cmpl	$32, %eax
1000028bb: 75 39                       	jne	57 <_transform_line+0x76>
1000028bd: 48 8d 35 9c be 00 00        	leaq	48796(%rip), %rsi
1000028c4: 48 8d 15 9c be 00 00        	leaq	48796(%rip), %rdx
1000028cb: 48 8d 0d aa bf 00 00        	leaq	49066(%rip), %rcx
1000028d2: 4c 8d 05 b3 bf 00 00        	leaq	49075(%rip), %r8
1000028d9: 45 31 ff                    	xorl	%r15d, %r15d
1000028dc: bf 04 00 00 00              	movl	$4, %edi
1000028e1: 31 c0                       	xorl	%eax, %eax
1000028e3: e8 38 11 00 00              	callq	4408 <_print_err>
1000028e8: 44 89 f8                    	movl	%r15d, %eax
1000028eb: 48 83 c4 08                 	addq	$8, %rsp
1000028ef: 5b                          	popq	%rbx
1000028f0: 41 5e                       	popq	%r14
1000028f2: 41 5f                       	popq	%r15
1000028f4: 5d                          	popq	%rbp
1000028f5: c3                          	retq
1000028f6: 80 3d 43 d3 02 00 00        	cmpb	$0, 185155(%rip)
1000028fd: 75 77                       	jne	119 <_transform_line+0xf6>
1000028ff: c6 05 3a d3 02 00 01        	movb	$1, 185146(%rip)
100002906: 48 8d 0d d3 f3 ff ff        	leaq	-3117(%rip), %rcx
10000290d: 48 89 0d ec d2 02 00        	movq	%rcx, 185068(%rip)
100002914: 48 8d 0d 15 f0 ff ff        	leaq	-4075(%rip), %rcx
10000291b: 48 89 0d e6 d2 02 00        	movq	%rcx, 185062(%rip)
100002922: 48 8d 0d 37 f2 ff ff        	leaq	-3529(%rip), %rcx
100002929: 48 89 0d e0 d2 02 00        	movq	%rcx, 185056(%rip)
100002930: 48 8d 0d 79 f9 ff ff        	leaq	-1671(%rip), %rcx
100002937: 48 89 0d ea d2 02 00        	movq	%rcx, 185066(%rip)
10000293e: 48 8d 0d 8b f6 ff ff        	leaq	-2421(%rip), %rcx
100002945: 48 89 0d e4 d2 02 00        	movq	%rcx, 185060(%rip)
10000294c: 48 8d 0d 0d f8 ff ff        	leaq	-2035(%rip), %rcx
100002953: 48 89 0d de d2 02 00        	movq	%rcx, 185054(%rip)
10000295a: 48 8d 0d ff f4 ff ff        	leaq	-2817(%rip), %rcx
100002961: 48 89 0d b0 d2 02 00        	movq	%rcx, 185008(%rip)
100002968: 48 8d 0d b1 ea ff ff        	leaq	-5455(%rip), %rcx
10000296f: 48 89 0d aa d2 02 00        	movq	%rcx, 185002(%rip)
100002976: 89 c0                       	movl	%eax, %eax
100002978: 48 8d 0d 81 d2 02 00        	leaq	184961(%rip), %rcx
10000297f: 48 8b 04 c1                 	movq	(%rcx,%rax,8), %rax
100002983: 48 89 df                    	movq	%rbx, %rdi
100002986: 4c 89 f6                    	movq	%r14, %rsi
100002989: 48 83 c4 08                 	addq	$8, %rsp
10000298d: 5b                          	popq	%rbx
10000298e: 41 5e                       	popq	%r14
100002990: 41 5f                       	popq	%r15
100002992: 5d                          	popq	%rbp
100002993: ff e0                       	jmpq	*%rax
100002995: 66 2e 0f 1f 84 00 00 00 00 00       	nopw	%cs:(%rax,%rax)
10000299f: 90                          	nop

00000001000029a0 _read_true:
1000029a0: 55                          	pushq	%rbp
1000029a1: 48 89 e5                    	movq	%rsp, %rbp
1000029a4: 41 57                       	pushq	%r15
1000029a6: 41 56                       	pushq	%r14
1000029a8: 41 55                       	pushq	%r13
1000029aa: 41 54                       	pushq	%r12
1000029ac: 53                          	pushq	%rbx
1000029ad: 50                          	pushq	%rax
1000029ae: 48 8b 07                    	movq	(%rdi), %rax
1000029b1: 41 b6 01                    	movb	$1, %r14b
1000029b4: 48 85 c0                    	testq	%rax, %rax
1000029b7: 74 47                       	je	71 <_read_true+0x60>
1000029b9: 41 89 d7                    	movl	%edx, %r15d
1000029bc: 49 89 f4                    	movq	%rsi, %r12
1000029bf: 49 89 fd                    	movq	%rdi, %r13
1000029c2: 66 2e 0f 1f 84 00 00 00 00 00       	nopw	%cs:(%rax,%rax)
1000029cc: 0f 1f 40 00                 	nopl	(%rax)
1000029d0: 48 89 c7                    	movq	%rax, %rdi
1000029d3: 4c 89 e6                    	movq	%r12, %rsi
1000029d6: e8 a5 fe ff ff              	callq	-347 <_transform_line>
1000029db: 89 c3                       	movl	%eax, %ebx
1000029dd: 49 8b 7d 00                 	movq	(%r13), %rdi
1000029e1: e8 4c b8 00 00              	callq	47180 <dyld_stub_binder+0x10000e232>
1000029e6: 84 db                       	testb	%bl, %bl
1000029e8: 74 13                       	je	19 <_read_true+0x5d>
1000029ea: 44 89 ff                    	movl	%r15d, %edi
1000029ed: e8 6e 75 00 00              	callq	30062 <_get_next_line>
1000029f2: 49 89 45 00                 	movq	%rax, (%r13)
1000029f6: 48 85 c0                    	testq	%rax, %rax
1000029f9: 75 d5                       	jne	-43 <_read_true+0x30>
1000029fb: eb 03                       	jmp	3 <_read_true+0x60>
1000029fd: 45 31 f6                    	xorl	%r14d, %r14d
100002a00: 44 89 f0                    	movl	%r14d, %eax
100002a03: 48 83 c4 08                 	addq	$8, %rsp
100002a07: 5b                          	popq	%rbx
100002a08: 41 5c                       	popq	%r12
100002a0a: 41 5d                       	popq	%r13
100002a0c: 41 5e                       	popq	%r14
100002a0e: 41 5f                       	popq	%r15
100002a10: 5d                          	popq	%rbp
100002a11: c3                          	retq
100002a12: 66 2e 0f 1f 84 00 00 00 00 00       	nopw	%cs:(%rax,%rax)
100002a1c: 0f 1f 40 00                 	nopl	(%rax)

0000000100002a20 _parcer:
100002a20: 55                          	pushq	%rbp
100002a21: 48 89 e5                    	movq	%rsp, %rbp
100002a24: 41 57                       	pushq	%r15
100002a26: 41 56                       	pushq	%r14
100002a28: 41 54                       	pushq	%r12
100002a2a: 53                          	pushq	%rbx
100002a2b: 49 89 f7                    	movq	%rsi, %r15
100002a2e: 48 89 fb                    	movq	%rdi, %rbx
100002a31: e8 ea 70 00 00              	callq	28906 <_ft_strlen>
100002a36: 48 8d 7c 03 fd              	leaq	-3(%rbx,%rax), %rdi
100002a3b: 48 8d 35 5e be 00 00        	leaq	48734(%rip), %rsi
100002a42: ba 03 00 00 00              	movl	$3, %edx
100002a47: e8 34 71 00 00              	callq	28980 <_ft_strncmp>
100002a4c: 85 c0                       	testl	%eax, %eax
100002a4e: 74 2e                       	je	46 <_parcer+0x5e>
100002a50: 48 8d 35 09 bd 00 00        	leaq	48393(%rip), %rsi
100002a57: 48 8d 15 09 bd 00 00        	leaq	48393(%rip), %rdx
100002a5e: 48 8d 0d 3f be 00 00        	leaq	48703(%rip), %rcx
100002a65: 31 db                       	xorl	%ebx, %ebx
100002a67: bf 03 00 00 00              	movl	$3, %edi
100002a6c: 31 c0                       	xorl	%eax, %eax
100002a6e: e8 ad 0f 00 00              	callq	4013 <_print_err>
100002a73: 89 d8                       	movl	%ebx, %eax
100002a75: 5b                          	popq	%rbx
100002a76: 41 5c                       	popq	%r12
100002a78: 41 5e                       	popq	%r14
100002a7a: 41 5f                       	popq	%r15
100002a7c: 5d                          	popq	%rbp
100002a7d: c3                          	retq
100002a7e: 48 89 df                    	movq	%rbx, %rdi
100002a81: 31 f6                       	xorl	%esi, %esi
100002a83: ba 24 01 00 00              	movl	$292, %edx
100002a88: 31 c0                       	xorl	%eax, %eax
100002a8a: e8 c9 b8 00 00              	callq	47305 <dyld_stub_binder+0x10000e358>
100002a8f: 85 c0                       	testl	%eax, %eax
100002a91: 78 bd                       	js	-67 <_parcer+0x30>
100002a93: 41 89 c6                    	movl	%eax, %r14d
100002a96: 89 c7                       	movl	%eax, %edi
100002a98: e8 c3 74 00 00              	callq	29891 <_get_next_line>
100002a9d: 48 85 c0                    	testq	%rax, %rax
100002aa0: 0f 84 91 00 00 00           	je	145 <_parcer+0x117>
100002aa6: 48 89 c3                    	movq	%rax, %rbx
100002aa9: 0f 1f 80 00 00 00 00        	nopl	(%rax)
100002ab0: 48 89 df                    	movq	%rbx, %rdi
100002ab3: 4c 89 fe                    	movq	%r15, %rsi
100002ab6: e8 c5 fd ff ff              	callq	-571 <_transform_line>
100002abb: 41 89 c4                    	movl	%eax, %r12d
100002abe: 48 89 df                    	movq	%rbx, %rdi
100002ac1: e8 6c b7 00 00              	callq	46956 <dyld_stub_binder+0x10000e232>
100002ac6: 45 84 e4                    	testb	%r12b, %r12b
100002ac9: 0f 84 8a 00 00 00           	je	138 <_parcer+0x139>
100002acf: 44 89 f7                    	movl	%r14d, %edi
100002ad2: e8 89 74 00 00              	callq	29833 <_get_next_line>
100002ad7: 48 89 c3                    	movq	%rax, %rbx
100002ada: 48 85 c0                    	testq	%rax, %rax
100002add: 75 d1                       	jne	-47 <_parcer+0x90>
100002adf: 49 83 bf 28 01 00 00 00     	cmpq	$0, 296(%r15)
100002ae7: 74 7f                       	je	127 <_parcer+0x148>
100002ae9: 31 ff                       	xorl	%edi, %edi
100002aeb: 31 f6                       	xorl	%esi, %esi
100002aed: e8 de f4 ff ff              	callq	-2850 <_camera_parcer>
100002af2: 84 c0                       	testb	%al, %al
100002af4: 0f 84 94 00 00 00           	je	148 <_parcer+0x16e>
100002afa: 31 ff                       	xorl	%edi, %edi
100002afc: 31 f6                       	xorl	%esi, %esi
100002afe: e8 ad f7 ff ff              	callq	-2131 <_lighting_parcer>
100002b03: 41 89 c7                    	movl	%eax, %r15d
100002b06: 44 89 f7                    	movl	%r14d, %edi
100002b09: e8 06 b7 00 00              	callq	46854 <dyld_stub_binder+0x10000e214>
100002b0e: b3 01                       	movb	$1, %bl
100002b10: 45 84 ff                    	testb	%r15b, %r15b
100002b13: 0f 85 5a ff ff ff           	jne	-166 <_parcer+0x53>
100002b19: 48 8d 35 40 bc 00 00        	leaq	48192(%rip), %rsi
100002b20: 48 8d 15 40 bc 00 00        	leaq	48192(%rip), %rdx
100002b27: 48 8d 0d 9c bd 00 00        	leaq	48540(%rip), %rcx
100002b2e: 4c 8d 05 1e bd 00 00        	leaq	48414(%rip), %r8
100002b35: eb 7b                       	jmp	123 <_parcer+0x192>
100002b37: 44 89 f7                    	movl	%r14d, %edi
100002b3a: e8 d5 b6 00 00              	callq	46805 <dyld_stub_binder+0x10000e214>
100002b3f: 48 8d 35 1a bc 00 00        	leaq	48154(%rip), %rsi
100002b46: 48 8d 15 1a bc 00 00        	leaq	48154(%rip), %rdx
100002b4d: 48 8d 0d 64 bd 00 00        	leaq	48484(%rip), %rcx
100002b54: e9 0c ff ff ff              	jmp	-244 <_parcer+0x45>
100002b59: 44 89 f7                    	movl	%r14d, %edi
100002b5c: e8 b3 b6 00 00              	callq	46771 <dyld_stub_binder+0x10000e214>
100002b61: 31 db                       	xorl	%ebx, %ebx
100002b63: e9 0b ff ff ff              	jmp	-245 <_parcer+0x53>
100002b68: 44 89 f7                    	movl	%r14d, %edi
100002b6b: e8 a4 b6 00 00              	callq	46756 <dyld_stub_binder+0x10000e214>
100002b70: 48 8d 35 e9 bb 00 00        	leaq	48105(%rip), %rsi
100002b77: 48 8d 15 e9 bb 00 00        	leaq	48105(%rip), %rdx
100002b7e: 48 8d 0d 45 bd 00 00        	leaq	48453(%rip), %rcx
100002b85: 4c 8d 05 b4 bc 00 00        	leaq	48308(%rip), %r8
100002b8c: eb 24                       	jmp	36 <_parcer+0x192>
100002b8e: 44 89 f7                    	movl	%r14d, %edi
100002b91: e8 7e b6 00 00              	callq	46718 <dyld_stub_binder+0x10000e214>
100002b96: 48 8d 35 c3 bb 00 00        	leaq	48067(%rip), %rsi
100002b9d: 48 8d 15 c3 bb 00 00        	leaq	48067(%rip), %rdx
100002ba4: 48 8d 0d 1f bd 00 00        	leaq	48415(%rip), %rcx
100002bab: 4c 8d 05 70 bc 00 00        	leaq	48240(%rip), %r8
100002bb2: 4c 8d 0d ac bc 00 00        	leaq	48300(%rip), %r9
100002bb9: 31 db                       	xorl	%ebx, %ebx
100002bbb: bf 05 00 00 00              	movl	$5, %edi
100002bc0: 31 c0                       	xorl	%eax, %eax
100002bc2: e8 59 0e 00 00              	callq	3673 <_print_err>
100002bc7: e9 a7 fe ff ff              	jmp	-345 <_parcer+0x53>
100002bcc: 90                          	nop
100002bcd: 90                          	nop
100002bce: 90                          	nop
100002bcf: 90                          	nop

0000000100002bd0 _check_reflection:
100002bd0: 55                          	pushq	%rbp
100002bd1: 48 89 e5                    	movq	%rsp, %rbp
100002bd4: 41 57                       	pushq	%r15
100002bd6: 41 56                       	pushq	%r14
100002bd8: 53                          	pushq	%rbx
100002bd9: 50                          	pushq	%rax
100002bda: 49 89 d6                    	movq	%rdx, %r14
100002bdd: 49 89 f7                    	movq	%rsi, %r15
100002be0: 48 89 fb                    	movq	%rdi, %rbx
100002be3: 48 8b 3f                    	movq	(%rdi), %rdi
100002be6: e8 65 0d 00 00              	callq	3429 <_skip_spaces>
100002beb: 48 63 f8                    	movslq	%eax, %rdi
100002bee: 48 03 3b                    	addq	(%rbx), %rdi
100002bf1: 48 89 3b                    	movq	%rdi, (%rbx)
100002bf4: e8 27 6f 00 00              	callq	28455 <_ft_strlen>
100002bf9: 48 83 f8 02                 	cmpq	$2, %rax
100002bfd: 72 36                       	jb	54 <_check_reflection+0x65>
100002bff: 48 8b 3b                    	movq	(%rbx), %rdi
100002c02: 48 8d 35 ca bc 00 00        	leaq	48330(%rip), %rsi
100002c09: ba 02 00 00 00              	movl	$2, %edx
100002c0e: e8 6d 6f 00 00              	callq	28525 <_ft_strncmp>
100002c13: 85 c0                       	testl	%eax, %eax
100002c15: 75 1e                       	jne	30 <_check_reflection+0x65>
100002c17: 48 83 03 02                 	addq	$2, (%rbx)
100002c1b: 48 89 df                    	movq	%rbx, %rdi
100002c1e: 4c 89 fe                    	movq	%r15, %rsi
100002c21: ba 01 00 00 00              	movl	$1, %edx
100002c26: 31 c9                       	xorl	%ecx, %ecx
100002c28: e8 e3 08 00 00              	callq	2275 <_ft_atod>
100002c2d: 84 c0                       	testb	%al, %al
100002c2f: 74 20                       	je	32 <_check_reflection+0x81>
100002c31: 41 c6 06 01                 	movb	$1, (%r14)
100002c35: 48 8b 3b                    	movq	(%rbx), %rdi
100002c38: e8 13 0d 00 00              	callq	3347 <_skip_spaces>
100002c3d: 48 98                       	cltq
100002c3f: 48 01 03                    	addq	%rax, (%rbx)
100002c42: b3 01                       	movb	$1, %bl
100002c44: 89 d8                       	movl	%ebx, %eax
100002c46: 48 83 c4 08                 	addq	$8, %rsp
100002c4a: 5b                          	popq	%rbx
100002c4b: 41 5e                       	popq	%r14
100002c4d: 41 5f                       	popq	%r15
100002c4f: 5d                          	popq	%rbp
100002c50: c3                          	retq
100002c51: 48 8d 35 08 bb 00 00        	leaq	47880(%rip), %rsi
100002c58: 48 8d 15 08 bb 00 00        	leaq	47880(%rip), %rdx
100002c5f: 48 8d 0d 4e bb 00 00        	leaq	47950(%rip), %rcx
100002c66: 4c 8d 05 69 bc 00 00        	leaq	48233(%rip), %r8
100002c6d: 31 db                       	xorl	%ebx, %ebx
100002c6f: bf 04 00 00 00              	movl	$4, %edi
100002c74: 31 c0                       	xorl	%eax, %eax
100002c76: e8 a5 0d 00 00              	callq	3493 <_print_err>
100002c7b: eb c7                       	jmp	-57 <_check_reflection+0x74>
100002c7d: 0f 1f 00                    	nopl	(%rax)

0000000100002c80 _check_specular:
100002c80: 55                          	pushq	%rbp
100002c81: 48 89 e5                    	movq	%rsp, %rbp
100002c84: 41 57                       	pushq	%r15
100002c86: 41 56                       	pushq	%r14
100002c88: 53                          	pushq	%rbx
100002c89: 50                          	pushq	%rax
100002c8a: 49 89 d6                    	movq	%rdx, %r14
100002c8d: 49 89 f7                    	movq	%rsi, %r15
100002c90: 48 89 fb                    	movq	%rdi, %rbx
100002c93: 48 8b 3f                    	movq	(%rdi), %rdi
100002c96: e8 b5 0c 00 00              	callq	3253 <_skip_spaces>
100002c9b: 48 63 f8                    	movslq	%eax, %rdi
100002c9e: 48 03 3b                    	addq	(%rbx), %rdi
100002ca1: 48 89 3b                    	movq	%rdi, (%rbx)
100002ca4: e8 77 6e 00 00              	callq	28279 <_ft_strlen>
100002ca9: 48 83 f8 02                 	cmpq	$2, %rax
100002cad: 72 18                       	jb	24 <_check_specular+0x47>
100002caf: 48 8b 3b                    	movq	(%rbx), %rdi
100002cb2: 48 8d 35 29 bc 00 00        	leaq	48169(%rip), %rsi
100002cb9: ba 02 00 00 00              	movl	$2, %edx
100002cbe: e8 bd 6e 00 00              	callq	28349 <_ft_strncmp>
100002cc3: 85 c0                       	testl	%eax, %eax
100002cc5: 74 1c                       	je	28 <_check_specular+0x63>
100002cc7: 48 8b 3b                    	movq	(%rbx), %rdi
100002cca: e8 81 0c 00 00              	callq	3201 <_skip_spaces>
100002ccf: 48 98                       	cltq
100002cd1: 48 01 03                    	addq	%rax, (%rbx)
100002cd4: b3 01                       	movb	$1, %bl
100002cd6: 89 d8                       	movl	%ebx, %eax
100002cd8: 48 83 c4 08                 	addq	$8, %rsp
100002cdc: 5b                          	popq	%rbx
100002cdd: 41 5e                       	popq	%r14
100002cdf: 41 5f                       	popq	%r15
100002ce1: 5d                          	popq	%rbp
100002ce2: c3                          	retq
100002ce3: 48 83 03 02                 	addq	$2, (%rbx)
100002ce7: 48 89 df                    	movq	%rbx, %rdi
100002cea: 4c 89 fe                    	movq	%r15, %rsi
100002ced: ba 0a 00 00 00              	movl	$10, %edx
100002cf2: 31 c9                       	xorl	%ecx, %ecx
100002cf4: e8 17 08 00 00              	callq	2071 <_ft_atod>
100002cf9: 84 c0                       	testb	%al, %al
100002cfb: 74 2e                       	je	46 <_check_specular+0xab>
100002cfd: 48 8b 03                    	movq	(%rbx), %rax
100002d00: 80 38 3a                    	cmpb	$58, (%rax)
100002d03: 75 4b                       	jne	75 <_check_specular+0xd0>
100002d05: 48 ff c0                    	incq	%rax
100002d08: 48 89 03                    	movq	%rax, (%rbx)
100002d0b: 49 83 c7 28                 	addq	$40, %r15
100002d0f: 48 89 df                    	movq	%rbx, %rdi
100002d12: 4c 89 fe                    	movq	%r15, %rsi
100002d15: ba 01 00 00 00              	movl	$1, %edx
100002d1a: 31 c9                       	xorl	%ecx, %ecx
100002d1c: e8 ef 07 00 00              	callq	2031 <_ft_atod>
100002d21: 84 c0                       	testb	%al, %al
100002d23: 74 5a                       	je	90 <_check_specular+0xff>
100002d25: 41 c6 06 01                 	movb	$1, (%r14)
100002d29: eb 9c                       	jmp	-100 <_check_specular+0x47>
100002d2b: 48 8d 35 2e ba 00 00        	leaq	47662(%rip), %rsi
100002d32: 48 8d 15 2e ba 00 00        	leaq	47662(%rip), %rdx
100002d39: 48 8d 0d a5 bb 00 00        	leaq	48037(%rip), %rcx
100002d40: 4c 8d 05 6d ba 00 00        	leaq	47725(%rip), %r8
100002d47: 4c 8d 0d a1 bb 00 00        	leaq	48033(%rip), %r9
100002d4e: eb 52                       	jmp	82 <_check_specular+0x122>
100002d50: 48 8d 35 09 ba 00 00        	leaq	47625(%rip), %rsi
100002d57: 48 8d 15 09 ba 00 00        	leaq	47625(%rip), %rdx
100002d5e: 48 8d 0d 17 bb 00 00        	leaq	47895(%rip), %rcx
100002d65: 4c 8d 05 79 bb 00 00        	leaq	47993(%rip), %r8
100002d6c: 31 db                       	xorl	%ebx, %ebx
100002d6e: bf 04 00 00 00              	movl	$4, %edi
100002d73: 31 c0                       	xorl	%eax, %eax
100002d75: e8 a6 0c 00 00              	callq	3238 <_print_err>
100002d7a: e9 57 ff ff ff              	jmp	-169 <_check_specular+0x56>
100002d7f: 48 8d 35 da b9 00 00        	leaq	47578(%rip), %rsi
100002d86: 48 8d 15 da b9 00 00        	leaq	47578(%rip), %rdx
100002d8d: 48 8d 0d 51 bb 00 00        	leaq	47953(%rip), %rcx
100002d94: 4c 8d 05 19 ba 00 00        	leaq	47641(%rip), %r8
100002d9b: 4c 8d 0d 58 bb 00 00        	leaq	47960(%rip), %r9
100002da2: 31 db                       	xorl	%ebx, %ebx
100002da4: bf 05 00 00 00              	movl	$5, %edi
100002da9: 31 c0                       	xorl	%eax, %eax
100002dab: e8 70 0c 00 00              	callq	3184 <_print_err>
100002db0: e9 21 ff ff ff              	jmp	-223 <_check_specular+0x56>
100002db5: 66 2e 0f 1f 84 00 00 00 00 00       	nopw	%cs:(%rax,%rax)
100002dbf: 90                          	nop

0000000100002dc0 _check_checkerboard:
100002dc0: 55                          	pushq	%rbp
100002dc1: 48 89 e5                    	movq	%rsp, %rbp
100002dc4: 41 57                       	pushq	%r15
100002dc6: 41 56                       	pushq	%r14
100002dc8: 41 54                       	pushq	%r12
100002dca: 53                          	pushq	%rbx
100002dcb: 41 89 cc                    	movl	%ecx, %r12d
100002dce: 49 89 d6                    	movq	%rdx, %r14
100002dd1: 49 89 f7                    	movq	%rsi, %r15
100002dd4: 48 89 fb                    	movq	%rdi, %rbx
100002dd7: 48 8b 3f                    	movq	(%rdi), %rdi
100002dda: e8 71 0b 00 00              	callq	2929 <_skip_spaces>
100002ddf: 48 63 f8                    	movslq	%eax, %rdi
100002de2: 48 03 3b                    	addq	(%rbx), %rdi
100002de5: 48 89 3b                    	movq	%rdi, (%rbx)
100002de8: e8 33 6d 00 00              	callq	27955 <_ft_strlen>
100002ded: 48 83 f8 09                 	cmpq	$9, %rax
100002df1: 72 18                       	jb	24 <_check_checkerboard+0x4b>
100002df3: 48 8b 3b                    	movq	(%rbx), %rdi
100002df6: 48 8d 35 0f bb 00 00        	leaq	47887(%rip), %rsi
100002dfd: ba 09 00 00 00              	movl	$9, %edx
100002e02: e8 79 6d 00 00              	callq	28025 <_ft_strncmp>
100002e07: 85 c0                       	testl	%eax, %eax
100002e09: 74 1a                       	je	26 <_check_checkerboard+0x65>
100002e0b: 48 8b 3b                    	movq	(%rbx), %rdi
100002e0e: e8 3d 0b 00 00              	callq	2877 <_skip_spaces>
100002e13: 48 98                       	cltq
100002e15: 48 01 03                    	addq	%rax, (%rbx)
100002e18: b3 01                       	movb	$1, %bl
100002e1a: 89 d8                       	movl	%ebx, %eax
100002e1c: 5b                          	popq	%rbx
100002e1d: 41 5c                       	popq	%r12
100002e1f: 41 5e                       	popq	%r14
100002e21: 41 5f                       	popq	%r15
100002e23: 5d                          	popq	%rbp
100002e24: c3                          	retq
100002e25: 41 83 fc 03                 	cmpl	$3, %r12d
100002e29: 72 2c                       	jb	44 <_check_checkerboard+0x97>
100002e2b: 48 8d 35 2e b9 00 00        	leaq	47406(%rip), %rsi
100002e32: 48 8d 15 2e b9 00 00        	leaq	47406(%rip), %rdx
100002e39: 48 8d 0d 3c ba 00 00        	leaq	47676(%rip), %rcx
100002e40: 4c 8d 05 cf ba 00 00        	leaq	47823(%rip), %r8
100002e47: 31 db                       	xorl	%ebx, %ebx
100002e49: bf 04 00 00 00              	movl	$4, %edi
100002e4e: 31 c0                       	xorl	%eax, %eax
100002e50: e8 cb 0b 00 00              	callq	3019 <_print_err>
100002e55: eb c3                       	jmp	-61 <_check_checkerboard+0x5a>
100002e57: 48 83 03 09                 	addq	$9, (%rbx)
100002e5b: 49 8d 77 18                 	leaq	24(%r15), %rsi
100002e5f: 48 89 df                    	movq	%rbx, %rdi
100002e62: ba ff ff ff 7f              	movl	$2147483647, %edx
100002e67: b9 00 00 00 80              	movl	$2147483648, %ecx
100002e6c: e8 9f 06 00 00              	callq	1695 <_ft_atod>
100002e71: 84 c0                       	testb	%al, %al
100002e73: 74 36                       	je	54 <_check_checkerboard+0xeb>
100002e75: 48 8b 03                    	movq	(%rbx), %rax
100002e78: 80 38 3a                    	cmpb	$58, (%rax)
100002e7b: 75 53                       	jne	83 <_check_checkerboard+0x110>
100002e7d: 48 ff c0                    	incq	%rax
100002e80: 48 89 03                    	movq	%rax, (%rbx)
100002e83: 49 8d 77 20                 	leaq	32(%r15), %rsi
100002e87: 48 89 df                    	movq	%rbx, %rdi
100002e8a: ba ff ff ff 7f              	movl	$2147483647, %edx
100002e8f: b9 00 00 00 80              	movl	$2147483648, %ecx
100002e94: e8 77 06 00 00              	callq	1655 <_ft_atod>
100002e99: 84 c0                       	testb	%al, %al
100002e9b: 74 54                       	je	84 <_check_checkerboard+0x131>
100002e9d: 41 c6 47 10 01              	movb	$1, 16(%r15)
100002ea2: 41 c6 06 01                 	movb	$1, (%r14)
100002ea6: e9 60 ff ff ff              	jmp	-160 <_check_checkerboard+0x4b>
100002eab: 48 8d 35 ae b8 00 00        	leaq	47278(%rip), %rsi
100002eb2: 48 8d 15 ae b8 00 00        	leaq	47278(%rip), %rdx
100002eb9: 48 8d 0d 91 ba 00 00        	leaq	47761(%rip), %rcx
100002ec0: 4c 8d 05 ed b8 00 00        	leaq	47341(%rip), %r8
100002ec7: 4c 8d 0d 01 b9 00 00        	leaq	47361(%rip), %r9
100002ece: eb 44                       	jmp	68 <_check_checkerboard+0x154>
100002ed0: 48 8d 35 89 b8 00 00        	leaq	47241(%rip), %rsi
100002ed7: 48 8d 15 89 b8 00 00        	leaq	47241(%rip), %rdx
100002ede: 48 8d 0d 97 b9 00 00        	leaq	47511(%rip), %rcx
100002ee5: 4c 8d 05 65 ba 00 00        	leaq	47717(%rip), %r8
100002eec: e9 56 ff ff ff              	jmp	-170 <_check_checkerboard+0x87>
100002ef1: 48 8d 35 68 b8 00 00        	leaq	47208(%rip), %rsi
100002ef8: 48 8d 15 68 b8 00 00        	leaq	47208(%rip), %rdx
100002eff: 48 8d 0d 4b ba 00 00        	leaq	47691(%rip), %rcx
100002f06: 4c 8d 05 a7 b8 00 00        	leaq	47271(%rip), %r8
100002f0d: 4c 8d 0d 4b ba 00 00        	leaq	47691(%rip), %r9
100002f14: 31 db                       	xorl	%ebx, %ebx
100002f16: bf 05 00 00 00              	movl	$5, %edi
100002f1b: 31 c0                       	xorl	%eax, %eax
100002f1d: e8 fe 0a 00 00              	callq	2814 <_print_err>
100002f22: e9 f3 fe ff ff              	jmp	-269 <_check_checkerboard+0x5a>
100002f27: 66 0f 1f 84 00 00 00 00 00  	nopw	(%rax,%rax)

0000000100002f30 _get_path:
100002f30: 55                          	pushq	%rbp
100002f31: 48 89 e5                    	movq	%rsp, %rbp
100002f34: 41 57                       	pushq	%r15
100002f36: 41 56                       	pushq	%r14
100002f38: 41 54                       	pushq	%r12
100002f3a: 53                          	pushq	%rbx
100002f3b: 49 89 f6                    	movq	%rsi, %r14
100002f3e: 49 89 ff                    	movq	%rdi, %r15
100002f41: 48 8b 3f                    	movq	(%rdi), %rdi
100002f44: e8 d7 6b 00 00              	callq	27607 <_ft_strlen>
100002f49: 48 83 f8 05                 	cmpq	$5, %rax
100002f4d: 72 45                       	jb	69 <_get_path+0x64>
100002f4f: 31 db                       	xorl	%ebx, %ebx
100002f51: 4c 8d 25 0e ba 00 00        	leaq	47630(%rip), %r12
100002f58: 0f 1f 84 00 00 00 00 00     	nopl	(%rax,%rax)
100002f60: 49 8b 3f                    	movq	(%r15), %rdi
100002f63: 48 01 df                    	addq	%rbx, %rdi
100002f66: ba 05 00 00 00              	movl	$5, %edx
100002f6b: 4c 89 e6                    	movq	%r12, %rsi
100002f6e: e8 0d 6c 00 00              	callq	27661 <_ft_strncmp>
100002f73: 85 c0                       	testl	%eax, %eax
100002f75: 74 24                       	je	36 <_get_path+0x6b>
100002f77: 49 8b 07                    	movq	(%r15), %rax
100002f7a: 48 8d 7c 18 01              	leaq	1(%rax,%rbx), %rdi
100002f7f: 48 ff c3                    	incq	%rbx
100002f82: e8 99 6b 00 00              	callq	27545 <_ft_strlen>
100002f87: 48 83 f8 04                 	cmpq	$4, %rax
100002f8b: 77 d3                       	ja	-45 <_get_path+0x30>
100002f8d: 41 89 dc                    	movl	%ebx, %r12d
100002f90: 89 db                       	movl	%ebx, %ebx
100002f92: eb 0a                       	jmp	10 <_get_path+0x6e>
100002f94: 45 31 e4                    	xorl	%r12d, %r12d
100002f97: 31 db                       	xorl	%ebx, %ebx
100002f99: eb 03                       	jmp	3 <_get_path+0x6e>
100002f9b: 41 89 dc                    	movl	%ebx, %r12d
100002f9e: 49 03 1f                    	addq	(%r15), %rbx
100002fa1: 48 8d 35 be b9 00 00        	leaq	47550(%rip), %rsi
100002fa8: ba 05 00 00 00              	movl	$5, %edx
100002fad: 48 89 df                    	movq	%rbx, %rdi
100002fb0: e8 cb 6b 00 00              	callq	27595 <_ft_strncmp>
100002fb5: 85 c0                       	testl	%eax, %eax
100002fb7: 74 04                       	je	4 <_get_path+0x8d>
100002fb9: 31 c0                       	xorl	%eax, %eax
100002fbb: eb 22                       	jmp	34 <_get_path+0xaf>
100002fbd: 49 8b 3f                    	movq	(%r15), %rdi
100002fc0: 41 8d 54 24 04              	leal	4(%r12), %edx
100002fc5: 31 f6                       	xorl	%esi, %esi
100002fc7: e8 84 6d 00 00              	callq	28036 <_ft_substr>
100002fcc: 49 89 06                    	movq	%rax, (%r14)
100002fcf: 49 8b 07                    	movq	(%r15), %rax
100002fd2: 44 89 e1                    	movl	%r12d, %ecx
100002fd5: 48 8d 44 01 05              	leaq	5(%rcx,%rax), %rax
100002fda: 49 89 07                    	movq	%rax, (%r15)
100002fdd: b0 01                       	movb	$1, %al
100002fdf: 5b                          	popq	%rbx
100002fe0: 41 5c                       	popq	%r12
100002fe2: 41 5e                       	popq	%r14
100002fe4: 41 5f                       	popq	%r15
100002fe6: 5d                          	popq	%rbp
100002fe7: c3                          	retq
100002fe8: 0f 1f 84 00 00 00 00 00     	nopl	(%rax,%rax)

0000000100002ff0 _check_texture:
100002ff0: 55                          	pushq	%rbp
100002ff1: 48 89 e5                    	movq	%rsp, %rbp
100002ff4: 41 57                       	pushq	%r15
100002ff6: 41 56                       	pushq	%r14
100002ff8: 41 54                       	pushq	%r12
100002ffa: 53                          	pushq	%rbx
100002ffb: 49 89 cc                    	movq	%rcx, %r12
100002ffe: 49 89 d6                    	movq	%rdx, %r14
100003001: 49 89 f7                    	movq	%rsi, %r15
100003004: 48 89 fb                    	movq	%rdi, %rbx
100003007: 48 8b 3f                    	movq	(%rdi), %rdi
10000300a: e8 41 09 00 00              	callq	2369 <_skip_spaces>
10000300f: 48 63 f8                    	movslq	%eax, %rdi
100003012: 48 03 3b                    	addq	(%rbx), %rdi
100003015: 48 89 3b                    	movq	%rdi, (%rbx)
100003018: e8 03 6b 00 00              	callq	27395 <_ft_strlen>
10000301d: 48 83 f8 06                 	cmpq	$6, %rax
100003021: 72 14                       	jb	20 <_check_texture+0x47>
100003023: 48 8b 3b                    	movq	(%rbx), %rdi
100003026: ba 06 00 00 00              	movl	$6, %edx
10000302b: 4c 89 e6                    	movq	%r12, %rsi
10000302e: e8 4d 6b 00 00              	callq	27469 <_ft_strncmp>
100003033: 85 c0                       	testl	%eax, %eax
100003035: 74 1a                       	je	26 <_check_texture+0x61>
100003037: 48 8b 3b                    	movq	(%rbx), %rdi
10000303a: e8 11 09 00 00              	callq	2321 <_skip_spaces>
10000303f: 48 98                       	cltq
100003041: 48 01 03                    	addq	%rax, (%rbx)
100003044: b3 01                       	movb	$1, %bl
100003046: 89 d8                       	movl	%ebx, %eax
100003048: 5b                          	popq	%rbx
100003049: 41 5c                       	popq	%r12
10000304b: 41 5e                       	popq	%r14
10000304d: 41 5f                       	popq	%r15
10000304f: 5d                          	popq	%rbp
100003050: c3                          	retq
100003051: 4c 89 e7                    	movq	%r12, %rdi
100003054: e8 c7 6a 00 00              	callq	27335 <_ft_strlen>
100003059: 48 83 f8 07                 	cmpq	$7, %rax
10000305d: 75 2c                       	jne	44 <_check_texture+0x9b>
10000305f: 48 8d 35 fa b6 00 00        	leaq	46842(%rip), %rsi
100003066: 48 8d 15 fa b6 00 00        	leaq	46842(%rip), %rdx
10000306d: 48 8d 0d 08 b8 00 00        	leaq	47112(%rip), %rcx
100003074: 4c 8d 05 f1 b8 00 00        	leaq	47345(%rip), %r8
10000307b: 31 db                       	xorl	%ebx, %ebx
10000307d: bf 04 00 00 00              	movl	$4, %edi
100003082: 31 c0                       	xorl	%eax, %eax
100003084: e8 97 09 00 00              	callq	2455 <_print_err>
100003089: eb bb                       	jmp	-69 <_check_texture+0x56>
10000308b: 48 83 03 06                 	addq	$6, (%rbx)
10000308f: 48 89 df                    	movq	%rbx, %rdi
100003092: 4c 89 fe                    	movq	%r15, %rsi
100003095: e8 96 fe ff ff              	callq	-362 <_get_path>
10000309a: 84 c0                       	testb	%al, %al
10000309c: 74 06                       	je	6 <_check_texture+0xb4>
10000309e: 41 c6 06 01                 	movb	$1, (%r14)
1000030a2: eb 93                       	jmp	-109 <_check_texture+0x47>
1000030a4: 31 db                       	xorl	%ebx, %ebx
1000030a6: eb 9e                       	jmp	-98 <_check_texture+0x56>
1000030a8: 0f 1f 84 00 00 00 00 00     	nopl	(%rax,%rax)

00000001000030b0 _textures_call:
1000030b0: 55                          	pushq	%rbp
1000030b1: 48 89 e5                    	movq	%rsp, %rbp
1000030b4: 41 57                       	pushq	%r15
1000030b6: 41 56                       	pushq	%r14
1000030b8: 41 54                       	pushq	%r12
1000030ba: 53                          	pushq	%rbx
1000030bb: 41 89 cc                    	movl	%ecx, %r12d
1000030be: 48 89 d3                    	movq	%rdx, %rbx
1000030c1: 49 89 f6                    	movq	%rsi, %r14
1000030c4: 49 89 ff                    	movq	%rdi, %r15
1000030c7: 83 f9 02                    	cmpl	$2, %ecx
1000030ca: 48 8d 05 d5 b8 00 00        	leaq	47317(%rip), %rax
1000030d1: 48 8d 0d d6 b8 00 00        	leaq	47318(%rip), %rcx
1000030d8: 48 0f 47 c8                 	cmovaq	%rax, %rcx
1000030dc: 48 83 c6 30                 	addq	$48, %rsi
1000030e0: e8 0b ff ff ff              	callq	-245 <_check_texture>
1000030e5: 84 c0                       	testb	%al, %al
1000030e7: 74 37                       	je	55 <_textures_call+0x70>
1000030e9: b0 01                       	movb	$1, %al
1000030eb: 80 3b 00                    	cmpb	$0, (%rbx)
1000030ee: 75 32                       	jne	50 <_textures_call+0x72>
1000030f0: 41 83 fc 02                 	cmpl	$2, %r12d
1000030f4: 48 8d 05 ba b8 00 00        	leaq	47290(%rip), %rax
1000030fb: 48 8d 0d bb b8 00 00        	leaq	47291(%rip), %rcx
100003102: 48 0f 47 c8                 	cmovaq	%rax, %rcx
100003106: 49 83 c6 38                 	addq	$56, %r14
10000310a: 4c 89 ff                    	movq	%r15, %rdi
10000310d: 4c 89 f6                    	movq	%r14, %rsi
100003110: 48 89 da                    	movq	%rbx, %rdx
100003113: 5b                          	popq	%rbx
100003114: 41 5c                       	popq	%r12
100003116: 41 5e                       	popq	%r14
100003118: 41 5f                       	popq	%r15
10000311a: 5d                          	popq	%rbp
10000311b: e9 d0 fe ff ff              	jmp	-304 <_check_texture>
100003120: 31 c0                       	xorl	%eax, %eax
100003122: 5b                          	popq	%rbx
100003123: 41 5c                       	popq	%r12
100003125: 41 5e                       	popq	%r14
100003127: 41 5f                       	popq	%r15
100003129: 5d                          	popq	%rbp
10000312a: c3                          	retq
10000312b: 0f 1f 44 00 00              	nopl	(%rax,%rax)

0000000100003130 _check_for_features:
100003130: 55                          	pushq	%rbp
100003131: 48 89 e5                    	movq	%rsp, %rbp
100003134: 41 57                       	pushq	%r15
100003136: 41 56                       	pushq	%r14
100003138: 41 55                       	pushq	%r13
10000313a: 41 54                       	pushq	%r12
10000313c: 53                          	pushq	%rbx
10000313d: 48 83 ec 38                 	subq	$56, %rsp
100003141: 49 89 f4                    	movq	%rsi, %r12
100003144: 89 55 c4                    	movl	%edx, -60(%rbp)
100003147: 83 fa 02                    	cmpl	$2, %edx
10000314a: 48 8d 05 55 b8 00 00        	leaq	47189(%rip), %rax
100003151: 4c 8d 3d 56 b8 00 00        	leaq	47190(%rip), %r15
100003158: 4c 0f 47 f8                 	cmovaq	%rax, %r15
10000315c: 48 89 7d c8                 	movq	%rdi, -56(%rbp)
100003160: 48 8d 5e 08                 	leaq	8(%rsi), %rbx
100003164: 48 8d 05 4a b8 00 00        	leaq	47178(%rip), %rax
10000316b: 4c 8d 35 4b b8 00 00        	leaq	47179(%rip), %r14
100003172: 4c 0f 47 f0                 	cmovaq	%rax, %r14
100003176: c6 45 d7 00                 	movb	$0, -41(%rbp)
10000317a: 48 8d 7d c8                 	leaq	-56(%rbp), %rdi
10000317e: 48 8d 55 d7                 	leaq	-41(%rbp), %rdx
100003182: 48 89 de                    	movq	%rbx, %rsi
100003185: e8 46 fa ff ff              	callq	-1466 <_check_reflection>
10000318a: 84 c0                       	testb	%al, %al
10000318c: 0f 84 f7 00 00 00           	je	247 <_check_for_features+0x159>
100003192: 4c 89 75 b0                 	movq	%r14, -80(%rbp)
100003196: 49 8d 44 24 30              	leaq	48(%r12), %rax
10000319b: 48 89 45 a8                 	movq	%rax, -88(%rbp)
10000319f: 49 8d 44 24 38              	leaq	56(%r12), %rax
1000031a4: 48 89 45 b8                 	movq	%rax, -72(%rbp)
1000031a8: 4c 8d 75 c8                 	leaq	-56(%rbp), %r14
1000031ac: 4c 8d 6d d7                 	leaq	-41(%rbp), %r13
1000031b0: eb 28                       	jmp	40 <_check_for_features+0xaa>
1000031b2: 66 2e 0f 1f 84 00 00 00 00 00       	nopw	%cs:(%rax,%rax)
1000031bc: 0f 1f 40 00                 	nopl	(%rax)
1000031c0: c6 45 d7 00                 	movb	$0, -41(%rbp)
1000031c4: 4c 89 f7                    	movq	%r14, %rdi
1000031c7: 48 89 de                    	movq	%rbx, %rsi
1000031ca: 4c 89 ea                    	movq	%r13, %rdx
1000031cd: e8 fe f9 ff ff              	callq	-1538 <_check_reflection>
1000031d2: 84 c0                       	testb	%al, %al
1000031d4: 0f 84 af 00 00 00           	je	175 <_check_for_features+0x159>
1000031da: 80 7d d7 00                 	cmpb	$0, -41(%rbp)
1000031de: 75 e0                       	jne	-32 <_check_for_features+0x90>
1000031e0: 4c 89 f7                    	movq	%r14, %rdi
1000031e3: 4c 89 e6                    	movq	%r12, %rsi
1000031e6: 4c 89 ea                    	movq	%r13, %rdx
1000031e9: e8 92 fa ff ff              	callq	-1390 <_check_specular>
1000031ee: 84 c0                       	testb	%al, %al
1000031f0: 0f 84 93 00 00 00           	je	147 <_check_for_features+0x159>
1000031f6: 80 7d d7 00                 	cmpb	$0, -41(%rbp)
1000031fa: 75 c4                       	jne	-60 <_check_for_features+0x90>
1000031fc: 4c 89 f7                    	movq	%r14, %rdi
1000031ff: 4c 89 e6                    	movq	%r12, %rsi
100003202: 4c 89 ea                    	movq	%r13, %rdx
100003205: 8b 4d c4                    	movl	-60(%rbp), %ecx
100003208: e8 b3 fb ff ff              	callq	-1101 <_check_checkerboard>
10000320d: 84 c0                       	testb	%al, %al
10000320f: 74 78                       	je	120 <_check_for_features+0x159>
100003211: 80 7d d7 00                 	cmpb	$0, -41(%rbp)
100003215: 75 a9                       	jne	-87 <_check_for_features+0x90>
100003217: 4c 89 f7                    	movq	%r14, %rdi
10000321a: 48 8b 75 a8                 	movq	-88(%rbp), %rsi
10000321e: 4c 89 ea                    	movq	%r13, %rdx
100003221: 4c 89 f9                    	movq	%r15, %rcx
100003224: e8 c7 fd ff ff              	callq	-569 <_check_texture>
100003229: 84 c0                       	testb	%al, %al
10000322b: 74 5c                       	je	92 <_check_for_features+0x159>
10000322d: 80 7d d7 00                 	cmpb	$0, -41(%rbp)
100003231: 75 8d                       	jne	-115 <_check_for_features+0x90>
100003233: 4c 89 f7                    	movq	%r14, %rdi
100003236: 48 8b 75 b8                 	movq	-72(%rbp), %rsi
10000323a: 4c 89 ea                    	movq	%r13, %rdx
10000323d: 48 8b 4d b0                 	movq	-80(%rbp), %rcx
100003241: e8 aa fd ff ff              	callq	-598 <_check_texture>
100003246: 84 c0                       	testb	%al, %al
100003248: 74 3f                       	je	63 <_check_for_features+0x159>
10000324a: 80 7d d7 00                 	cmpb	$0, -41(%rbp)
10000324e: 0f 85 6c ff ff ff           	jne	-148 <_check_for_features+0x90>
100003254: 48 8b 45 c8                 	movq	-56(%rbp), %rax
100003258: 80 38 00                    	cmpb	$0, (%rax)
10000325b: 74 3f                       	je	63 <_check_for_features+0x16c>
10000325d: 48 8d 35 fc b4 00 00        	leaq	46332(%rip), %rsi
100003264: 48 8d 15 fc b4 00 00        	leaq	46332(%rip), %rdx
10000326b: 48 8d 0d 0a b6 00 00        	leaq	46602(%rip), %rcx
100003272: 4c 8d 05 ec b5 00 00        	leaq	46572(%rip), %r8
100003279: 31 db                       	xorl	%ebx, %ebx
10000327b: bf 04 00 00 00              	movl	$4, %edi
100003280: 31 c0                       	xorl	%eax, %eax
100003282: e8 99 07 00 00              	callq	1945 <_print_err>
100003287: eb 02                       	jmp	2 <_check_for_features+0x15b>
100003289: 31 db                       	xorl	%ebx, %ebx
10000328b: 89 d8                       	movl	%ebx, %eax
10000328d: 48 83 c4 38                 	addq	$56, %rsp
100003291: 5b                          	popq	%rbx
100003292: 41 5c                       	popq	%r12
100003294: 41 5d                       	popq	%r13
100003296: 41 5e                       	popq	%r14
100003298: 41 5f                       	popq	%r15
10000329a: 5d                          	popq	%rbp
10000329b: c3                          	retq
10000329c: b3 01                       	movb	$1, %bl
10000329e: eb eb                       	jmp	-21 <_check_for_features+0x15b>

00000001000032a0 _addobject_front:
1000032a0: 48 85 ff                    	testq	%rdi, %rdi
1000032a3: 74 14                       	je	20 <_addobject_front+0x19>
1000032a5: 48 85 f6                    	testq	%rsi, %rsi
1000032a8: 74 0f                       	je	15 <_addobject_front+0x19>
1000032aa: 55                          	pushq	%rbp
1000032ab: 48 89 e5                    	movq	%rsp, %rbp
1000032ae: 48 8b 07                    	movq	(%rdi), %rax
1000032b1: 48 89 46 28                 	movq	%rax, 40(%rsi)
1000032b5: 48 89 37                    	movq	%rsi, (%rdi)
1000032b8: 5d                          	popq	%rbp
1000032b9: c3                          	retq
1000032ba: 66 0f 1f 44 00 00           	nopw	(%rax,%rax)

00000001000032c0 _addlight:
1000032c0: 48 85 ff                    	testq	%rdi, %rdi
1000032c3: 74 14                       	je	20 <_addlight+0x19>
1000032c5: 48 85 f6                    	testq	%rsi, %rsi
1000032c8: 74 0f                       	je	15 <_addlight+0x19>
1000032ca: 55                          	pushq	%rbp
1000032cb: 48 89 e5                    	movq	%rsp, %rbp
1000032ce: 48 8b 07                    	movq	(%rdi), %rax
1000032d1: 48 89 46 28                 	movq	%rax, 40(%rsi)
1000032d5: 48 89 37                    	movq	%rsi, (%rdi)
1000032d8: 5d                          	popq	%rbp
1000032d9: c3                          	retq
1000032da: 66 0f 1f 44 00 00           	nopw	(%rax,%rax)

00000001000032e0 _features_bool:
1000032e0: 55                          	pushq	%rbp
1000032e1: 48 89 e5                    	movq	%rsp, %rbp
1000032e4: 53                          	pushq	%rbx
1000032e5: 48 83 ec 48                 	subq	$72, %rsp
1000032e9: 48 89 f3                    	movq	%rsi, %rbx
1000032ec: 48 8d 7d b8                 	leaq	-72(%rbp), %rdi
1000032f0: e8 2b 37 00 00              	callq	14123 <_get_specular_addr>
1000032f5: f2 0f 10 4d b8              	movsd	-72(%rbp), %xmm1
1000032fa: f2 0f 10 55 c0              	movsd	-64(%rbp), %xmm2
1000032ff: f2 0f 10 45 e0              	movsd	-32(%rbp), %xmm0
100003304: 48 8b 4d e8                 	movq	-24(%rbp), %rcx
100003308: 48 8b 45 f0                 	movq	-16(%rbp), %rax
10000330c: 66 0f 57 db                 	xorpd	%xmm3, %xmm3
100003310: 66 0f 2e 5d d0              	ucomisd	-48(%rbp), %xmm3
100003315: 72 1d                       	jb	29 <_features_bool+0x54>
100003317: f2 0f 10 65 d8              	movsd	-40(%rbp), %xmm4
10000331c: 66 0f 2e e3                 	ucomisd	%xmm3, %xmm4
100003320: 77 12                       	ja	18 <_features_bool+0x54>
100003322: 66 0f 57 db                 	xorpd	%xmm3, %xmm3
100003326: 66 0f 2e d3                 	ucomisd	%xmm3, %xmm2
10000332a: 77 16                       	ja	22 <_features_bool+0x62>
10000332c: 66 0f 2e cb                 	ucomisd	%xmm3, %xmm1
100003330: 76 1a                       	jbe	26 <_features_bool+0x6c>
100003332: eb 22                       	jmp	34 <_features_bool+0x76>
100003334: c6 43 20 01                 	movb	$1, 32(%rbx)
100003338: 66 0f 57 db                 	xorpd	%xmm3, %xmm3
10000333c: 66 0f 2e d3                 	ucomisd	%xmm3, %xmm2
100003340: 76 ea                       	jbe	-22 <_features_bool+0x4c>
100003342: c6 43 21 01                 	movb	$1, 33(%rbx)
100003346: 66 0f 2e cb                 	ucomisd	%xmm3, %xmm1
10000334a: 77 0a                       	ja	10 <_features_bool+0x76>
10000334c: 66 0f 57 c9                 	xorpd	%xmm1, %xmm1
100003350: 66 0f 2e c1                 	ucomisd	%xmm1, %xmm0
100003354: 76 04                       	jbe	4 <_features_bool+0x7a>
100003356: c6 43 22 01                 	movb	$1, 34(%rbx)
10000335a: 48 85 c9                    	testq	%rcx, %rcx
10000335d: 74 04                       	je	4 <_features_bool+0x83>
10000335f: c6 43 23 01                 	movb	$1, 35(%rbx)
100003363: 48 85 c0                    	testq	%rax, %rax
100003366: 74 04                       	je	4 <_features_bool+0x8c>
100003368: c6 43 24 01                 	movb	$1, 36(%rbx)
10000336c: 48 83 c4 48                 	addq	$72, %rsp
100003370: 5b                          	popq	%rbx
100003371: 5d                          	popq	%rbp
100003372: c3                          	retq
100003373: 66 2e 0f 1f 84 00 00 00 00 00       	nopw	%cs:(%rax,%rax)
10000337d: 0f 1f 00                    	nopl	(%rax)

0000000100003380 _object_validate:
100003380: 55                          	pushq	%rbp
100003381: 48 89 e5                    	movq	%rsp, %rbp
100003384: 41 57                       	pushq	%r15
100003386: 41 56                       	pushq	%r14
100003388: 41 54                       	pushq	%r12
10000338a: 53                          	pushq	%rbx
10000338b: 48 83 ec 40                 	subq	$64, %rsp
10000338f: 49 89 cc                    	movq	%rcx, %r12
100003392: 49 89 d6                    	movq	%rdx, %r14
100003395: 41 89 f7                    	movl	%esi, %r15d
100003398: 89 fb                       	movl	%edi, %ebx
10000339a: be 01 00 00 00              	movl	$1, %esi
10000339f: 48 89 df                    	movq	%rbx, %rdi
1000033a2: e8 59 62 00 00              	callq	25177 <_ft_calloc>
1000033a7: 48 85 c0                    	testq	%rax, %rax
1000033aa: 74 70                       	je	112 <_object_validate+0x9c>
1000033ac: 48 89 c7                    	movq	%rax, %rdi
1000033af: 4c 89 e6                    	movq	%r12, %rsi
1000033b2: 48 89 da                    	movq	%rbx, %rdx
1000033b5: e8 06 63 00 00              	callq	25350 <_ft_memcpy>
1000033ba: 49 89 c4                    	movq	%rax, %r12
1000033bd: 41 0f b6 f7                 	movzbl	%r15b, %esi
1000033c1: 48 89 c7                    	movq	%rax, %rdi
1000033c4: e8 47 04 00 00              	callq	1095 <_newobject>
1000033c9: 48 85 c0                    	testq	%rax, %rax
1000033cc: 74 52                       	je	82 <_object_validate+0xa0>
1000033ce: 48 89 c3                    	movq	%rax, %rbx
1000033d1: 48 8d 7d a0                 	leaq	-96(%rbp), %rdi
1000033d5: 48 89 c6                    	movq	%rax, %rsi
1000033d8: e8 43 36 00 00              	callq	13891 <_get_specular_addr>
1000033dd: f2 0f 10 4d a0              	movsd	-96(%rbp), %xmm1
1000033e2: f2 0f 10 55 a8              	movsd	-88(%rbp), %xmm2
1000033e7: f2 0f 10 45 c8              	movsd	-56(%rbp), %xmm0
1000033ec: 48 8b 4d d0                 	movq	-48(%rbp), %rcx
1000033f0: 48 8b 45 d8                 	movq	-40(%rbp), %rax
1000033f4: 66 0f 57 db                 	xorpd	%xmm3, %xmm3
1000033f8: 66 0f 2e 5d b8              	ucomisd	-72(%rbp), %xmm3
1000033fd: 72 2d                       	jb	45 <_object_validate+0xac>
1000033ff: f2 0f 10 65 c0              	movsd	-64(%rbp), %xmm4
100003404: 66 0f 2e e3                 	ucomisd	%xmm3, %xmm4
100003408: 77 22                       	ja	34 <_object_validate+0xac>
10000340a: 66 0f 57 db                 	xorpd	%xmm3, %xmm3
10000340e: 66 0f 2e d3                 	ucomisd	%xmm3, %xmm2
100003412: 77 26                       	ja	38 <_object_validate+0xba>
100003414: 66 0f 2e cb                 	ucomisd	%xmm3, %xmm1
100003418: 76 2a                       	jbe	42 <_object_validate+0xc4>
10000341a: eb 32                       	jmp	50 <_object_validate+0xce>
10000341c: 31 c0                       	xorl	%eax, %eax
10000341e: eb 58                       	jmp	88 <_object_validate+0xf8>
100003420: 4c 89 e7                    	movq	%r12, %rdi
100003423: e8 0a ae 00 00              	callq	44554 <dyld_stub_binder+0x10000e232>
100003428: 31 c0                       	xorl	%eax, %eax
10000342a: eb 4c                       	jmp	76 <_object_validate+0xf8>
10000342c: c6 43 20 01                 	movb	$1, 32(%rbx)
100003430: 66 0f 57 db                 	xorpd	%xmm3, %xmm3
100003434: 66 0f 2e d3                 	ucomisd	%xmm3, %xmm2
100003438: 76 da                       	jbe	-38 <_object_validate+0x94>
10000343a: c6 43 21 01                 	movb	$1, 33(%rbx)
10000343e: 66 0f 2e cb                 	ucomisd	%xmm3, %xmm1
100003442: 77 0a                       	ja	10 <_object_validate+0xce>
100003444: 66 0f 57 c9                 	xorpd	%xmm1, %xmm1
100003448: 66 0f 2e c1                 	ucomisd	%xmm1, %xmm0
10000344c: 76 04                       	jbe	4 <_object_validate+0xd2>
10000344e: c6 43 22 01                 	movb	$1, 34(%rbx)
100003452: 48 85 c9                    	testq	%rcx, %rcx
100003455: 74 04                       	je	4 <_object_validate+0xdb>
100003457: c6 43 23 01                 	movb	$1, 35(%rbx)
10000345b: 48 85 c0                    	testq	%rax, %rax
10000345e: 74 04                       	je	4 <_object_validate+0xe4>
100003460: c6 43 24 01                 	movb	$1, 36(%rbx)
100003464: 49 8b 86 20 01 00 00        	movq	288(%r14), %rax
10000346b: 48 89 43 28                 	movq	%rax, 40(%rbx)
10000346f: 49 89 9e 20 01 00 00        	movq	%rbx, 288(%r14)
100003476: b0 01                       	movb	$1, %al
100003478: 48 83 c4 40                 	addq	$64, %rsp
10000347c: 5b                          	popq	%rbx
10000347d: 41 5c                       	popq	%r12
10000347f: 41 5e                       	popq	%r14
100003481: 41 5f                       	popq	%r15
100003483: 5d                          	popq	%rbp
100003484: c3                          	retq
100003485: 90                          	nop
100003486: 90                          	nop
100003487: 90                          	nop
100003488: 90                          	nop
100003489: 90                          	nop
10000348a: 90                          	nop
10000348b: 90                          	nop
10000348c: 90                          	nop
10000348d: 90                          	nop
10000348e: 90                          	nop
10000348f: 90                          	nop

0000000100003490 _check_boundries:
100003490: 55                          	pushq	%rbp
100003491: 48 89 e5                    	movq	%rsp, %rbp
100003494: 41 57                       	pushq	%r15
100003496: 41 56                       	pushq	%r14
100003498: 41 54                       	pushq	%r12
10000349a: 53                          	pushq	%rbx
10000349b: 89 f3                       	movl	%esi, %ebx
10000349d: 49 89 ff                    	movq	%rdi, %r15
1000034a0: 48 8b 07                    	movq	(%rdi), %rax
1000034a3: 0f be 38                    	movsbl	(%rax), %edi
1000034a6: e8 a5 61 00 00              	callq	24997 <_ft_isdigit>
1000034ab: 41 b6 01                    	movb	$1, %r14b
1000034ae: 85 c0                       	testl	%eax, %eax
1000034b0: 74 4e                       	je	78 <_check_boundries+0x70>
1000034b2: 41 bc 01 00 00 00           	movl	$1, %r12d
1000034b8: eb 2e                       	jmp	46 <_check_boundries+0x58>
1000034ba: 66 0f 1f 44 00 00           	nopw	(%rax,%rax)
1000034c0: 48 63 cb                    	movslq	%ebx, %rcx
1000034c3: 48 69 d9 67 66 66 66        	imulq	$1717986919, %rcx, %rbx
1000034ca: 48 89 d9                    	movq	%rbx, %rcx
1000034cd: 48 c1 e9 3f                 	shrq	$63, %rcx
1000034d1: 48 c1 fb 22                 	sarq	$34, %rbx
1000034d5: 01 cb                       	addl	%ecx, %ebx
1000034d7: 42 0f be 3c 20              	movsbl	(%rax,%r12), %edi
1000034dc: e8 6f 61 00 00              	callq	24943 <_ft_isdigit>
1000034e1: 49 ff c4                    	incq	%r12
1000034e4: 85 c0                       	testl	%eax, %eax
1000034e6: 74 18                       	je	24 <_check_boundries+0x70>
1000034e8: 49 8b 07                    	movq	(%r15), %rax
1000034eb: 83 fb 09                    	cmpl	$9, %ebx
1000034ee: 7f d0                       	jg	-48 <_check_boundries+0x30>
1000034f0: 42 0f be 4c 20 ff           	movsbl	-1(%rax,%r12), %ecx
1000034f6: 83 c1 d0                    	addl	$-48, %ecx
1000034f9: 39 cb                       	cmpl	%ecx, %ebx
1000034fb: 7d c3                       	jge	-61 <_check_boundries+0x30>
1000034fd: 45 31 f6                    	xorl	%r14d, %r14d
100003500: 44 89 f0                    	movl	%r14d, %eax
100003503: 5b                          	popq	%rbx
100003504: 41 5c                       	popq	%r12
100003506: 41 5e                       	popq	%r14
100003508: 41 5f                       	popq	%r15
10000350a: 5d                          	popq	%rbp
10000350b: c3                          	retq
10000350c: 0f 1f 40 00                 	nopl	(%rax)

0000000100003510 _ft_atod:
100003510: 55                          	pushq	%rbp
100003511: 48 89 e5                    	movq	%rsp, %rbp
100003514: 41 57                       	pushq	%r15
100003516: 41 56                       	pushq	%r14
100003518: 41 55                       	pushq	%r13
10000351a: 41 54                       	pushq	%r12
10000351c: 53                          	pushq	%rbx
10000351d: 48 83 ec 18                 	subq	$24, %rsp
100003521: 89 cb                       	movl	%ecx, %ebx
100003523: 41 89 d7                    	movl	%edx, %r15d
100003526: 49 89 f4                    	movq	%rsi, %r12
100003529: 49 89 fd                    	movq	%rdi, %r13
10000352c: 48 c7 06 00 00 00 00        	movq	$0, (%rsi)
100003533: 48 8b 3f                    	movq	(%rdi), %rdi
100003536: e8 15 04 00 00              	callq	1045 <_skip_spaces>
10000353b: 49 8b 55 00                 	movq	(%r13), %rdx
10000353f: 48 98                       	cltq
100003541: 48 8d 0c 02                 	leaq	(%rdx,%rax), %rcx
100003545: 49 89 4d 00                 	movq	%rcx, (%r13)
100003549: 8a 04 02                    	movb	(%rdx,%rax), %al
10000354c: 3c 2d                       	cmpb	$45, %al
10000354e: 75 15                       	jne	21 <_ft_atod+0x55>
100003550: 48 8d 41 01                 	leaq	1(%rcx), %rax
100003554: 49 89 45 00                 	movq	%rax, (%r13)
100003558: 8a 41 01                    	movb	1(%rcx), %al
10000355b: f2 0f 10 05 0d d9 00 00     	movsd	55565(%rip), %xmm0
100003563: eb 08                       	jmp	8 <_ft_atod+0x5d>
100003565: f2 0f 10 05 fb d8 00 00     	movsd	55547(%rip), %xmm0
10000356d: f2 0f 11 45 c8              	movsd	%xmm0, -56(%rbp)
100003572: 0f be f8                    	movsbl	%al, %edi
100003575: e8 d6 60 00 00              	callq	24790 <_ft_isdigit>
10000357a: 85 c0                       	testl	%eax, %eax
10000357c: 74 60                       	je	96 <_ft_atod+0xce>
10000357e: 89 5d c4                    	movl	%ebx, -60(%rbp)
100003581: 49 8b 45 00                 	movq	(%r13), %rax
100003585: 0f be 38                    	movsbl	(%rax), %edi
100003588: e8 c3 60 00 00              	callq	24771 <_ft_isdigit>
10000358d: 85 c0                       	testl	%eax, %eax
10000358f: 74 54                       	je	84 <_ft_atod+0xd5>
100003591: 41 be 01 00 00 00           	movl	$1, %r14d
100003597: 44 89 fb                    	movl	%r15d, %ebx
10000359a: eb 2c                       	jmp	44 <_ft_atod+0xb8>
10000359c: 0f 1f 40 00                 	nopl	(%rax)
1000035a0: 48 63 cb                    	movslq	%ebx, %rcx
1000035a3: 48 69 d9 67 66 66 66        	imulq	$1717986919, %rcx, %rbx
1000035aa: 48 89 d9                    	movq	%rbx, %rcx
1000035ad: 48 c1 e9 3f                 	shrq	$63, %rcx
1000035b1: 48 c1 fb 22                 	sarq	$34, %rbx
1000035b5: 01 cb                       	addl	%ecx, %ebx
1000035b7: 42 0f be 3c 30              	movsbl	(%rax,%r14), %edi
1000035bc: e8 8f 60 00 00              	callq	24719 <_ft_isdigit>
1000035c1: 49 ff c6                    	incq	%r14
1000035c4: 85 c0                       	testl	%eax, %eax
1000035c6: 74 1d                       	je	29 <_ft_atod+0xd5>
1000035c8: 49 8b 45 00                 	movq	(%r13), %rax
1000035cc: 83 fb 09                    	cmpl	$9, %ebx
1000035cf: 7f cf                       	jg	-49 <_ft_atod+0x90>
1000035d1: 42 0f be 4c 30 ff           	movsbl	-1(%rax,%r14), %ecx
1000035d7: 83 c1 d0                    	addl	$-48, %ecx
1000035da: 39 cb                       	cmpl	%ecx, %ebx
1000035dc: 7d c2                       	jge	-62 <_ft_atod+0x90>
1000035de: 31 c0                       	xorl	%eax, %eax
1000035e0: e9 17 02 00 00              	jmp	535 <_ft_atod+0x2ec>
1000035e5: 49 8b 45 00                 	movq	(%r13), %rax
1000035e9: eb 0c                       	jmp	12 <_ft_atod+0xe7>
1000035eb: 0f 1f 44 00 00              	nopl	(%rax,%rax)
1000035f0: 48 ff c0                    	incq	%rax
1000035f3: 49 89 45 00                 	movq	%rax, (%r13)
1000035f7: 0f b6 08                    	movzbl	(%rax), %ecx
1000035fa: 8d 51 f7                    	leal	-9(%rcx), %edx
1000035fd: 80 fa 05                    	cmpb	$5, %dl
100003600: 72 ee                       	jb	-18 <_ft_atod+0xe0>
100003602: 80 f9 20                    	cmpb	$32, %cl
100003605: 74 e9                       	je	-23 <_ft_atod+0xe0>
100003607: 80 f9 2b                    	cmpb	$43, %cl
10000360a: 74 05                       	je	5 <_ft_atod+0x101>
10000360c: 80 f9 2d                    	cmpb	$45, %cl
10000360f: 75 24                       	jne	36 <_ft_atod+0x125>
100003611: 48 8d 50 01                 	leaq	1(%rax), %rdx
100003615: 49 89 55 00                 	movq	%rdx, (%r13)
100003619: 8a 48 01                    	movb	1(%rax), %cl
10000361c: 31 f6                       	xorl	%esi, %esi
10000361e: 80 38 2d                    	cmpb	$45, (%rax)
100003621: 40 0f 95 c6                 	setne	%sil
100003625: 4c 8d 74 36 ff              	leaq	-1(%rsi,%rsi), %r14
10000362a: 48 89 d0                    	movq	%rdx, %rax
10000362d: 31 db                       	xorl	%ebx, %ebx
10000362f: 84 c9                       	testb	%cl, %cl
100003631: 75 1d                       	jne	29 <_ft_atod+0x140>
100003633: eb 4e                       	jmp	78 <_ft_atod+0x173>
100003635: 41 be 01 00 00 00           	movl	$1, %r14d
10000363b: 31 db                       	xorl	%ebx, %ebx
10000363d: 84 c9                       	testb	%cl, %cl
10000363f: 74 42                       	je	66 <_ft_atod+0x173>
100003641: 66 2e 0f 1f 84 00 00 00 00 00       	nopw	%cs:(%rax,%rax)
10000364b: 0f 1f 44 00 00              	nopl	(%rax,%rax)
100003650: 0f be f9                    	movsbl	%cl, %edi
100003653: e8 f8 5f 00 00              	callq	24568 <_ft_isdigit>
100003658: 85 c0                       	testl	%eax, %eax
10000365a: 74 23                       	je	35 <_ft_atod+0x16f>
10000365c: 48 8d 0c 9b                 	leaq	(%rbx,%rbx,4), %rcx
100003660: 49 8b 55 00                 	movq	(%r13), %rdx
100003664: 48 8d 42 01                 	leaq	1(%rdx), %rax
100003668: 49 89 45 00                 	movq	%rax, (%r13)
10000366c: 48 0f be 32                 	movsbq	(%rdx), %rsi
100003670: 48 8d 5c 4e d0              	leaq	-48(%rsi,%rcx,2), %rbx
100003675: 0f b6 4a 01                 	movzbl	1(%rdx), %ecx
100003679: 84 c9                       	testb	%cl, %cl
10000367b: 75 d3                       	jne	-45 <_ft_atod+0x140>
10000367d: eb 04                       	jmp	4 <_ft_atod+0x173>
10000367f: 49 8b 45 00                 	movq	(%r13), %rax
100003683: 41 0f af de                 	imull	%r14d, %ebx
100003687: 0f 57 c0                    	xorps	%xmm0, %xmm0
10000368a: f2 0f 2a c3                 	cvtsi2sd	%ebx, %xmm0
10000368e: f2 41 0f 11 04 24           	movsd	%xmm0, (%r12)
100003694: 80 38 2e                    	cmpb	$46, (%rax)
100003697: 0f 85 e8 00 00 00           	jne	232 <_ft_atod+0x275>
10000369d: 0f be 78 01                 	movsbl	1(%rax), %edi
1000036a1: e8 aa 5f 00 00              	callq	24490 <_ft_isdigit>
1000036a6: 85 c0                       	testl	%eax, %eax
1000036a8: 0f 84 d1 00 00 00           	je	209 <_ft_atod+0x26f>
1000036ae: 49 8b 45 00                 	movq	(%r13), %rax
1000036b2: 48 8d 48 01                 	leaq	1(%rax), %rcx
1000036b6: 49 89 4d 00                 	movq	%rcx, (%r13)
1000036ba: 0f be 78 01                 	movsbl	1(%rax), %edi
1000036be: e8 8d 5f 00 00              	callq	24461 <_ft_isdigit>
1000036c3: 31 db                       	xorl	%ebx, %ebx
1000036c5: 85 c0                       	testl	%eax, %eax
1000036c7: 74 1c                       	je	28 <_ft_atod+0x1d5>
1000036c9: 0f 1f 80 00 00 00 00        	nopl	(%rax)
1000036d0: 49 8b 45 00                 	movq	(%r13), %rax
1000036d4: 0f be 7c 18 01              	movsbl	1(%rax,%rbx), %edi
1000036d9: 48 ff c3                    	incq	%rbx
1000036dc: e8 6f 5f 00 00              	callq	24431 <_ft_isdigit>
1000036e1: 85 c0                       	testl	%eax, %eax
1000036e3: 75 eb                       	jne	-21 <_ft_atod+0x1c0>
1000036e5: 41 89 de                    	movl	%ebx, %r14d
1000036e8: 49 8b 45 00                 	movq	(%r13), %rax
1000036ec: 42 0f be 3c 30              	movsbl	(%rax,%r14), %edi
1000036f1: e8 8a 5f 00 00              	callq	24458 <_ft_isspace>
1000036f6: 49 8b 4d 00                 	movq	(%r13), %rcx
1000036fa: 85 c0                       	testl	%eax, %eax
1000036fc: 75 16                       	jne	22 <_ft_atod+0x204>
1000036fe: 42 80 3c 31 2c              	cmpb	$44, (%rcx,%r14)
100003703: 74 0f                       	je	15 <_ft_atod+0x204>
100003705: e9 d4 fe ff ff              	jmp	-300 <_ft_atod+0xce>
10000370a: 66 0f 1f 44 00 00           	nopw	(%rax,%rax)
100003710: 49 89 4d 00                 	movq	%rcx, (%r13)
100003714: 48 ff c1                    	incq	%rcx
100003717: 0f b6 41 ff                 	movzbl	-1(%rcx), %eax
10000371b: 8d 50 f7                    	leal	-9(%rax), %edx
10000371e: 80 fa 05                    	cmpb	$5, %dl
100003721: 72 ed                       	jb	-19 <_ft_atod+0x200>
100003723: 3c 20                       	cmpb	$32, %al
100003725: 74 e9                       	je	-23 <_ft_atod+0x200>
100003727: 3c 2b                       	cmpb	$43, %al
100003729: 74 04                       	je	4 <_ft_atod+0x21f>
10000372b: 3c 2d                       	cmpb	$45, %al
10000372d: 75 65                       	jne	101 <_ft_atod+0x284>
10000372f: 49 89 4d 00                 	movq	%rcx, (%r13)
100003733: 8a 01                       	movb	(%rcx), %al
100003735: 31 d2                       	xorl	%edx, %edx
100003737: 80 79 ff 2d                 	cmpb	$45, -1(%rcx)
10000373b: 0f 95 c2                    	setne	%dl
10000373e: 48 8d 4c 12 ff              	leaq	-1(%rdx,%rdx), %rcx
100003743: 84 c0                       	testb	%al, %al
100003745: 48 89 4d d0                 	movq	%rcx, -48(%rbp)
100003749: 74 56                       	je	86 <_ft_atod+0x291>
10000374b: 45 31 f6                    	xorl	%r14d, %r14d
10000374e: 66 90                       	nop
100003750: 0f be f8                    	movsbl	%al, %edi
100003753: e8 f8 5e 00 00              	callq	24312 <_ft_isdigit>
100003758: 85 c0                       	testl	%eax, %eax
10000375a: 74 48                       	je	72 <_ft_atod+0x294>
10000375c: 4b 8d 04 b6                 	leaq	(%r14,%r14,4), %rax
100003760: 49 8b 4d 00                 	movq	(%r13), %rcx
100003764: 48 8d 51 01                 	leaq	1(%rcx), %rdx
100003768: 49 89 55 00                 	movq	%rdx, (%r13)
10000376c: 48 0f be 11                 	movsbq	(%rcx), %rdx
100003770: 4c 8d 74 42 d0              	leaq	-48(%rdx,%rax,2), %r14
100003775: 0f b6 41 01                 	movzbl	1(%rcx), %eax
100003779: 84 c0                       	testb	%al, %al
10000377b: 75 d3                       	jne	-45 <_ft_atod+0x240>
10000377d: eb 25                       	jmp	37 <_ft_atod+0x294>
10000377f: f2 41 0f 10 04 24           	movsd	(%r12), %xmm0
100003785: f2 0f 59 45 c8              	mulsd	-56(%rbp), %xmm0
10000378a: f2 41 0f 11 04 24           	movsd	%xmm0, (%r12)
100003790: b0 01                       	movb	$1, %al
100003792: eb 68                       	jmp	104 <_ft_atod+0x2ec>
100003794: b9 01 00 00 00              	movl	$1, %ecx
100003799: 84 c0                       	testb	%al, %al
10000379b: 48 89 4d d0                 	movq	%rcx, -48(%rbp)
10000379f: 75 aa                       	jne	-86 <_ft_atod+0x23b>
1000037a1: 45 31 f6                    	xorl	%r14d, %r14d
1000037a4: 44 0f af 75 d0              	imull	-48(%rbp), %r14d
1000037a9: 0f 57 c0                    	xorps	%xmm0, %xmm0
1000037ac: f2 41 0f 2a c6              	cvtsi2sd	%r14d, %xmm0
1000037b1: f2 0f 11 45 d0              	movsd	%xmm0, -48(%rbp)
1000037b6: 0f 57 c0                    	xorps	%xmm0, %xmm0
1000037b9: f2 0f 2a c3                 	cvtsi2sd	%ebx, %xmm0
1000037bd: e8 22 aa 00 00              	callq	43554 <dyld_stub_binder+0x10000e1e4>
1000037c2: f2 0f 10 4d d0              	movsd	-48(%rbp), %xmm1
1000037c7: f2 0f 5e c8                 	divsd	%xmm0, %xmm1
1000037cb: f2 41 0f 58 0c 24           	addsd	(%r12), %xmm1
1000037d1: f2 0f 59 4d c8              	mulsd	-56(%rbp), %xmm1
1000037d6: f2 41 0f 11 0c 24           	movsd	%xmm1, (%r12)
1000037dc: 0f 57 c0                    	xorps	%xmm0, %xmm0
1000037df: f2 41 0f 2a c7              	cvtsi2sd	%r15d, %xmm0
1000037e4: 66 0f 2e c8                 	ucomisd	%xmm0, %xmm1
1000037e8: 0f 96 c1                    	setbe	%cl
1000037eb: 0f 57 c0                    	xorps	%xmm0, %xmm0
1000037ee: f2 0f 2a 45 c4              	cvtsi2sdl	-60(%rbp), %xmm0
1000037f3: 66 0f 2e c8                 	ucomisd	%xmm0, %xmm1
1000037f7: 0f 93 c0                    	setae	%al
1000037fa: 20 c8                       	andb	%cl, %al
1000037fc: 48 83 c4 18                 	addq	$24, %rsp
100003800: 5b                          	popq	%rbx
100003801: 41 5c                       	popq	%r12
100003803: 41 5d                       	popq	%r13
100003805: 41 5e                       	popq	%r14
100003807: 41 5f                       	popq	%r15
100003809: 5d                          	popq	%rbp
10000380a: c3                          	retq
10000380b: 90                          	nop
10000380c: 90                          	nop
10000380d: 90                          	nop
10000380e: 90                          	nop
10000380f: 90                          	nop

0000000100003810 _newobject:
100003810: 55                          	pushq	%rbp
100003811: 48 89 e5                    	movq	%rsp, %rbp
100003814: 41 56                       	pushq	%r14
100003816: 53                          	pushq	%rbx
100003817: 41 89 f6                    	movl	%esi, %r14d
10000381a: 48 89 fb                    	movq	%rdi, %rbx
10000381d: bf 30 00 00 00              	movl	$48, %edi
100003822: e8 0d ab 00 00              	callq	43789 <dyld_stub_binder+0x10000e334>
100003827: 48 85 c0                    	testq	%rax, %rax
10000382a: 74 1f                       	je	31 <_newobject+0x3b>
10000382c: 44 88 30                    	movb	%r14b, (%rax)
10000382f: 48 89 58 18                 	movq	%rbx, 24(%rax)
100003833: 48 c7 40 28 00 00 00 00     	movq	$0, 40(%rax)
10000383b: 48 c7 40 08 00 00 00 00     	movq	$0, 8(%rax)
100003843: 48 c7 40 10 00 00 00 00     	movq	$0, 16(%rax)
10000384b: 5b                          	popq	%rbx
10000384c: 41 5e                       	popq	%r14
10000384e: 5d                          	popq	%rbp
10000384f: c3                          	retq

0000000100003850 _newlight:
100003850: 55                          	pushq	%rbp
100003851: 48 89 e5                    	movq	%rsp, %rbp
100003854: bf 30 00 00 00              	movl	$48, %edi
100003859: e8 d6 aa 00 00              	callq	43734 <dyld_stub_binder+0x10000e334>
10000385e: 48 85 c0                    	testq	%rax, %rax
100003861: 74 38                       	je	56 <_newlight+0x4b>
100003863: 48 8d 4d 10                 	leaq	16(%rbp), %rcx
100003867: 48 8b 51 08                 	movq	8(%rcx), %rdx
10000386b: 48 89 50 08                 	movq	%rdx, 8(%rax)
10000386f: 0f b7 11                    	movzwl	(%rcx), %edx
100003872: 66 89 10                    	movw	%dx, (%rax)
100003875: 8a 51 02                    	movb	2(%rcx), %dl
100003878: 88 50 02                    	movb	%dl, 2(%rax)
10000387b: 48 8b 51 10                 	movq	16(%rcx), %rdx
10000387f: 48 8b 71 18                 	movq	24(%rcx), %rsi
100003883: 48 89 50 10                 	movq	%rdx, 16(%rax)
100003887: 48 89 70 18                 	movq	%rsi, 24(%rax)
10000388b: 48 8b 49 20                 	movq	32(%rcx), %rcx
10000388f: 48 89 48 20                 	movq	%rcx, 32(%rax)
100003893: 48 c7 40 28 00 00 00 00     	movq	$0, 40(%rax)
10000389b: 5d                          	popq	%rbp
10000389c: c3                          	retq
10000389d: 90                          	nop
10000389e: 90                          	nop
10000389f: 90                          	nop

00000001000038a0 _clearobjs:
1000038a0: 55                          	pushq	%rbp
1000038a1: 48 89 e5                    	movq	%rsp, %rbp
1000038a4: 41 56                       	pushq	%r14
1000038a6: 53                          	pushq	%rbx
1000038a7: 48 85 ff                    	testq	%rdi, %rdi
1000038aa: 74 0b                       	je	11 <_clearobjs+0x17>
1000038ac: 49 89 fe                    	movq	%rdi, %r14
1000038af: 48 8b 3f                    	movq	(%rdi), %rdi
1000038b2: 48 85 ff                    	testq	%rdi, %rdi
1000038b5: 75 30                       	jne	48 <_clearobjs+0x47>
1000038b7: 5b                          	popq	%rbx
1000038b8: 41 5e                       	popq	%r14
1000038ba: 5d                          	popq	%rbp
1000038bb: c3                          	retq
1000038bc: 0f 1f 40 00                 	nopl	(%rax)
1000038c0: 0f b6 37                    	movzbl	(%rdi), %esi
1000038c3: e8 a8 02 00 00              	callq	680 <_clear_texture>
1000038c8: 49 8b 06                    	movq	(%r14), %rax
1000038cb: 48 8b 78 18                 	movq	24(%rax), %rdi
1000038cf: e8 5e a9 00 00              	callq	43358 <dyld_stub_binder+0x10000e232>
1000038d4: 49 8b 3e                    	movq	(%r14), %rdi
1000038d7: e8 56 a9 00 00              	callq	43350 <dyld_stub_binder+0x10000e232>
1000038dc: 49 89 1e                    	movq	%rbx, (%r14)
1000038df: 48 89 df                    	movq	%rbx, %rdi
1000038e2: 48 85 db                    	testq	%rbx, %rbx
1000038e5: 74 d0                       	je	-48 <_clearobjs+0x17>
1000038e7: 48 8b 5f 28                 	movq	40(%rdi), %rbx
1000038eb: 80 3f 01                    	cmpb	$1, (%rdi)
1000038ee: 75 d0                       	jne	-48 <_clearobjs+0x20>
1000038f0: 48 8b 7f 18                 	movq	24(%rdi), %rdi
1000038f4: 48 83 c7 78                 	addq	$120, %rdi
1000038f8: e8 a3 ff ff ff              	callq	-93 <_clearobjs>
1000038fd: 49 8b 3e                    	movq	(%r14), %rdi
100003900: eb be                       	jmp	-66 <_clearobjs+0x20>
100003902: 66 2e 0f 1f 84 00 00 00 00 00       	nopw	%cs:(%rax,%rax)
10000390c: 0f 1f 40 00                 	nopl	(%rax)

0000000100003910 _clearlights:
100003910: 55                          	pushq	%rbp
100003911: 48 89 e5                    	movq	%rsp, %rbp
100003914: 41 56                       	pushq	%r14
100003916: 53                          	pushq	%rbx
100003917: 48 85 ff                    	testq	%rdi, %rdi
10000391a: 74 28                       	je	40 <_clearlights+0x34>
10000391c: 49 89 fe                    	movq	%rdi, %r14
10000391f: 48 8b 3f                    	movq	(%rdi), %rdi
100003922: 48 85 ff                    	testq	%rdi, %rdi
100003925: 74 1d                       	je	29 <_clearlights+0x34>
100003927: 66 0f 1f 84 00 00 00 00 00  	nopw	(%rax,%rax)
100003930: 48 8b 5f 28                 	movq	40(%rdi), %rbx
100003934: e8 f9 a8 00 00              	callq	43257 <dyld_stub_binder+0x10000e232>
100003939: 49 89 1e                    	movq	%rbx, (%r14)
10000393c: 48 89 df                    	movq	%rbx, %rdi
10000393f: 48 85 db                    	testq	%rbx, %rbx
100003942: 75 ec                       	jne	-20 <_clearlights+0x20>
100003944: 5b                          	popq	%rbx
100003945: 41 5e                       	popq	%r14
100003947: 5d                          	popq	%rbp
100003948: c3                          	retq
100003949: 0f 1f 80 00 00 00 00        	nopl	(%rax)

0000000100003950 _skip_spaces:
100003950: 55                          	pushq	%rbp
100003951: 48 89 e5                    	movq	%rsp, %rbp
100003954: 41 56                       	pushq	%r14
100003956: 53                          	pushq	%rbx
100003957: 48 89 fb                    	movq	%rdi, %rbx
10000395a: 41 be ff ff ff ff           	movl	$4294967295, %r14d
100003960: 0f be 3b                    	movsbl	(%rbx), %edi
100003963: e8 18 5d 00 00              	callq	23832 <_ft_isspace>
100003968: 41 ff c6                    	incl	%r14d
10000396b: 48 ff c3                    	incq	%rbx
10000396e: 85 c0                       	testl	%eax, %eax
100003970: 75 ee                       	jne	-18 <_skip_spaces+0x10>
100003972: 44 89 f0                    	movl	%r14d, %eax
100003975: 5b                          	popq	%rbx
100003976: 41 5e                       	popq	%r14
100003978: 5d                          	popq	%rbp
100003979: c3                          	retq
10000397a: 66 0f 1f 44 00 00           	nopw	(%rax,%rax)

0000000100003980 _get_integer:
100003980: 55                          	pushq	%rbp
100003981: 48 89 e5                    	movq	%rsp, %rbp
100003984: 41 57                       	pushq	%r15
100003986: 41 56                       	pushq	%r14
100003988: 41 55                       	pushq	%r13
10000398a: 41 54                       	pushq	%r12
10000398c: 53                          	pushq	%rbx
10000398d: 50                          	pushq	%rax
10000398e: 49 89 f6                    	movq	%rsi, %r14
100003991: 49 89 ff                    	movq	%rdi, %r15
100003994: 48 8b 1f                    	movq	(%rdi), %rbx
100003997: 49 bc 00 00 00 00 ff ff ff ff       	movabsq	$-4294967296, %r12
1000039a1: 49 bd 00 00 00 00 01 00 00 00       	movabsq	$4294967296, %r13
1000039ab: 0f 1f 44 00 00              	nopl	(%rax,%rax)
1000039b0: 4d 01 ec                    	addq	%r13, %r12
1000039b3: 0f be 3b                    	movsbl	(%rbx), %edi
1000039b6: e8 c5 5c 00 00              	callq	23749 <_ft_isspace>
1000039bb: 48 ff c3                    	incq	%rbx
1000039be: 85 c0                       	testl	%eax, %eax
1000039c0: 75 ee                       	jne	-18 <_get_integer+0x30>
1000039c2: 49 8b 07                    	movq	(%r15), %rax
1000039c5: 49 c1 fc 20                 	sarq	$32, %r12
1000039c9: 4a 8d 0c 20                 	leaq	(%rax,%r12), %rcx
1000039cd: 49 89 0f                    	movq	%rcx, (%r15)
1000039d0: 42 0f be 3c 20              	movsbl	(%rax,%r12), %edi
1000039d5: e8 76 5c 00 00              	callq	23670 <_ft_isdigit>
1000039da: 31 db                       	xorl	%ebx, %ebx
1000039dc: 85 c0                       	testl	%eax, %eax
1000039de: 74 16                       	je	22 <_get_integer+0x76>
1000039e0: 49 8b 07                    	movq	(%r15), %rax
1000039e3: 0f be 7c 18 01              	movsbl	1(%rax,%rbx), %edi
1000039e8: 48 ff c3                    	incq	%rbx
1000039eb: e8 60 5c 00 00              	callq	23648 <_ft_isdigit>
1000039f0: 85 c0                       	testl	%eax, %eax
1000039f2: 75 ec                       	jne	-20 <_get_integer+0x60>
1000039f4: 89 db                       	movl	%ebx, %ebx
1000039f6: 49 8b 3f                    	movq	(%r15), %rdi
1000039f9: e8 82 5a 00 00              	callq	23170 <_ft_atoi>
1000039fe: 41 89 06                    	movl	%eax, (%r14)
100003a01: 49 01 1f                    	addq	%rbx, (%r15)
100003a04: 48 83 c4 08                 	addq	$8, %rsp
100003a08: 5b                          	popq	%rbx
100003a09: 41 5c                       	popq	%r12
100003a0b: 41 5d                       	popq	%r13
100003a0d: 41 5e                       	popq	%r14
100003a0f: 41 5f                       	popq	%r15
100003a11: 5d                          	popq	%rbp
100003a12: c3                          	retq
100003a13: 66 2e 0f 1f 84 00 00 00 00 00       	nopw	%cs:(%rax,%rax)
100003a1d: 0f 1f 00                    	nopl	(%rax)

0000000100003a20 _print_err:
100003a20: 55                          	pushq	%rbp
100003a21: 48 89 e5                    	movq	%rsp, %rbp
100003a24: 53                          	pushq	%rbx
100003a25: 48 81 ec d8 00 00 00        	subq	$216, %rsp
100003a2c: 89 fb                       	movl	%edi, %ebx
100003a2e: 84 c0                       	testb	%al, %al
100003a30: 74 29                       	je	41 <_print_err+0x3b>
100003a32: 0f 29 85 50 ff ff ff        	movaps	%xmm0, -176(%rbp)
100003a39: 0f 29 8d 60 ff ff ff        	movaps	%xmm1, -160(%rbp)
100003a40: 0f 29 95 70 ff ff ff        	movaps	%xmm2, -144(%rbp)
100003a47: 0f 29 5d 80                 	movaps	%xmm3, -128(%rbp)
100003a4b: 0f 29 65 90                 	movaps	%xmm4, -112(%rbp)
100003a4f: 0f 29 6d a0                 	movaps	%xmm5, -96(%rbp)
100003a53: 0f 29 75 b0                 	movaps	%xmm6, -80(%rbp)
100003a57: 0f 29 7d c0                 	movaps	%xmm7, -64(%rbp)
100003a5b: 48 89 b5 28 ff ff ff        	movq	%rsi, -216(%rbp)
100003a62: 48 89 95 30 ff ff ff        	movq	%rdx, -208(%rbp)
100003a69: 48 89 8d 38 ff ff ff        	movq	%rcx, -200(%rbp)
100003a70: 4c 89 85 40 ff ff ff        	movq	%r8, -192(%rbp)
100003a77: 4c 89 8d 48 ff ff ff        	movq	%r9, -184(%rbp)
100003a7e: 48 8b 05 8b 45 02 00        	movq	148875(%rip), %rax
100003a85: 48 8b 00                    	movq	(%rax), %rax
100003a88: 48 89 45 f0                 	movq	%rax, -16(%rbp)
100003a8c: 48 8d 85 20 ff ff ff        	leaq	-224(%rbp), %rax
100003a93: 48 89 45 e0                 	movq	%rax, -32(%rbp)
100003a97: 48 8d 45 10                 	leaq	16(%rbp), %rax
100003a9b: 48 89 45 d8                 	movq	%rax, -40(%rbp)
100003a9f: 48 b8 08 00 00 00 30 00 00 00       	movabsq	$206158430216, %rax
100003aa9: 48 89 45 d0                 	movq	%rax, -48(%rbp)
100003aad: eb 1a                       	jmp	26 <_print_err+0xa9>
100003aaf: 90                          	nop
100003ab0: 48 8b 45 d8                 	movq	-40(%rbp), %rax
100003ab4: 48 8d 48 08                 	leaq	8(%rax), %rcx
100003ab8: 48 89 4d d8                 	movq	%rcx, -40(%rbp)
100003abc: 48 8b 38                    	movq	(%rax), %rdi
100003abf: be 02 00 00 00              	movl	$2, %esi
100003ac4: e8 d7 5c 00 00              	callq	23767 <_ft_putstr_fd>
100003ac9: 85 db                       	testl	%ebx, %ebx
100003acb: 74 1a                       	je	26 <_print_err+0xc7>
100003acd: ff cb                       	decl	%ebx
100003acf: 8b 4d d0                    	movl	-48(%rbp), %ecx
100003ad2: 48 83 f9 28                 	cmpq	$40, %rcx
100003ad6: 77 d8                       	ja	-40 <_print_err+0x90>
100003ad8: 48 89 c8                    	movq	%rcx, %rax
100003adb: 48 03 45 e0                 	addq	-32(%rbp), %rax
100003adf: 83 c1 08                    	addl	$8, %ecx
100003ae2: 89 4d d0                    	movl	%ecx, -48(%rbp)
100003ae5: eb d5                       	jmp	-43 <_print_err+0x9c>
100003ae7: 48 8b 05 22 45 02 00        	movq	148770(%rip), %rax
100003aee: 48 8b 00                    	movq	(%rax), %rax
100003af1: 48 3b 45 f0                 	cmpq	-16(%rbp), %rax
100003af5: 75 0a                       	jne	10 <_print_err+0xe1>
100003af7: 48 81 c4 d8 00 00 00        	addq	$216, %rsp
100003afe: 5b                          	popq	%rbx
100003aff: 5d                          	popq	%rbp
100003b00: c3                          	retq
100003b01: e8 ea a6 00 00              	callq	42730 <dyld_stub_binder+0x10000e1f0>
100003b06: 90                          	nop
100003b07: 90                          	nop
100003b08: 90                          	nop
100003b09: 90                          	nop
100003b0a: 90                          	nop
100003b0b: 90                          	nop
100003b0c: 90                          	nop
100003b0d: 90                          	nop
100003b0e: 90                          	nop
100003b0f: 90                          	nop

0000000100003b10 _texutre_clear:
100003b10: 55                          	pushq	%rbp
100003b11: 48 89 e5                    	movq	%rsp, %rbp
100003b14: 41 56                       	pushq	%r14
100003b16: 53                          	pushq	%rbx
100003b17: 49 89 fe                    	movq	%rdi, %r14
100003b1a: e8 61 06 00 00              	callq	1633 <_get_specular_add>
100003b1f: 48 85 c0                    	testq	%rax, %rax
100003b22: 74 3f                       	je	63 <_texutre_clear+0x53>
100003b24: 48 89 c3                    	movq	%rax, %rbx
100003b27: 48 8b 78 30                 	movq	48(%rax), %rdi
100003b2b: 48 85 ff                    	testq	%rdi, %rdi
100003b2e: 74 05                       	je	5 <_texutre_clear+0x25>
100003b30: e8 fd a6 00 00              	callq	42749 <dyld_stub_binder+0x10000e232>
100003b35: 49 8b 7e 08                 	movq	8(%r14), %rdi
100003b39: 48 85 ff                    	testq	%rdi, %rdi
100003b3c: 74 05                       	je	5 <_texutre_clear+0x33>
100003b3e: e8 ef a6 00 00              	callq	42735 <dyld_stub_binder+0x10000e232>
100003b43: 48 8b 7b 38                 	movq	56(%rbx), %rdi
100003b47: 48 85 ff                    	testq	%rdi, %rdi
100003b4a: 74 05                       	je	5 <_texutre_clear+0x41>
100003b4c: e8 e1 a6 00 00              	callq	42721 <dyld_stub_binder+0x10000e232>
100003b51: 49 8b 7e 10                 	movq	16(%r14), %rdi
100003b55: 48 85 ff                    	testq	%rdi, %rdi
100003b58: 74 09                       	je	9 <_texutre_clear+0x53>
100003b5a: 5b                          	popq	%rbx
100003b5b: 41 5e                       	popq	%r14
100003b5d: 5d                          	popq	%rbp
100003b5e: e9 cf a6 00 00              	jmp	42703 <dyld_stub_binder+0x10000e232>
100003b63: 5b                          	popq	%rbx
100003b64: 41 5e                       	popq	%r14
100003b66: 5d                          	popq	%rbp
100003b67: c3                          	retq
100003b68: 0f 1f 84 00 00 00 00 00     	nopl	(%rax,%rax)

0000000100003b70 _clear_texture:
100003b70: 55                          	pushq	%rbp
100003b71: 48 89 e5                    	movq	%rsp, %rbp
100003b74: 41 56                       	pushq	%r14
100003b76: 53                          	pushq	%rbx
100003b77: 31 c0                       	xorl	%eax, %eax
100003b79: 85 f6                       	testl	%esi, %esi
100003b7b: 0f 94 c0                    	sete	%al
100003b7e: 31 c9                       	xorl	%ecx, %ecx
100003b80: 83 fe 02                    	cmpl	$2, %esi
100003b83: 0f 94 c1                    	sete	%cl
100003b86: 8d 04 48                    	leal	(%rax,%rcx,2), %eax
100003b89: 31 c9                       	xorl	%ecx, %ecx
100003b8b: 83 fe 01                    	cmpl	$1, %esi
100003b8e: 0f 95 c1                    	setne	%cl
100003b91: 8d 4c 49 fd                 	leal	-3(%rcx,%rcx,2), %ecx
100003b95: 39 c8                       	cmpl	%ecx, %eax
100003b97: 74 4c                       	je	76 <_clear_texture+0x75>
100003b99: 49 89 fe                    	movq	%rdi, %r14
100003b9c: e8 df 05 00 00              	callq	1503 <_get_specular_add>
100003ba1: 48 85 c0                    	testq	%rax, %rax
100003ba4: 74 3f                       	je	63 <_clear_texture+0x75>
100003ba6: 48 89 c3                    	movq	%rax, %rbx
100003ba9: 48 8b 78 30                 	movq	48(%rax), %rdi
100003bad: 48 85 ff                    	testq	%rdi, %rdi
100003bb0: 74 05                       	je	5 <_clear_texture+0x47>
100003bb2: e8 7b a6 00 00              	callq	42619 <dyld_stub_binder+0x10000e232>
100003bb7: 49 8b 7e 08                 	movq	8(%r14), %rdi
100003bbb: 48 85 ff                    	testq	%rdi, %rdi
100003bbe: 74 05                       	je	5 <_clear_texture+0x55>
100003bc0: e8 6d a6 00 00              	callq	42605 <dyld_stub_binder+0x10000e232>
100003bc5: 48 8b 7b 38                 	movq	56(%rbx), %rdi
100003bc9: 48 85 ff                    	testq	%rdi, %rdi
100003bcc: 74 05                       	je	5 <_clear_texture+0x63>
100003bce: e8 5f a6 00 00              	callq	42591 <dyld_stub_binder+0x10000e232>
100003bd3: 49 8b 7e 10                 	movq	16(%r14), %rdi
100003bd7: 48 85 ff                    	testq	%rdi, %rdi
100003bda: 74 09                       	je	9 <_clear_texture+0x75>
100003bdc: 5b                          	popq	%rbx
100003bdd: 41 5e                       	popq	%r14
100003bdf: 5d                          	popq	%rbp
100003be0: e9 4d a6 00 00              	jmp	42573 <dyld_stub_binder+0x10000e232>
100003be5: 5b                          	popq	%rbx
100003be6: 41 5e                       	popq	%r14
100003be8: 5d                          	popq	%rbp
100003be9: c3                          	retq
100003bea: 90                          	nop
100003beb: 90                          	nop
100003bec: 90                          	nop
100003bed: 90                          	nop
100003bee: 90                          	nop
100003bef: 90                          	nop

0000000100003bf0 _make_image:
100003bf0: 55                          	pushq	%rbp
100003bf1: 48 89 e5                    	movq	%rsp, %rbp
100003bf4: 41 56                       	pushq	%r14
100003bf6: 53                          	pushq	%rbx
100003bf7: 49 89 fe                    	movq	%rdi, %r14
100003bfa: 31 db                       	xorl	%ebx, %ebx
100003bfc: 31 c0                       	xorl	%eax, %eax
100003bfe: e8 fd 8e 00 00              	callq	36605 <_mlx_init>
100003c03: 49 89 06                    	movq	%rax, (%r14)
100003c06: 48 85 c0                    	testq	%rax, %rax
100003c09: 74 5f                       	je	95 <_make_image+0x7a>
100003c0b: 48 8d 0d b2 ad 00 00        	leaq	44466(%rip), %rcx
100003c12: 48 89 c7                    	movq	%rax, %rdi
100003c15: be 80 07 00 00              	movl	$1920, %esi
100003c1a: ba 38 04 00 00              	movl	$1080, %edx
100003c1f: e8 bc 8a 00 00              	callq	35516 <_mlx_new_window>
100003c24: 49 89 46 08                 	movq	%rax, 8(%r14)
100003c28: 48 85 c0                    	testq	%rax, %rax
100003c2b: 74 3b                       	je	59 <_make_image+0x78>
100003c2d: 49 8b 3e                    	movq	(%r14), %rdi
100003c30: be 80 07 00 00              	movl	$1920, %esi
100003c35: ba 38 04 00 00              	movl	$1080, %edx
100003c3a: e8 c1 94 00 00              	callq	38081 <_mlx_new_image>
100003c3f: 49 89 46 10                 	movq	%rax, 16(%r14)
100003c43: 48 85 c0                    	testq	%rax, %rax
100003c46: 74 20                       	je	32 <_make_image+0x78>
100003c48: 49 8d 76 20                 	leaq	32(%r14), %rsi
100003c4c: 49 8d 56 24                 	leaq	36(%r14), %rdx
100003c50: 49 8d 4e 28                 	leaq	40(%r14), %rcx
100003c54: 48 89 c7                    	movq	%rax, %rdi
100003c57: e8 54 97 00 00              	callq	38740 <_mlx_get_data_addr>
100003c5c: 49 89 46 18                 	movq	%rax, 24(%r14)
100003c60: 48 85 c0                    	testq	%rax, %rax
100003c63: 0f 95 c3                    	setne	%bl
100003c66: eb 02                       	jmp	2 <_make_image+0x7a>
100003c68: 31 db                       	xorl	%ebx, %ebx
100003c6a: 89 d8                       	movl	%ebx, %eax
100003c6c: 5b                          	popq	%rbx
100003c6d: 41 5e                       	popq	%r14
100003c6f: 5d                          	popq	%rbp
100003c70: c3                          	retq
100003c71: 66 2e 0f 1f 84 00 00 00 00 00       	nopw	%cs:(%rax,%rax)
100003c7b: 0f 1f 44 00 00              	nopl	(%rax,%rax)

0000000100003c80 _check:
100003c80: 55                          	pushq	%rbp
100003c81: 48 89 e5                    	movq	%rsp, %rbp
100003c84: 48 8d 3d 46 ad 00 00        	leaq	44358(%rip), %rdi
100003c8b: 5d                          	popq	%rbp
100003c8c: e9 21 a7 00 00              	jmp	42785 <dyld_stub_binder+0x10000e3b2>
100003c91: 66 2e 0f 1f 84 00 00 00 00 00       	nopw	%cs:(%rax,%rax)
100003c9b: 0f 1f 44 00 00              	nopl	(%rax,%rax)

0000000100003ca0 _main:
100003ca0: 55                          	pushq	%rbp
100003ca1: 48 89 e5                    	movq	%rsp, %rbp
100003ca4: 41 57                       	pushq	%r15
100003ca6: 41 56                       	pushq	%r14
100003ca8: 53                          	pushq	%rbx
100003ca9: 48 81 ec 38 03 00 00        	subq	$824, %rsp
100003cb0: 49 89 f6                    	movq	%rsi, %r14
100003cb3: 89 fb                       	movl	%edi, %ebx
100003cb5: 48 8b 05 54 43 02 00        	movq	148308(%rip), %rax
100003cbc: 48 8b 00                    	movq	(%rax), %rax
100003cbf: 48 89 45 e0                 	movq	%rax, -32(%rbp)
100003cc3: 48 8d 3d b6 ff ff ff        	leaq	-74(%rip), %rdi
100003cca: e8 39 a5 00 00              	callq	42297 <dyld_stub_binder+0x10000e208>
100003ccf: 48 8d bd 60 fe ff ff        	leaq	-416(%rbp), %rdi
100003cd6: 45 31 ff                    	xorl	%r15d, %r15d
100003cd9: ba 80 01 00 00              	movl	$384, %edx
100003cde: 31 f6                       	xorl	%esi, %esi
100003ce0: e8 6b 5a 00 00              	callq	23147 <_ft_memset>
100003ce5: 83 fb 02                    	cmpl	$2, %ebx
100003ce8: 0f 85 23 01 00 00           	jne	291 <_main+0x171>
100003cee: 49 8b 7e 08                 	movq	8(%r14), %rdi
100003cf2: 48 8d b5 60 fe ff ff        	leaq	-416(%rbp), %rsi
100003cf9: e8 22 ed ff ff              	callq	-4830 <_parcer>
100003cfe: 84 c0                       	testb	%al, %al
100003d00: 0f 84 f3 00 00 00           	je	243 <_main+0x159>
100003d06: 31 c0                       	xorl	%eax, %eax
100003d08: e8 f3 8d 00 00              	callq	36339 <_mlx_init>
100003d0d: 48 89 85 30 fe ff ff        	movq	%rax, -464(%rbp)
100003d14: 48 85 c0                    	testq	%rax, %rax
100003d17: 0f 84 dc 00 00 00           	je	220 <_main+0x159>
100003d1d: 48 89 c3                    	movq	%rax, %rbx
100003d20: 48 8d 0d 9d ac 00 00        	leaq	44189(%rip), %rcx
100003d27: 48 89 c7                    	movq	%rax, %rdi
100003d2a: be 80 07 00 00              	movl	$1920, %esi
100003d2f: ba 38 04 00 00              	movl	$1080, %edx
100003d34: e8 a7 89 00 00              	callq	35239 <_mlx_new_window>
100003d39: 48 89 85 38 fe ff ff        	movq	%rax, -456(%rbp)
100003d40: 48 85 c0                    	testq	%rax, %rax
100003d43: 0f 84 b0 00 00 00           	je	176 <_main+0x159>
100003d49: 48 89 df                    	movq	%rbx, %rdi
100003d4c: be 80 07 00 00              	movl	$1920, %esi
100003d51: ba 38 04 00 00              	movl	$1080, %edx
100003d56: e8 a5 93 00 00              	callq	37797 <_mlx_new_image>
100003d5b: 48 89 85 40 fe ff ff        	movq	%rax, -448(%rbp)
100003d62: 48 85 c0                    	testq	%rax, %rax
100003d65: 0f 84 8e 00 00 00           	je	142 <_main+0x159>
100003d6b: 48 8d b5 50 fe ff ff        	leaq	-432(%rbp), %rsi
100003d72: 48 8d 95 54 fe ff ff        	leaq	-428(%rbp), %rdx
100003d79: 48 8d 8d 58 fe ff ff        	leaq	-424(%rbp), %rcx
100003d80: 48 89 c7                    	movq	%rax, %rdi
100003d83: e8 28 96 00 00              	callq	38440 <_mlx_get_data_addr>
100003d88: 48 89 85 48 fe ff ff        	movq	%rax, -440(%rbp)
100003d8f: 48 85 c0                    	testq	%rax, %rax
100003d92: 74 65                       	je	101 <_main+0x159>
100003d94: 48 8d bd 88 fe ff ff        	leaq	-376(%rbp), %rdi
100003d9b: e8 30 06 00 00              	callq	1584 <_lookat>
100003da0: 48 8d 9d 30 fe ff ff        	leaq	-464(%rbp), %rbx
100003da7: 48 89 5d 90                 	movq	%rbx, -112(%rbp)
100003dab: c7 45 98 00 00 00 00        	movl	$0, -104(%rbp)
100003db2: 48 8b 7d 80                 	movq	-128(%rbp), %rdi
100003db6: 48 89 de                    	movq	%rbx, %rsi
100003db9: e8 12 2c 00 00              	callq	11282 <_textures_binding>
100003dbe: 48 8d b5 60 fe ff ff        	leaq	-416(%rbp), %rsi
100003dc5: b9 30 00 00 00              	movl	$48, %ecx
100003dca: 48 89 e7                    	movq	%rsp, %rdi
100003dcd: f3 48 a5                    	rep		movsq	(%rsi), %es:(%rdi)
100003dd0: 48 89 df                    	movq	%rbx, %rdi
100003dd3: e8 18 01 00 00              	callq	280 <_make_threads>
100003dd8: 84 c0                       	testb	%al, %al
100003dda: 74 1d                       	je	29 <_main+0x159>
100003ddc: 48 8d bd 60 fe ff ff        	leaq	-416(%rbp), %rdi
100003de3: e8 48 23 00 00              	callq	9032 <_hooks_settings>
100003de8: 48 8b bd 30 fe ff ff        	movq	-464(%rbp), %rdi
100003def: e8 1c 8f 00 00              	callq	36636 <_mlx_loop>
100003df4: 45 31 ff                    	xorl	%r15d, %r15d
100003df7: eb 18                       	jmp	24 <_main+0x171>
100003df9: 48 8d 7d 80                 	leaq	-128(%rbp), %rdi
100003dfd: e8 9e fa ff ff              	callq	-1378 <_clearobjs>
100003e02: 48 8d 7d 88                 	leaq	-120(%rbp), %rdi
100003e06: e8 05 fb ff ff              	callq	-1275 <_clearlights>
100003e0b: 41 bf 01 00 00 00           	movl	$1, %r15d
100003e11: 48 8b 05 f8 41 02 00        	movq	147960(%rip), %rax
100003e18: 48 8b 00                    	movq	(%rax), %rax
100003e1b: 48 3b 45 e0                 	cmpq	-32(%rbp), %rax
100003e1f: 75 11                       	jne	17 <_main+0x192>
100003e21: 44 89 f8                    	movl	%r15d, %eax
100003e24: 48 81 c4 38 03 00 00        	addq	$824, %rsp
100003e2b: 5b                          	popq	%rbx
100003e2c: 41 5e                       	popq	%r14
100003e2e: 41 5f                       	popq	%r15
100003e30: 5d                          	popq	%rbp
100003e31: c3                          	retq
100003e32: e8 b9 a3 00 00              	callq	41913 <dyld_stub_binder+0x10000e1f0>
100003e37: 90                          	nop
100003e38: 90                          	nop
100003e39: 90                          	nop
100003e3a: 90                          	nop
100003e3b: 90                          	nop
100003e3c: 90                          	nop
100003e3d: 90                          	nop
100003e3e: 90                          	nop
100003e3f: 90                          	nop

0000000100003e40 _init_data_sets:
100003e40: 55                          	pushq	%rbp
100003e41: 48 89 e5                    	movq	%rsp, %rbp
100003e44: 8b 06                       	movl	(%rsi), %eax
100003e46: c1 e0 07                    	shll	$7, %eax
100003e49: 8d 04 40                    	leal	(%rax,%rax,2), %eax
100003e4c: 89 87 90 01 00 00           	movl	%eax, 400(%rdi)
100003e52: 69 06 80 07 00 00           	imull	$1920, (%rsi), %eax
100003e58: 05 80 07 00 00              	addl	$1920, %eax
100003e5d: 48 98                       	cltq
100003e5f: 48 69 c0 67 66 66 66        	imulq	$1717986919, %rax, %rax
100003e66: 49 89 c0                    	movq	%rax, %r8
100003e69: 49 c1 e8 3f                 	shrq	$63, %r8
100003e6d: 48 c1 f8 21                 	sarq	$33, %rax
100003e71: 44 01 c0                    	addl	%r8d, %eax
100003e74: 89 87 98 01 00 00           	movl	%eax, 408(%rdi)
100003e7a: 69 02 1c 02 00 00           	imull	$540, (%rdx), %eax
100003e80: 89 87 94 01 00 00           	movl	%eax, 404(%rdi)
100003e86: 69 02 38 04 00 00           	imull	$1080, (%rdx), %eax
100003e8c: 05 38 04 00 00              	addl	$1080, %eax
100003e91: d1 f8                       	sarl	%eax
100003e93: 89 87 9c 01 00 00           	movl	%eax, 412(%rdi)
100003e99: f6 c1 01                    	testb	$1, %cl
100003e9c: 75 07                       	jne	7 <_init_data_sets+0x65>
100003e9e: 48 89 d6                    	movq	%rdx, %rsi
100003ea1: ff 06                       	incl	(%rsi)
100003ea3: 5d                          	popq	%rbp
100003ea4: c3                          	retq
100003ea5: c7 02 00 00 00 00           	movl	$0, (%rdx)
100003eab: ff 06                       	incl	(%rsi)
100003ead: 5d                          	popq	%rbp
100003eae: c3                          	retq
100003eaf: 90                          	nop

0000000100003eb0 _join_threads:
100003eb0: 55                          	pushq	%rbp
100003eb1: 48 89 e5                    	movq	%rsp, %rbp
100003eb4: 41 57                       	pushq	%r15
100003eb6: 41 56                       	pushq	%r14
100003eb8: 53                          	pushq	%rbx
100003eb9: 50                          	pushq	%rax
100003eba: 85 f6                       	testl	%esi, %esi
100003ebc: 7e 25                       	jle	37 <_join_threads+0x33>
100003ebe: 49 89 fe                    	movq	%rdi, %r14
100003ec1: 41 89 f7                    	movl	%esi, %r15d
100003ec4: 31 db                       	xorl	%ebx, %ebx
100003ec6: 66 2e 0f 1f 84 00 00 00 00 00       	nopw	%cs:(%rax,%rax)
100003ed0: 49 8b 3c de                 	movq	(%r14,%rbx,8), %rdi
100003ed4: 48 ff c3                    	incq	%rbx
100003ed7: 31 f6                       	xorl	%esi, %esi
100003ed9: e8 92 a4 00 00              	callq	42130 <dyld_stub_binder+0x10000e370>
100003ede: 49 39 df                    	cmpq	%rbx, %r15
100003ee1: 75 ed                       	jne	-19 <_join_threads+0x20>
100003ee3: 48 83 c4 08                 	addq	$8, %rsp
100003ee7: 5b                          	popq	%rbx
100003ee8: 41 5e                       	popq	%r14
100003eea: 41 5f                       	popq	%r15
100003eec: 5d                          	popq	%rbp
100003eed: c3                          	retq
100003eee: 66 90                       	nop

0000000100003ef0 _make_threads:
100003ef0: 55                          	pushq	%rbp
100003ef1: 48 89 e5                    	movq	%rsp, %rbp
100003ef4: 41 57                       	pushq	%r15
100003ef6: 41 56                       	pushq	%r14
100003ef8: 41 55                       	pushq	%r13
100003efa: 41 54                       	pushq	%r12
100003efc: 53                          	pushq	%rbx
100003efd: 50                          	pushq	%rax
100003efe: b8 f8 10 00 00              	movl	$4344, %eax
100003f03: e8 d0 a2 00 00              	callq	41680 <dyld_stub_binder+0x10000e1d8>
100003f08: 48 29 c4                    	subq	%rax, %rsp
100003f0b: 58                          	popq	%rax
100003f0c: 48 8d 5d 10                 	leaq	16(%rbp), %rbx
100003f10: 48 8b 05 f9 40 02 00        	movq	147705(%rip), %rax
100003f17: 48 8b 00                    	movq	(%rax), %rax
100003f1a: 48 89 45 d0                 	movq	%rax, -48(%rbp)
100003f1e: 8b 47 20                    	movl	32(%rdi), %eax
100003f21: 8d 48 07                    	leal	7(%rax), %ecx
100003f24: 85 c0                       	testl	%eax, %eax
100003f26: 0f 49 c8                    	cmovnsl	%eax, %ecx
100003f29: 48 89 bd e8 ee ff ff        	movq	%rdi, -4376(%rbp)
100003f30: 48 8b 7f 18                 	movq	24(%rdi), %rdi
100003f34: c1 f9 03                    	sarl	$3, %ecx
100003f37: 69 c1 00 a4 1f 00           	imull	$2073600, %ecx, %eax
100003f3d: 48 63 f0                    	movslq	%eax, %rsi
100003f40: e8 8b 56 00 00              	callq	22155 <_ft_bzero>
100003f45: 48 8d bd 50 01 00 00        	leaq	336(%rbp), %rdi
100003f4c: 31 f6                       	xorl	%esi, %esi
100003f4e: e8 23 a4 00 00              	callq	42019 <dyld_stub_binder+0x10000e376>
100003f53: 48 89 9d 78 f0 ff ff        	movq	%rbx, -3976(%rbp)
100003f5a: 48 89 9d 20 f2 ff ff        	movq	%rbx, -3552(%rbp)
100003f61: 48 89 9d c8 f3 ff ff        	movq	%rbx, -3128(%rbp)
100003f68: 48 89 9d 70 f5 ff ff        	movq	%rbx, -2704(%rbp)
100003f6f: 48 89 9d 18 f7 ff ff        	movq	%rbx, -2280(%rbp)
100003f76: 48 89 9d c0 f8 ff ff        	movq	%rbx, -1856(%rbp)
100003f7d: 48 89 9d 68 fa ff ff        	movq	%rbx, -1432(%rbp)
100003f84: 48 89 9d 10 fc ff ff        	movq	%rbx, -1008(%rbp)
100003f8b: 48 89 9d b8 fd ff ff        	movq	%rbx, -584(%rbp)
100003f92: 48 89 9d 60 ff ff ff        	movq	%rbx, -160(%rbp)
100003f99: 48 8d 9d f0 ee ff ff        	leaq	-4368(%rbp), %rbx
100003fa0: 4c 8d 65 80                 	leaq	-128(%rbp), %r12
100003fa4: 45 31 ed                    	xorl	%r13d, %r13d
100003fa7: 45 31 f6                    	xorl	%r14d, %r14d
100003faa: 45 31 ff                    	xorl	%r15d, %r15d
100003fad: 0f 1f 00                    	nopl	(%rax)
100003fb0: 49 83 fd 0a                 	cmpq	$10, %r13
100003fb4: 0f 84 f1 00 00 00           	je	241 <_make_threads+0x1bb>
100003fba: 48 8b 85 e8 ee ff ff        	movq	-4376(%rbp), %rax
100003fc1: 48 89 03                    	movq	%rax, (%rbx)
100003fc4: 48 8d 7b 08                 	leaq	8(%rbx), %rdi
100003fc8: ba 80 01 00 00              	movl	$384, %edx
100003fcd: 48 8d 75 10                 	leaq	16(%rbp), %rsi
100003fd1: e8 64 a3 00 00              	callq	41828 <dyld_stub_binder+0x10000e33a>
100003fd6: 44 89 f0                    	movl	%r14d, %eax
100003fd9: c1 e0 07                    	shll	$7, %eax
100003fdc: 8d 04 40                    	leal	(%rax,%rax,2), %eax
100003fdf: 89 83 90 01 00 00           	movl	%eax, 400(%rbx)
100003fe5: 41 69 c6 80 07 00 00        	imull	$1920, %r14d, %eax
100003fec: 05 80 07 00 00              	addl	$1920, %eax
100003ff1: 48 98                       	cltq
100003ff3: 48 69 c0 67 66 66 66        	imulq	$1717986919, %rax, %rax
100003ffa: 48 89 c1                    	movq	%rax, %rcx
100003ffd: 48 c1 e9 3f                 	shrq	$63, %rcx
100004001: 48 c1 f8 21                 	sarq	$33, %rax
100004005: 01 c8                       	addl	%ecx, %eax
100004007: 89 83 98 01 00 00           	movl	%eax, 408(%rbx)
10000400d: 41 69 c7 1c 02 00 00        	imull	$540, %r15d, %eax
100004014: 89 83 94 01 00 00           	movl	%eax, 404(%rbx)
10000401a: 41 69 c7 38 04 00 00        	imull	$1080, %r15d, %eax
100004021: 05 38 04 00 00              	addl	$1080, %eax
100004026: d1 f8                       	sarl	%eax
100004028: 89 83 9c 01 00 00           	movl	%eax, 412(%rbx)
10000402e: 44 89 e8                    	movl	%r13d, %eax
100004031: 83 e0 01                    	andl	$1, %eax
100004034: 41 ff c7                    	incl	%r15d
100004037: 41 01 c6                    	addl	%eax, %r14d
10000403a: 48 85 c0                    	testq	%rax, %rax
10000403d: b8 00 00 00 00              	movl	$0, %eax
100004042: 44 0f 45 f8                 	cmovnel	%eax, %r15d
100004046: 4c 89 e7                    	movq	%r12, %rdi
100004049: 31 f6                       	xorl	%esi, %esi
10000404b: 48 8d 15 3e 2e 00 00        	leaq	11838(%rip), %rdx
100004052: 48 89 d9                    	movq	%rbx, %rcx
100004055: e8 10 a3 00 00              	callq	41744 <dyld_stub_binder+0x10000e36a>
10000405a: 49 ff c5                    	incq	%r13
10000405d: 48 81 c3 a8 01 00 00        	addq	$424, %rbx
100004064: 49 83 c4 08                 	addq	$8, %r12
100004068: 85 c0                       	testl	%eax, %eax
10000406a: 0f 84 40 ff ff ff           	je	-192 <_make_threads+0xc0>
100004070: 41 8d 45 fe                 	leal	-2(%r13), %eax
100004074: 83 f8 ff                    	cmpl	$-1, %eax
100004077: 0f 8c e0 00 00 00           	jl	224 <_make_threads+0x26d>
10000407d: 48 8d 5d 80                 	leaq	-128(%rbp), %rbx
100004081: 66 2e 0f 1f 84 00 00 00 00 00       	nopw	%cs:(%rax,%rax)
10000408b: 0f 1f 44 00 00              	nopl	(%rax,%rax)
100004090: 48 8b 3b                    	movq	(%rbx), %rdi
100004093: 45 31 f6                    	xorl	%r14d, %r14d
100004096: 31 f6                       	xorl	%esi, %esi
100004098: e8 d3 a2 00 00              	callq	41683 <dyld_stub_binder+0x10000e370>
10000409d: 48 83 c3 08                 	addq	$8, %rbx
1000040a1: 49 ff cd                    	decq	%r13
1000040a4: 75 ea                       	jne	-22 <_make_threads+0x1a0>
1000040a6: e9 8d 00 00 00              	jmp	141 <_make_threads+0x248>
1000040ab: 48 8b 7d 80                 	movq	-128(%rbp), %rdi
1000040af: 31 f6                       	xorl	%esi, %esi
1000040b1: e8 ba a2 00 00              	callq	41658 <dyld_stub_binder+0x10000e370>
1000040b6: 48 8b 7d 88                 	movq	-120(%rbp), %rdi
1000040ba: 31 f6                       	xorl	%esi, %esi
1000040bc: e8 af a2 00 00              	callq	41647 <dyld_stub_binder+0x10000e370>
1000040c1: 48 8b 7d 90                 	movq	-112(%rbp), %rdi
1000040c5: 31 f6                       	xorl	%esi, %esi
1000040c7: e8 a4 a2 00 00              	callq	41636 <dyld_stub_binder+0x10000e370>
1000040cc: 48 8b 7d 98                 	movq	-104(%rbp), %rdi
1000040d0: 31 f6                       	xorl	%esi, %esi
1000040d2: e8 99 a2 00 00              	callq	41625 <dyld_stub_binder+0x10000e370>
1000040d7: 48 8b 7d a0                 	movq	-96(%rbp), %rdi
1000040db: 31 f6                       	xorl	%esi, %esi
1000040dd: e8 8e a2 00 00              	callq	41614 <dyld_stub_binder+0x10000e370>
1000040e2: 48 8b 7d a8                 	movq	-88(%rbp), %rdi
1000040e6: 31 f6                       	xorl	%esi, %esi
1000040e8: e8 83 a2 00 00              	callq	41603 <dyld_stub_binder+0x10000e370>
1000040ed: 48 8b 7d b0                 	movq	-80(%rbp), %rdi
1000040f1: 31 f6                       	xorl	%esi, %esi
1000040f3: e8 78 a2 00 00              	callq	41592 <dyld_stub_binder+0x10000e370>
1000040f8: 48 8b 7d b8                 	movq	-72(%rbp), %rdi
1000040fc: 31 f6                       	xorl	%esi, %esi
1000040fe: e8 6d a2 00 00              	callq	41581 <dyld_stub_binder+0x10000e370>
100004103: 48 8b 7d c0                 	movq	-64(%rbp), %rdi
100004107: 31 f6                       	xorl	%esi, %esi
100004109: e8 62 a2 00 00              	callq	41570 <dyld_stub_binder+0x10000e370>
10000410e: 48 8b 7d c8                 	movq	-56(%rbp), %rdi
100004112: 31 f6                       	xorl	%esi, %esi
100004114: e8 57 a2 00 00              	callq	41559 <dyld_stub_binder+0x10000e370>
100004119: 48 8b 85 e8 ee ff ff        	movq	-4376(%rbp), %rax
100004120: 48 8b 38                    	movq	(%rax), %rdi
100004123: 48 8b 70 08                 	movq	8(%rax), %rsi
100004127: 48 8b 50 10                 	movq	16(%rax), %rdx
10000412b: 31 c9                       	xorl	%ecx, %ecx
10000412d: 45 31 c0                    	xorl	%r8d, %r8d
100004130: e8 bb 91 00 00              	callq	37307 <_mlx_put_image_to_window>
100004135: 41 b6 01                    	movb	$1, %r14b
100004138: 48 8b 05 d1 3e 02 00        	movq	147153(%rip), %rax
10000413f: 48 8b 00                    	movq	(%rax), %rax
100004142: 48 3b 45 d0                 	cmpq	-48(%rbp), %rax
100004146: 75 28                       	jne	40 <_make_threads+0x280>
100004148: 44 89 f0                    	movl	%r14d, %eax
10000414b: 48 81 c4 f8 10 00 00        	addq	$4344, %rsp
100004152: 5b                          	popq	%rbx
100004153: 41 5c                       	popq	%r12
100004155: 41 5d                       	popq	%r13
100004157: 41 5e                       	popq	%r14
100004159: 41 5f                       	popq	%r15
10000415b: 5d                          	popq	%rbp
10000415c: c3                          	retq
10000415d: 45 31 f6                    	xorl	%r14d, %r14d
100004160: 48 8b 05 a9 3e 02 00        	movq	147113(%rip), %rax
100004167: 48 8b 00                    	movq	(%rax), %rax
10000416a: 48 3b 45 d0                 	cmpq	-48(%rbp), %rax
10000416e: 74 d8                       	je	-40 <_make_threads+0x258>
100004170: e8 7b a0 00 00              	callq	41083 <dyld_stub_binder+0x10000e1f0>
100004175: 90                          	nop
100004176: 90                          	nop
100004177: 90                          	nop
100004178: 90                          	nop
100004179: 90                          	nop
10000417a: 90                          	nop
10000417b: 90                          	nop
10000417c: 90                          	nop
10000417d: 90                          	nop
10000417e: 90                          	nop
10000417f: 90                          	nop

0000000100004180 _get_specular_add:
100004180: 55                          	pushq	%rbp
100004181: 48 89 e5                    	movq	%rsp, %rbp
100004184: 8a 07                       	movb	(%rdi), %al
100004186: 84 c0                       	testb	%al, %al
100004188: 74 08                       	je	8 <_get_specular_add+0x12>
10000418a: 3c 01                       	cmpb	$1, %al
10000418c: 74 04                       	je	4 <_get_specular_add+0x12>
10000418e: 3c 02                       	cmpb	$2, %al
100004190: 75 06                       	jne	6 <_get_specular_add+0x18>
100004192: 48 8b 47 18                 	movq	24(%rdi), %rax
100004196: 5d                          	popq	%rbp
100004197: c3                          	retq
100004198: 31 c0                       	xorl	%eax, %eax
10000419a: 5d                          	popq	%rbp
10000419b: c3                          	retq
10000419c: 0f 1f 40 00                 	nopl	(%rax)

00000001000041a0 _bump_texture:
1000041a0: 55                          	pushq	%rbp
1000041a1: 48 89 e5                    	movq	%rsp, %rbp
1000041a4: 41 57                       	pushq	%r15
1000041a6: 41 56                       	pushq	%r14
1000041a8: 53                          	pushq	%rbx
1000041a9: 50                          	pushq	%rax
1000041aa: 49 89 f6                    	movq	%rsi, %r14
1000041ad: 48 89 fb                    	movq	%rdi, %rbx
1000041b0: 8a 07                       	movb	(%rdi), %al
1000041b2: 84 c0                       	testb	%al, %al
1000041b4: 74 0c                       	je	12 <_bump_texture+0x22>
1000041b6: 3c 01                       	cmpb	$1, %al
1000041b8: 74 08                       	je	8 <_bump_texture+0x22>
1000041ba: 3c 02                       	cmpb	$2, %al
1000041bc: 0f 85 a7 00 00 00           	jne	167 <_bump_texture+0xc9>
1000041c2: 4c 8b 7b 18                 	movq	24(%rbx), %r15
1000041c6: 4d 85 ff                    	testq	%r15, %r15
1000041c9: 0f 84 9a 00 00 00           	je	154 <_bump_texture+0xc9>
1000041cf: 49 83 7f 38 00              	cmpq	$0, 56(%r15)
1000041d4: 0f 84 8f 00 00 00           	je	143 <_bump_texture+0xc9>
1000041da: bf 30 00 00 00              	movl	$48, %edi
1000041df: e8 50 a1 00 00              	callq	41296 <dyld_stub_binder+0x10000e334>
1000041e4: 48 89 43 10                 	movq	%rax, 16(%rbx)
1000041e8: 49 8b 77 38                 	movq	56(%r15), %rsi
1000041ec: 48 85 c0                    	testq	%rax, %rax
1000041ef: 74 44                       	je	68 <_bump_texture+0x95>
1000041f1: 48 89 70 08                 	movq	%rsi, 8(%rax)
1000041f5: 49 8b 3e                    	movq	(%r14), %rdi
1000041f8: 48 8d 50 24                 	leaq	36(%rax), %rdx
1000041fc: 48 83 c0 28                 	addq	$40, %rax
100004200: 48 89 c1                    	movq	%rax, %rcx
100004203: e8 28 9c 00 00              	callq	39976 <_mlx_xpm_file_to_image>
100004208: 48 8b 4b 10                 	movq	16(%rbx), %rcx
10000420c: 48 89 01                    	movq	%rax, (%rcx)
10000420f: 48 85 c0                    	testq	%rax, %rax
100004212: 74 33                       	je	51 <_bump_texture+0xa7>
100004214: 48 8d 71 18                 	leaq	24(%rcx), %rsi
100004218: 48 8d 51 1c                 	leaq	28(%rcx), %rdx
10000421c: 48 83 c1 20                 	addq	$32, %rcx
100004220: 48 89 c7                    	movq	%rax, %rdi
100004223: e8 88 91 00 00              	callq	37256 <_mlx_get_data_addr>
100004228: 48 89 c1                    	movq	%rax, %rcx
10000422b: 48 8b 43 10                 	movq	16(%rbx), %rax
10000422f: 48 89 48 10                 	movq	%rcx, 16(%rax)
100004233: eb 36                       	jmp	54 <_bump_texture+0xcb>
100004235: 48 89 f7                    	movq	%rsi, %rdi
100004238: e8 f5 9f 00 00              	callq	40949 <dyld_stub_binder+0x10000e232>
10000423d: 49 c7 47 38 00 00 00 00     	movq	$0, 56(%r15)
100004245: eb 22                       	jmp	34 <_bump_texture+0xc9>
100004247: 49 8b 7f 38                 	movq	56(%r15), %rdi
10000424b: e8 e2 9f 00 00              	callq	40930 <dyld_stub_binder+0x10000e232>
100004250: 49 c7 47 38 00 00 00 00     	movq	$0, 56(%r15)
100004258: 48 8b 7b 10                 	movq	16(%rbx), %rdi
10000425c: e8 d1 9f 00 00              	callq	40913 <dyld_stub_binder+0x10000e232>
100004261: 48 c7 43 10 00 00 00 00     	movq	$0, 16(%rbx)
100004269: 31 c0                       	xorl	%eax, %eax
10000426b: 48 83 c4 08                 	addq	$8, %rsp
10000426f: 5b                          	popq	%rbx
100004270: 41 5e                       	popq	%r14
100004272: 41 5f                       	popq	%r15
100004274: 5d                          	popq	%rbp
100004275: c3                          	retq
100004276: 90                          	nop
100004277: 90                          	nop
100004278: 90                          	nop
100004279: 90                          	nop
10000427a: 90                          	nop
10000427b: 90                          	nop
10000427c: 90                          	nop
10000427d: 90                          	nop
10000427e: 90                          	nop
10000427f: 90                          	nop

0000000100004280 _create_cam:
100004280: 55                          	pushq	%rbp
100004281: 48 89 e5                    	movq	%rsp, %rbp
100004284: bf f8 00 00 00              	movl	$248, %edi
100004289: 5d                          	popq	%rbp
10000428a: e9 a5 a0 00 00              	jmp	41125 <dyld_stub_binder+0x10000e334>
10000428f: 90                          	nop

0000000100004290 _cam_to_world:
100004290: 55                          	pushq	%rbp
100004291: 48 89 e5                    	movq	%rsp, %rbp
100004294: 48 89 f8                    	movq	%rdi, %rax
100004297: f2 0f 10 02                 	movsd	(%rdx), %xmm0
10000429b: f2 0f 10 4a 08              	movsd	8(%rdx), %xmm1
1000042a0: f2 0f 10 52 10              	movsd	16(%rdx), %xmm2
1000042a5: f2 0f 12 d8                 	movddup	%xmm0, %xmm3
1000042a9: 66 0f 10 26                 	movupd	(%rsi), %xmm4
1000042ad: 66 0f 59 e3                 	mulpd	%xmm3, %xmm4
1000042b1: 66 0f 10 5e 20              	movupd	32(%rsi), %xmm3
1000042b6: 66 0f 10 6e 40              	movupd	64(%rsi), %xmm5
1000042bb: f2 0f 12 f1                 	movddup	%xmm1, %xmm6
1000042bf: 66 0f 59 f3                 	mulpd	%xmm3, %xmm6
1000042c3: 66 0f 58 f4                 	addpd	%xmm4, %xmm6
1000042c7: f2 0f 12 da                 	movddup	%xmm2, %xmm3
1000042cb: 66 0f 59 dd                 	mulpd	%xmm5, %xmm3
1000042cf: 66 0f 58 de                 	addpd	%xmm6, %xmm3
1000042d3: 66 0f 11 1f                 	movupd	%xmm3, (%rdi)
1000042d7: f2 0f 59 46 10              	mulsd	16(%rsi), %xmm0
1000042dc: f2 0f 59 4e 30              	mulsd	48(%rsi), %xmm1
1000042e1: f2 0f 58 c8                 	addsd	%xmm0, %xmm1
1000042e5: f2 0f 59 56 50              	mulsd	80(%rsi), %xmm2
1000042ea: f2 0f 58 d1                 	addsd	%xmm1, %xmm2
1000042ee: f2 0f 11 57 10              	movsd	%xmm2, 16(%rdi)
1000042f3: 5d                          	popq	%rbp
1000042f4: c3                          	retq
1000042f5: 66 2e 0f 1f 84 00 00 00 00 00       	nopw	%cs:(%rax,%rax)
1000042ff: 90                          	nop

0000000100004300 _camera_transform_matrix:
100004300: 55                          	pushq	%rbp
100004301: 48 89 e5                    	movq	%rsp, %rbp
100004304: 0f 10 47 20                 	movups	32(%rdi), %xmm0
100004308: 48 8b 47 30                 	movq	48(%rdi), %rax
10000430c: 0f 10 4f 50                 	movups	80(%rdi), %xmm1
100004310: 0f 11 4f 78                 	movups	%xmm1, 120(%rdi)
100004314: 48 8b 4f 60                 	movq	96(%rdi), %rcx
100004318: 48 89 8f 88 00 00 00        	movq	%rcx, 136(%rdi)
10000431f: 0f 10 4f 38                 	movups	56(%rdi), %xmm1
100004323: 0f 11 8f 98 00 00 00        	movups	%xmm1, 152(%rdi)
10000432a: 48 8b 4f 48                 	movq	72(%rdi), %rcx
10000432e: 48 89 8f a8 00 00 00        	movq	%rcx, 168(%rdi)
100004335: 0f 11 87 b8 00 00 00        	movups	%xmm0, 184(%rdi)
10000433c: 48 89 87 c8 00 00 00        	movq	%rax, 200(%rdi)
100004343: 5d                          	popq	%rbp
100004344: c3                          	retq
100004345: 66 2e 0f 1f 84 00 00 00 00 00       	nopw	%cs:(%rax,%rax)
10000434f: 90                          	nop

0000000100004350 _camera_attributs:
100004350: 55                          	pushq	%rbp
100004351: 48 89 e5                    	movq	%rsp, %rbp
100004354: 53                          	pushq	%rbx
100004355: 50                          	pushq	%rax
100004356: 48 89 fb                    	movq	%rdi, %rbx
100004359: 48 b8 1c c7 71 1c c7 71 fc 3f       	movabsq	$4610685218510194460, %rax
100004363: 48 89 47 70                 	movq	%rax, 112(%rdi)
100004367: 0f b6 07                    	movzbl	(%rdi), %eax
10000436a: f2 0f 2a c0                 	cvtsi2sd	%eax, %xmm0
10000436e: f2 0f 59 05 02 cb 00 00     	mulsd	51970(%rip), %xmm0
100004376: e8 3d a0 00 00              	callq	41021 <dyld_stub_binder+0x10000e3b8>
10000437b: f2 0f 11 43 68              	movsd	%xmm0, 104(%rbx)
100004380: 0f 10 43 20                 	movups	32(%rbx), %xmm0
100004384: 48 8b 43 30                 	movq	48(%rbx), %rax
100004388: 0f 10 4b 50                 	movups	80(%rbx), %xmm1
10000438c: 0f 11 4b 78                 	movups	%xmm1, 120(%rbx)
100004390: 48 8b 4b 60                 	movq	96(%rbx), %rcx
100004394: 48 89 8b 88 00 00 00        	movq	%rcx, 136(%rbx)
10000439b: 0f 10 4b 38                 	movups	56(%rbx), %xmm1
10000439f: 0f 11 8b 98 00 00 00        	movups	%xmm1, 152(%rbx)
1000043a6: 48 8b 4b 48                 	movq	72(%rbx), %rcx
1000043aa: 48 89 8b a8 00 00 00        	movq	%rcx, 168(%rbx)
1000043b1: 0f 11 83 b8 00 00 00        	movups	%xmm0, 184(%rbx)
1000043b8: 48 89 83 c8 00 00 00        	movq	%rax, 200(%rbx)
1000043bf: 48 83 c4 08                 	addq	$8, %rsp
1000043c3: 5b                          	popq	%rbx
1000043c4: 5d                          	popq	%rbp
1000043c5: c3                          	retq
1000043c6: 66 2e 0f 1f 84 00 00 00 00 00       	nopw	%cs:(%rax,%rax)

00000001000043d0 _lookat:
1000043d0: 55                          	pushq	%rbp
1000043d1: 48 89 e5                    	movq	%rsp, %rbp
1000043d4: 53                          	pushq	%rbx
1000043d5: 48 83 ec 48                 	subq	$72, %rsp
1000043d9: 48 89 fb                    	movq	%rdi, %rbx
1000043dc: 0f 57 c0                    	xorps	%xmm0, %xmm0
1000043df: 0f 16 05 82 ca 00 00        	movhps	51842(%rip), %xmm0
1000043e6: 0f 29 45 b0                 	movaps	%xmm0, -80(%rbp)
1000043ea: 48 c7 45 c0 00 00 00 00     	movq	$0, -64(%rbp)
1000043f2: 48 8b 47 20                 	movq	32(%rdi), %rax
1000043f6: 48 8b 4f 28                 	movq	40(%rdi), %rcx
1000043fa: 48 89 45 c8                 	movq	%rax, -56(%rbp)
1000043fe: 48 89 4d d0                 	movq	%rcx, -48(%rbp)
100004402: 48 8b 47 30                 	movq	48(%rdi), %rax
100004406: 48 89 45 d8                 	movq	%rax, -40(%rbp)
10000440a: 48 8b 47 30                 	movq	48(%rdi), %rax
10000440e: 4c 8b 4f 20                 	movq	32(%rdi), %r9
100004412: 48 8b 57 28                 	movq	40(%rdi), %rdx
100004416: 48 8b 75 c0                 	movq	-64(%rbp), %rsi
10000441a: 4c 8b 45 b0                 	movq	-80(%rbp), %r8
10000441e: 48 8b 4d b8                 	movq	-72(%rbp), %rcx
100004422: 48 8d 7d e0                 	leaq	-32(%rbp), %rdi
100004426: 50                          	pushq	%rax
100004427: 52                          	pushq	%rdx
100004428: 41 51                       	pushq	%r9
10000442a: 56                          	pushq	%rsi
10000442b: 51                          	pushq	%rcx
10000442c: 41 50                       	pushq	%r8
10000442e: e8 bd 4a 00 00              	callq	19133 <_cross_product>
100004433: 48 83 c4 30                 	addq	$48, %rsp
100004437: 48 8b 45 f0                 	movq	-16(%rbp), %rax
10000443b: 48 89 43 60                 	movq	%rax, 96(%rbx)
10000443f: 48 8b 45 e0                 	movq	-32(%rbp), %rax
100004443: 48 8b 4d e8                 	movq	-24(%rbp), %rcx
100004447: 48 89 4b 58                 	movq	%rcx, 88(%rbx)
10000444b: 48 89 43 50                 	movq	%rax, 80(%rbx)
10000444f: 48 8b 43 60                 	movq	96(%rbx), %rax
100004453: 4c 8b 4b 50                 	movq	80(%rbx), %r9
100004457: 48 8b 53 58                 	movq	88(%rbx), %rdx
10000445b: 48 8b 75 d8                 	movq	-40(%rbp), %rsi
10000445f: 4c 8b 45 c8                 	movq	-56(%rbp), %r8
100004463: 48 8b 4d d0                 	movq	-48(%rbp), %rcx
100004467: 48 8d 7d e0                 	leaq	-32(%rbp), %rdi
10000446b: 50                          	pushq	%rax
10000446c: 52                          	pushq	%rdx
10000446d: 41 51                       	pushq	%r9
10000446f: 56                          	pushq	%rsi
100004470: 51                          	pushq	%rcx
100004471: 41 50                       	pushq	%r8
100004473: e8 78 4a 00 00              	callq	19064 <_cross_product>
100004478: 48 83 c4 30                 	addq	$48, %rsp
10000447c: 48 8b 45 f0                 	movq	-16(%rbp), %rax
100004480: 48 89 43 48                 	movq	%rax, 72(%rbx)
100004484: 48 8b 45 e0                 	movq	-32(%rbp), %rax
100004488: 48 8b 4d e8                 	movq	-24(%rbp), %rcx
10000448c: 48 89 4b 40                 	movq	%rcx, 64(%rbx)
100004490: 48 89 43 38                 	movq	%rax, 56(%rbx)
100004494: 48 b8 1c c7 71 1c c7 71 fc 3f       	movabsq	$4610685218510194460, %rax
10000449e: 48 89 43 70                 	movq	%rax, 112(%rbx)
1000044a2: 0f b6 03                    	movzbl	(%rbx), %eax
1000044a5: 0f 57 c0                    	xorps	%xmm0, %xmm0
1000044a8: f2 0f 2a c0                 	cvtsi2sd	%eax, %xmm0
1000044ac: f2 0f 59 05 c4 c9 00 00     	mulsd	51652(%rip), %xmm0
1000044b4: e8 ff 9e 00 00              	callq	40703 <dyld_stub_binder+0x10000e3b8>
1000044b9: f2 0f 11 43 68              	movsd	%xmm0, 104(%rbx)
1000044be: 0f 10 43 20                 	movups	32(%rbx), %xmm0
1000044c2: 48 8b 43 30                 	movq	48(%rbx), %rax
1000044c6: 0f 10 4b 50                 	movups	80(%rbx), %xmm1
1000044ca: 0f 11 4b 78                 	movups	%xmm1, 120(%rbx)
1000044ce: 48 8b 4b 60                 	movq	96(%rbx), %rcx
1000044d2: 48 89 8b 88 00 00 00        	movq	%rcx, 136(%rbx)
1000044d9: 0f 10 4b 38                 	movups	56(%rbx), %xmm1
1000044dd: 0f 11 8b 98 00 00 00        	movups	%xmm1, 152(%rbx)
1000044e4: 48 8b 4b 48                 	movq	72(%rbx), %rcx
1000044e8: 48 89 8b a8 00 00 00        	movq	%rcx, 168(%rbx)
1000044ef: 0f 11 83 b8 00 00 00        	movups	%xmm0, 184(%rbx)
1000044f6: 48 89 83 c8 00 00 00        	movq	%rax, 200(%rbx)
1000044fd: 48 83 c4 48                 	addq	$72, %rsp
100004501: 5b                          	popq	%rbx
100004502: 5d                          	popq	%rbp
100004503: c3                          	retq
100004504: 90                          	nop
100004505: 90                          	nop
100004506: 90                          	nop
100004507: 90                          	nop
100004508: 90                          	nop
100004509: 90                          	nop
10000450a: 90                          	nop
10000450b: 90                          	nop
10000450c: 90                          	nop
10000450d: 90                          	nop
10000450e: 90                          	nop
10000450f: 90                          	nop

0000000100004510 _checkread_borad:
100004510: 55                          	pushq	%rbp
100004511: 48 89 e5                    	movq	%rsp, %rbp
100004514: 53                          	pushq	%rbx
100004515: 48 83 ec 28                 	subq	$40, %rsp
100004519: 48 89 f3                    	movq	%rsi, %rbx
10000451c: 8a 07                       	movb	(%rdi), %al
10000451e: 84 c0                       	testb	%al, %al
100004520: 74 2c                       	je	44 <_checkread_borad+0x3e>
100004522: 3c 01                       	cmpb	$1, %al
100004524: 74 4c                       	je	76 <_checkread_borad+0x62>
100004526: 3c 02                       	cmpb	$2, %al
100004528: 75 71                       	jne	113 <_checkread_borad+0x8b>
10000452a: 80 7f 20 00                 	cmpb	$0, 32(%rdi)
10000452e: 74 6b                       	je	107 <_checkread_borad+0x8b>
100004530: 48 8b 7f 18                 	movq	24(%rdi), %rdi
100004534: 0f 10 47 18                 	movups	24(%rdi), %xmm0
100004538: 0f 29 45 d0                 	movaps	%xmm0, -48(%rbp)
10000453c: 48 8d 55 e8                 	leaq	-24(%rbp), %rdx
100004540: 48 8d 4d f0                 	leaq	-16(%rbp), %rcx
100004544: 48 89 de                    	movq	%rbx, %rsi
100004547: e8 e4 25 00 00              	callq	9700 <_get_uv_plane>
10000454c: eb 46                       	jmp	70 <_checkread_borad+0x84>
10000454e: 80 7f 20 00                 	cmpb	$0, 32(%rdi)
100004552: 74 47                       	je	71 <_checkread_borad+0x8b>
100004554: 48 8b 7f 18                 	movq	24(%rdi), %rdi
100004558: 0f 10 47 18                 	movups	24(%rdi), %xmm0
10000455c: 0f 29 45 d0                 	movaps	%xmm0, -48(%rbp)
100004560: 48 8d 55 e8                 	leaq	-24(%rbp), %rdx
100004564: 48 8d 4d f0                 	leaq	-16(%rbp), %rcx
100004568: 48 89 de                    	movq	%rbx, %rsi
10000456b: e8 00 25 00 00              	callq	9472 <_get_uv_sphere>
100004570: eb 22                       	jmp	34 <_checkread_borad+0x84>
100004572: 80 7f 20 00                 	cmpb	$0, 32(%rdi)
100004576: 74 23                       	je	35 <_checkread_borad+0x8b>
100004578: 48 8b 7f 18                 	movq	24(%rdi), %rdi
10000457c: 0f 10 47 18                 	movups	24(%rdi), %xmm0
100004580: 0f 29 45 d0                 	movaps	%xmm0, -48(%rbp)
100004584: 48 8d 55 e8                 	leaq	-24(%rbp), %rdx
100004588: 48 8d 4d f0                 	leaq	-16(%rbp), %rcx
10000458c: 48 89 de                    	movq	%rbx, %rsi
10000458f: e8 dc 27 00 00              	callq	10204 <_get_uv_cylinder>
100004594: 66 0f 28 4d d0              	movapd	-48(%rbp), %xmm1
100004599: eb 00                       	jmp	0 <_checkread_borad+0x8b>
10000459b: f2 0f 10 45 e8              	movsd	-24(%rbp), %xmm0
1000045a0: f2 0f 59 c1                 	mulsd	%xmm1, %xmm0
1000045a4: 66 0f 3a 0b c0 09           	roundsd	$9, %xmm0, %xmm0
1000045aa: 66 0f 15 c9                 	unpckhpd	%xmm1, %xmm1
1000045ae: f2 0f 59 4d f0              	mulsd	-16(%rbp), %xmm1
1000045b3: 66 0f 3a 0b c9 09           	roundsd	$9, %xmm1, %xmm1
1000045b9: f2 0f 58 c8                 	addsd	%xmm0, %xmm1
1000045bd: f2 0f 2c c1                 	cvttsd2si	%xmm1, %eax
1000045c1: a8 01                       	testb	$1, %al
1000045c3: 74 1b                       	je	27 <_checkread_borad+0xd0>
1000045c5: 66 0f 28 05 b3 c8 00 00     	movapd	51379(%rip), %xmm0
1000045cd: 66 0f 11 43 38              	movupd	%xmm0, 56(%rbx)
1000045d2: 48 b8 00 00 00 00 00 e0 6f 40       	movabsq	$4643176031446892544, %rax
1000045dc: 48 89 43 48                 	movq	%rax, 72(%rbx)
1000045e0: 48 83 c4 28                 	addq	$40, %rsp
1000045e4: 5b                          	popq	%rbx
1000045e5: 5d                          	popq	%rbp
1000045e6: c3                          	retq
1000045e7: 90                          	nop
1000045e8: 90                          	nop
1000045e9: 90                          	nop
1000045ea: 90                          	nop
1000045eb: 90                          	nop
1000045ec: 90                          	nop
1000045ed: 90                          	nop
1000045ee: 90                          	nop
1000045ef: 90                          	nop

00000001000045f0 _zoom:
1000045f0: 55                          	pushq	%rbp
1000045f1: 48 89 e5                    	movq	%rsp, %rbp
1000045f4: 53                          	pushq	%rbx
1000045f5: 48 81 ec 88 01 00 00        	subq	$392, %rsp
1000045fc: 48 89 f3                    	movq	%rsi, %rbx
1000045ff: 31 c0                       	xorl	%eax, %eax
100004601: 83 ff 45                    	cmpl	$69, %edi
100004604: 0f 94 c0                    	sete	%al
100004607: 8d 04 80                    	leal	(%rax,%rax,4), %eax
10000460a: 31 c9                       	xorl	%ecx, %ecx
10000460c: 83 ff 4e                    	cmpl	$78, %edi
10000460f: 0f 94 c1                    	sete	%cl
100004612: 8d 0c 89                    	leal	(%rcx,%rcx,4), %ecx
100004615: 29 c8                       	subl	%ecx, %eax
100004617: f2 0f 2a c0                 	cvtsi2sd	%eax, %xmm0
10000461b: 48 8d 7e 28                 	leaq	40(%rsi), %rdi
10000461f: f2 0f 58 46 40              	addsd	64(%rsi), %xmm0
100004624: f2 0f 11 46 40              	movsd	%xmm0, 64(%rsi)
100004629: e8 a2 fd ff ff              	callq	-606 <_lookat>
10000462e: 48 8b 83 30 01 00 00        	movq	304(%rbx), %rax
100004635: b9 30 00 00 00              	movl	$48, %ecx
10000463a: 48 89 e7                    	movq	%rsp, %rdi
10000463d: 48 89 de                    	movq	%rbx, %rsi
100004640: f3 48 a5                    	rep		movsq	(%rsi), %es:(%rdi)
100004643: 48 89 c7                    	movq	%rax, %rdi
100004646: e8 a5 f8 ff ff              	callq	-1883 <_make_threads>
10000464b: 48 81 c4 88 01 00 00        	addq	$392, %rsp
100004652: 5b                          	popq	%rbx
100004653: 5d                          	popq	%rbp
100004654: c3                          	retq
100004655: 66 2e 0f 1f 84 00 00 00 00 00       	nopw	%cs:(%rax,%rax)
10000465f: 90                          	nop

0000000100004660 _cam_x:
100004660: 55                          	pushq	%rbp
100004661: 48 89 e5                    	movq	%rsp, %rbp
100004664: 41 56                       	pushq	%r14
100004666: 53                          	pushq	%rbx
100004667: 48 81 ec a0 01 00 00        	subq	$416, %rsp
10000466e: 48 89 f3                    	movq	%rsi, %rbx
100004671: f2 0f 10 0d ef c7 00 00     	movsd	51183(%rip), %xmm1
100004679: 66 0f 28 c1                 	movapd	%xmm1, %xmm0
10000467d: 83 ff 7c                    	cmpl	$124, %edi
100004680: 74 04                       	je	4 <_cam_x+0x26>
100004682: 66 0f 57 c0                 	xorpd	%xmm0, %xmm0
100004686: 83 ff 7b                    	cmpl	$123, %edi
100004689: 74 04                       	je	4 <_cam_x+0x2f>
10000468b: 66 0f 57 c9                 	xorpd	%xmm1, %xmm1
10000468f: f2 0f 5c c1                 	subsd	%xmm1, %xmm0
100004693: f2 0f 59 05 c5 c7 00 00     	mulsd	51141(%rip), %xmm0
10000469b: 4c 8d 73 28                 	leaq	40(%rbx), %r14
10000469f: 48 8d 73 48                 	leaq	72(%rbx), %rsi
1000046a3: f2 0f 58 43 48              	addsd	72(%rbx), %xmm0
1000046a8: f2 0f 11 43 48              	movsd	%xmm0, 72(%rbx)
1000046ad: 48 8d 7d d8                 	leaq	-40(%rbp), %rdi
1000046b1: e8 1a 47 00 00              	callq	18202 <_normalize>
1000046b6: 4c 89 f7                    	movq	%r14, %rdi
1000046b9: e8 12 fd ff ff              	callq	-750 <_lookat>
1000046be: 48 8b 83 30 01 00 00        	movq	304(%rbx), %rax
1000046c5: b9 30 00 00 00              	movl	$48, %ecx
1000046ca: 48 89 e7                    	movq	%rsp, %rdi
1000046cd: 48 89 de                    	movq	%rbx, %rsi
1000046d0: f3 48 a5                    	rep		movsq	(%rsi), %es:(%rdi)
1000046d3: 48 89 c7                    	movq	%rax, %rdi
1000046d6: e8 15 f8 ff ff              	callq	-2027 <_make_threads>
1000046db: 48 81 c4 a0 01 00 00        	addq	$416, %rsp
1000046e2: 5b                          	popq	%rbx
1000046e3: 41 5e                       	popq	%r14
1000046e5: 5d                          	popq	%rbp
1000046e6: c3                          	retq
1000046e7: 66 0f 1f 84 00 00 00 00 00  	nopw	(%rax,%rax)

00000001000046f0 _cam_y:
1000046f0: 55                          	pushq	%rbp
1000046f1: 48 89 e5                    	movq	%rsp, %rbp
1000046f4: 41 56                       	pushq	%r14
1000046f6: 53                          	pushq	%rbx
1000046f7: 48 81 ec a0 01 00 00        	subq	$416, %rsp
1000046fe: 48 89 f3                    	movq	%rsi, %rbx
100004701: f2 0f 10 0d 5f c7 00 00     	movsd	51039(%rip), %xmm1
100004709: 66 0f 28 c1                 	movapd	%xmm1, %xmm0
10000470d: 83 ff 7e                    	cmpl	$126, %edi
100004710: 74 04                       	je	4 <_cam_y+0x26>
100004712: 66 0f 57 c0                 	xorpd	%xmm0, %xmm0
100004716: 83 ff 7d                    	cmpl	$125, %edi
100004719: 74 04                       	je	4 <_cam_y+0x2f>
10000471b: 66 0f 57 c9                 	xorpd	%xmm1, %xmm1
10000471f: f2 0f 5c c1                 	subsd	%xmm1, %xmm0
100004723: f2 0f 59 05 65 c7 00 00     	mulsd	51045(%rip), %xmm0
10000472b: 4c 8d 73 28                 	leaq	40(%rbx), %r14
10000472f: 48 8d 73 48                 	leaq	72(%rbx), %rsi
100004733: f2 0f 58 43 50              	addsd	80(%rbx), %xmm0
100004738: f2 0f 11 43 50              	movsd	%xmm0, 80(%rbx)
10000473d: 48 8d 7d d8                 	leaq	-40(%rbp), %rdi
100004741: e8 8a 46 00 00              	callq	18058 <_normalize>
100004746: 4c 89 f7                    	movq	%r14, %rdi
100004749: e8 82 fc ff ff              	callq	-894 <_lookat>
10000474e: 48 8b 83 30 01 00 00        	movq	304(%rbx), %rax
100004755: b9 30 00 00 00              	movl	$48, %ecx
10000475a: 48 89 e7                    	movq	%rsp, %rdi
10000475d: 48 89 de                    	movq	%rbx, %rsi
100004760: f3 48 a5                    	rep		movsq	(%rsi), %es:(%rdi)
100004763: 48 89 c7                    	movq	%rax, %rdi
100004766: e8 85 f7 ff ff              	callq	-2171 <_make_threads>
10000476b: 48 81 c4 a0 01 00 00        	addq	$416, %rsp
100004772: 5b                          	popq	%rbx
100004773: 41 5e                       	popq	%r14
100004775: 5d                          	popq	%rbp
100004776: c3                          	retq
100004777: 90                          	nop
100004778: 90                          	nop
100004779: 90                          	nop
10000477a: 90                          	nop
10000477b: 90                          	nop
10000477c: 90                          	nop
10000477d: 90                          	nop
10000477e: 90                          	nop
10000477f: 90                          	nop

0000000100004780 _rotate:
100004780: 55                          	pushq	%rbp
100004781: 48 89 e5                    	movq	%rsp, %rbp
100004784: 41 57                       	pushq	%r15
100004786: 41 56                       	pushq	%r14
100004788: 41 55                       	pushq	%r13
10000478a: 41 54                       	pushq	%r12
10000478c: 53                          	pushq	%rbx
10000478d: 48 81 ec c8 01 00 00        	subq	$456, %rsp
100004794: 49 89 f7                    	movq	%rsi, %r15
100004797: 48 8b 9e 20 01 00 00        	movq	288(%rsi), %rbx
10000479e: 8b 86 3c 01 00 00           	movl	316(%rsi), %eax
1000047a4: 85 c0                       	testl	%eax, %eax
1000047a6: 74 16                       	je	22 <_rotate+0x3e>
1000047a8: 83 f8 02                    	cmpl	$2, %eax
1000047ab: 74 1d                       	je	29 <_rotate+0x4a>
1000047ad: 83 f8 01                    	cmpl	$1, %eax
1000047b0: 75 23                       	jne	35 <_rotate+0x55>
1000047b2: 41 83 7f 14 00              	cmpl	$0, 20(%r15)
1000047b7: 75 1c                       	jne	28 <_rotate+0x55>
1000047b9: e9 23 02 00 00              	jmp	547 <_rotate+0x261>
1000047be: 41 83 7f 10 00              	cmpl	$0, 16(%r15)
1000047c3: 75 10                       	jne	16 <_rotate+0x55>
1000047c5: e9 17 02 00 00              	jmp	535 <_rotate+0x261>
1000047ca: 41 83 7f 18 00              	cmpl	$0, 24(%r15)
1000047cf: 0f 84 0c 02 00 00           	je	524 <_rotate+0x261>
1000047d5: 48 85 db                    	testq	%rbx, %rbx
1000047d8: 0f 84 dd 01 00 00           	je	477 <_rotate+0x23b>
1000047de: f2 0f 10 05 82 c6 00 00     	movsd	50818(%rip), %xmm0
1000047e6: 66 0f 28 c8                 	movapd	%xmm0, %xmm1
1000047ea: 83 ff 25                    	cmpl	$37, %edi
1000047ed: 0f 85 00 02 00 00           	jne	512 <_rotate+0x273>
1000047f3: 66 0f 28 d0                 	movapd	%xmm0, %xmm2
1000047f7: 83 ff 26                    	cmpl	$38, %edi
1000047fa: 0f 85 04 02 00 00           	jne	516 <_rotate+0x284>
100004800: 66 0f 28 d8                 	movapd	%xmm0, %xmm3
100004804: 83 ff 22                    	cmpl	$34, %edi
100004807: 74 04                       	je	4 <_rotate+0x8d>
100004809: 66 0f 57 db                 	xorpd	%xmm3, %xmm3
10000480d: 66 0f 28 e1                 	movapd	%xmm1, %xmm4
100004811: f2 0f 5c e2                 	subsd	%xmm2, %xmm4
100004815: f2 0f 11 65 d0              	movsd	%xmm4, -48(%rbp)
10000481a: f2 0f 5c d1                 	subsd	%xmm1, %xmm2
10000481e: 66 0f 28 ca                 	movapd	%xmm2, %xmm1
100004822: f2 0f 10 15 76 c6 00 00     	movsd	50806(%rip), %xmm2
10000482a: 83 ff 28                    	cmpl	$40, %edi
10000482d: 74 04                       	je	4 <_rotate+0xb3>
10000482f: 66 0f 57 c0                 	xorpd	%xmm0, %xmm0
100004833: f2 0f 5c d8                 	subsd	%xmm0, %xmm3
100004837: f2 0f 10 45 d0              	movsd	-48(%rbp), %xmm0
10000483c: f2 0f 59 05 54 c6 00 00     	mulsd	50772(%rip), %xmm0
100004844: f2 0f 11 45 d0              	movsd	%xmm0, -48(%rbp)
100004849: 66 0f 28 c1                 	movapd	%xmm1, %xmm0
10000484d: f2 0f 59 c2                 	mulsd	%xmm2, %xmm0
100004851: f2 0f 11 45 b8              	movsd	%xmm0, -72(%rbp)
100004856: f2 0f 59 d3                 	mulsd	%xmm3, %xmm2
10000485a: f2 0f 11 55 b0              	movsd	%xmm2, -80(%rbp)
10000485f: f2 0f 10 05 f9 c5 00 00     	movsd	50681(%rip), %xmm0
100004867: f2 0f 59 c8                 	mulsd	%xmm0, %xmm1
10000486b: f2 0f 11 4d c0              	movsd	%xmm1, -64(%rbp)
100004870: f2 0f 59 d8                 	mulsd	%xmm0, %xmm3
100004874: f2 0f 11 5d c8              	movsd	%xmm3, -56(%rbp)
100004879: 49 bd 1a 27 17 92 bf 15 a0 3f       	movabsq	$4584688333197092634, %r13
100004883: 4c 8d 75 98                 	leaq	-104(%rbp), %r14
100004887: 85 c0                       	testl	%eax, %eax
100004889: 0f 84 c1 00 00 00           	je	193 <_rotate+0x1d0>
10000488f: 90                          	nop
100004890: 83 f8 02                    	cmpl	$2, %eax
100004893: 74 7b                       	je	123 <_rotate+0x190>
100004895: 83 f8 01                    	cmpl	$1, %eax
100004898: 0f 85 c2 00 00 00           	jne	194 <_rotate+0x1e0>
10000489e: 80 3b 01                    	cmpb	$1, (%rbx)
1000048a1: 0f 85 b9 00 00 00           	jne	185 <_rotate+0x1e0>
1000048a7: 4c 8b 63 18                 	movq	24(%rbx), %r12
1000048ab: 49 8d 74 24 40              	leaq	64(%r12), %rsi
1000048b0: f2 41 0f 10 44 24 40        	movsd	64(%r12), %xmm0
1000048b7: f2 0f 58 45 c0              	addsd	-64(%rbp), %xmm0
1000048bc: f2 41 0f 11 44 24 40        	movsd	%xmm0, 64(%r12)
1000048c3: f2 41 0f 10 44 24 50        	movsd	80(%r12), %xmm0
1000048ca: f2 0f 58 45 c8              	addsd	-56(%rbp), %xmm0
1000048cf: f2 41 0f 11 44 24 50        	movsd	%xmm0, 80(%r12)
1000048d6: 4c 89 f7                    	movq	%r14, %rdi
1000048d9: e8 f2 44 00 00              	callq	17650 <_normalize>
1000048de: 49 8b 74 24 78              	movq	120(%r12), %rsi
1000048e3: 4c 89 e7                    	movq	%r12, %rdi
1000048e6: ba 01 00 00 00              	movl	$1, %edx
1000048eb: e8 30 cd ff ff              	callq	-13008 <_calculate_disk_plan>
1000048f0: 49 8b 44 24 78              	movq	120(%r12), %rax
1000048f5: 48 8b 70 28                 	movq	40(%rax), %rsi
1000048f9: 4c 89 e7                    	movq	%r12, %rdi
1000048fc: 31 d2                       	xorl	%edx, %edx
1000048fe: e8 1d cd ff ff              	callq	-13027 <_calculate_disk_plan>
100004903: eb 5b                       	jmp	91 <_rotate+0x1e0>
100004905: 66 2e 0f 1f 84 00 00 00 00 00       	nopw	%cs:(%rax,%rax)
10000490f: 90                          	nop
100004910: 80 3b 02                    	cmpb	$2, (%rbx)
100004913: 75 4b                       	jne	75 <_rotate+0x1e0>
100004915: 48 8b 43 18                 	movq	24(%rbx), %rax
100004919: f2 0f 10 40 40              	movsd	64(%rax), %xmm0
10000491e: f2 0f 58 45 b8              	addsd	-72(%rbp), %xmm0
100004923: f2 0f 11 40 40              	movsd	%xmm0, 64(%rax)
100004928: f2 0f 10 40 48              	movsd	72(%rax), %xmm0
10000492d: f2 0f 58 45 b0              	addsd	-80(%rbp), %xmm0
100004932: f2 0f 11 40 48              	movsd	%xmm0, 72(%rax)
100004937: 48 8d 70 40                 	leaq	64(%rax), %rsi
10000493b: 4c 89 f7                    	movq	%r14, %rdi
10000493e: e8 8d 44 00 00              	callq	17549 <_normalize>
100004943: eb 1b                       	jmp	27 <_rotate+0x1e0>
100004945: 66 2e 0f 1f 84 00 00 00 00 00       	nopw	%cs:(%rax,%rax)
10000494f: 90                          	nop
100004950: 80 3b 00                    	cmpb	$0, (%rbx)
100004953: 74 25                       	je	37 <_rotate+0x1fa>
100004955: 66 2e 0f 1f 84 00 00 00 00 00       	nopw	%cs:(%rax,%rax)
10000495f: 90                          	nop
100004960: 48 8b 5b 28                 	movq	40(%rbx), %rbx
100004964: 48 85 db                    	testq	%rbx, %rbx
100004967: 74 52                       	je	82 <_rotate+0x23b>
100004969: 41 8b 87 3c 01 00 00        	movl	316(%r15), %eax
100004970: 85 c0                       	testl	%eax, %eax
100004972: 0f 85 18 ff ff ff           	jne	-232 <_rotate+0x110>
100004978: eb d6                       	jmp	-42 <_rotate+0x1d0>
10000497a: 48 83 7b 08 00              	cmpq	$0, 8(%rbx)
10000497f: 74 df                       	je	-33 <_rotate+0x1e0>
100004981: 48 8b 43 18                 	movq	24(%rbx), %rax
100004985: 48 83 78 30 00              	cmpq	$0, 48(%rax)
10000498a: 74 d4                       	je	-44 <_rotate+0x1e0>
10000498c: f2 0f 10 40 68              	movsd	104(%rax), %xmm0
100004991: f2 0f 10 0d 0f c5 00 00     	movsd	50447(%rip), %xmm1
100004999: 66 0f 2e c8                 	ucomisd	%xmm0, %xmm1
10000499d: 76 16                       	jbe	22 <_rotate+0x235>
10000499f: 66 0f 2e 05 09 c5 00 00     	ucomisd	50441(%rip), %xmm0
1000049a7: 76 0c                       	jbe	12 <_rotate+0x235>
1000049a9: f2 0f 58 45 d0              	addsd	-48(%rbp), %xmm0
1000049ae: f2 0f 11 40 68              	movsd	%xmm0, 104(%rax)
1000049b3: eb ab                       	jmp	-85 <_rotate+0x1e0>
1000049b5: 4c 89 68 68                 	movq	%r13, 104(%rax)
1000049b9: eb a5                       	jmp	-91 <_rotate+0x1e0>
1000049bb: 49 8d 7f 28                 	leaq	40(%r15), %rdi
1000049bf: e8 0c fa ff ff              	callq	-1524 <_lookat>
1000049c4: 49 8b 87 30 01 00 00        	movq	304(%r15), %rax
1000049cb: b9 30 00 00 00              	movl	$48, %ecx
1000049d0: 48 89 e7                    	movq	%rsp, %rdi
1000049d3: 4c 89 fe                    	movq	%r15, %rsi
1000049d6: f3 48 a5                    	rep		movsq	(%rsi), %es:(%rdi)
1000049d9: 48 89 c7                    	movq	%rax, %rdi
1000049dc: e8 0f f5 ff ff              	callq	-2801 <_make_threads>
1000049e1: 48 81 c4 c8 01 00 00        	addq	$456, %rsp
1000049e8: 5b                          	popq	%rbx
1000049e9: 41 5c                       	popq	%r12
1000049eb: 41 5d                       	popq	%r13
1000049ed: 41 5e                       	popq	%r14
1000049ef: 41 5f                       	popq	%r15
1000049f1: 5d                          	popq	%rbp
1000049f2: c3                          	retq
1000049f3: 66 0f 57 c9                 	xorpd	%xmm1, %xmm1
1000049f7: 66 0f 28 d0                 	movapd	%xmm0, %xmm2
1000049fb: 83 ff 26                    	cmpl	$38, %edi
1000049fe: 0f 84 fc fd ff ff           	je	-516 <_rotate+0x80>
100004a04: 66 0f 57 d2                 	xorpd	%xmm2, %xmm2
100004a08: 66 0f 28 d8                 	movapd	%xmm0, %xmm3
100004a0c: 83 ff 22                    	cmpl	$34, %edi
100004a0f: 0f 85 f4 fd ff ff           	jne	-524 <_rotate+0x89>
100004a15: e9 f3 fd ff ff              	jmp	-525 <_rotate+0x8d>
100004a1a: 90                          	nop
100004a1b: 90                          	nop
100004a1c: 90                          	nop
100004a1d: 90                          	nop
100004a1e: 90                          	nop
100004a1f: 90                          	nop

0000000100004a20 _sphere_scale:
100004a20: 55                          	pushq	%rbp
100004a21: 48 89 e5                    	movq	%rsp, %rbp
100004a24: 48 8b 86 20 01 00 00        	movq	288(%rsi), %rax
100004a2b: 48 85 c0                    	testq	%rax, %rax
100004a2e: 74 52                       	je	82 <_sphere_scale+0x62>
100004a30: f2 0f 10 0d 30 c4 00 00     	movsd	50224(%rip), %xmm1
100004a38: 66 0f 28 c1                 	movapd	%xmm1, %xmm0
100004a3c: 83 ff 18                    	cmpl	$24, %edi
100004a3f: 74 04                       	je	4 <_sphere_scale+0x25>
100004a41: 66 0f 57 c0                 	xorpd	%xmm0, %xmm0
100004a45: 83 ff 1b                    	cmpl	$27, %edi
100004a48: 74 04                       	je	4 <_sphere_scale+0x2e>
100004a4a: 66 0f 57 c9                 	xorpd	%xmm1, %xmm1
100004a4e: f2 0f 5c c1                 	subsd	%xmm1, %xmm0
100004a52: f2 0f 59 05 46 c4 00 00     	mulsd	50246(%rip), %xmm0
100004a5a: eb 0d                       	jmp	13 <_sphere_scale+0x49>
100004a5c: 0f 1f 40 00                 	nopl	(%rax)
100004a60: 48 8b 40 28                 	movq	40(%rax), %rax
100004a64: 48 85 c0                    	testq	%rax, %rax
100004a67: 74 19                       	je	25 <_sphere_scale+0x62>
100004a69: 80 38 00                    	cmpb	$0, (%rax)
100004a6c: 75 f2                       	jne	-14 <_sphere_scale+0x40>
100004a6e: 48 8b 48 18                 	movq	24(%rax), %rcx
100004a72: f2 0f 10 49 60              	movsd	96(%rcx), %xmm1
100004a77: f2 0f 58 c8                 	addsd	%xmm0, %xmm1
100004a7b: f2 0f 11 49 60              	movsd	%xmm1, 96(%rcx)
100004a80: eb de                       	jmp	-34 <_sphere_scale+0x40>
100004a82: 5d                          	popq	%rbp
100004a83: c3                          	retq
100004a84: 66 2e 0f 1f 84 00 00 00 00 00       	nopw	%cs:(%rax,%rax)
100004a8e: 66 90                       	nop

0000000100004a90 _cy_scale:
100004a90: 55                          	pushq	%rbp
100004a91: 48 89 e5                    	movq	%rsp, %rbp
100004a94: 41 56                       	pushq	%r14
100004a96: 53                          	pushq	%rbx
100004a97: 48 83 ec 10                 	subq	$16, %rsp
100004a9b: 48 8b 9e 20 01 00 00        	movq	288(%rsi), %rbx
100004aa2: 48 85 db                    	testq	%rbx, %rbx
100004aa5: 0f 84 83 00 00 00           	je	131 <_cy_scale+0x9e>
100004aab: f2 0f 10 05 b5 c3 00 00     	movsd	50101(%rip), %xmm0
100004ab3: 66 0f 28 c8                 	movapd	%xmm0, %xmm1
100004ab7: 83 ff 18                    	cmpl	$24, %edi
100004aba: 74 04                       	je	4 <_cy_scale+0x30>
100004abc: 66 0f 57 c9                 	xorpd	%xmm1, %xmm1
100004ac0: 83 ff 1b                    	cmpl	$27, %edi
100004ac3: 74 04                       	je	4 <_cy_scale+0x39>
100004ac5: 66 0f 57 c0                 	xorpd	%xmm0, %xmm0
100004ac9: f2 0f 5c c8                 	subsd	%xmm0, %xmm1
100004acd: f2 0f 59 0d cb c3 00 00     	mulsd	50123(%rip), %xmm1
100004ad5: f2 0f 11 4d e8              	movsd	%xmm1, -24(%rbp)
100004ada: eb 0d                       	jmp	13 <_cy_scale+0x59>
100004adc: 0f 1f 40 00                 	nopl	(%rax)
100004ae0: 48 8b 5b 28                 	movq	40(%rbx), %rbx
100004ae4: 48 85 db                    	testq	%rbx, %rbx
100004ae7: 74 45                       	je	69 <_cy_scale+0x9e>
100004ae9: 80 3b 01                    	cmpb	$1, (%rbx)
100004aec: 75 f2                       	jne	-14 <_cy_scale+0x50>
100004aee: 4c 8b 73 18                 	movq	24(%rbx), %r14
100004af2: f2 41 0f 10 86 88 00 00 00  	movsd	136(%r14), %xmm0
100004afb: f2 0f 58 45 e8              	addsd	-24(%rbp), %xmm0
100004b00: f2 41 0f 11 86 88 00 00 00  	movsd	%xmm0, 136(%r14)
100004b09: 49 8b 76 78                 	movq	120(%r14), %rsi
100004b0d: 4c 89 f7                    	movq	%r14, %rdi
100004b10: ba 01 00 00 00              	movl	$1, %edx
100004b15: e8 06 cb ff ff              	callq	-13562 <_calculate_disk_plan>
100004b1a: 49 8b 46 78                 	movq	120(%r14), %rax
100004b1e: 48 8b 70 28                 	movq	40(%rax), %rsi
100004b22: 4c 89 f7                    	movq	%r14, %rdi
100004b25: 31 d2                       	xorl	%edx, %edx
100004b27: e8 f4 ca ff ff              	callq	-13580 <_calculate_disk_plan>
100004b2c: eb b2                       	jmp	-78 <_cy_scale+0x50>
100004b2e: 48 83 c4 10                 	addq	$16, %rsp
100004b32: 5b                          	popq	%rbx
100004b33: 41 5e                       	popq	%r14
100004b35: 5d                          	popq	%rbp
100004b36: c3                          	retq
100004b37: 66 0f 1f 84 00 00 00 00 00  	nopw	(%rax,%rax)

0000000100004b40 _shape_scale:
100004b40: 55                          	pushq	%rbp
100004b41: 48 89 e5                    	movq	%rsp, %rbp
100004b44: 80 3d 15 b1 02 00 00        	cmpb	$0, 176405(%rip)
100004b4b: 75 23                       	jne	35 <_shape_scale+0x30>
100004b4d: c6 05 0c b1 02 00 01        	movb	$1, 176396(%rip)
100004b54: 48 8d 05 c5 fe ff ff        	leaq	-315(%rip), %rax
100004b5b: 48 89 05 ee b0 02 00        	movq	%rax, 176366(%rip)
100004b62: 48 8d 05 27 ff ff ff        	leaq	-217(%rip), %rax
100004b69: 48 89 05 e8 b0 02 00        	movq	%rax, 176360(%rip)
100004b70: 48 63 c7                    	movslq	%edi, %rax
100004b73: 48 8d 0d d6 b0 02 00        	leaq	176342(%rip), %rcx
100004b7a: 48 8b 04 c1                 	movq	(%rcx,%rax,8), %rax
100004b7e: 5d                          	popq	%rbp
100004b7f: c3                          	retq

0000000100004b80 _scale:
100004b80: 55                          	pushq	%rbp
100004b81: 48 89 e5                    	movq	%rsp, %rbp
100004b84: 41 56                       	pushq	%r14
100004b86: 53                          	pushq	%rbx
100004b87: 48 81 ec 80 01 00 00        	subq	$384, %rsp
100004b8e: 48 89 f3                    	movq	%rsi, %rbx
100004b91: 44 8b b6 3c 01 00 00        	movl	316(%rsi), %r14d
100004b98: 80 3d c1 b0 02 00 00        	cmpb	$0, 176321(%rip)
100004b9f: 75 23                       	jne	35 <_scale+0x44>
100004ba1: c6 05 b8 b0 02 00 01        	movb	$1, 176312(%rip)
100004ba8: 48 8d 05 71 fe ff ff        	leaq	-399(%rip), %rax
100004baf: 48 89 05 9a b0 02 00        	movq	%rax, 176282(%rip)
100004bb6: 48 8d 05 d3 fe ff ff        	leaq	-301(%rip), %rax
100004bbd: 48 89 05 94 b0 02 00        	movq	%rax, 176276(%rip)
100004bc4: 31 c0                       	xorl	%eax, %eax
100004bc6: 41 83 fe 01                 	cmpl	$1, %r14d
100004bca: 0f 94 c0                    	sete	%al
100004bcd: 48 8d 0d 7c b0 02 00        	leaq	176252(%rip), %rcx
100004bd4: 48 89 de                    	movq	%rbx, %rsi
100004bd7: ff 14 c1                    	callq	*(%rcx,%rax,8)
100004bda: 41 83 fe 01                 	cmpl	$1, %r14d
100004bde: 75 08                       	jne	8 <_scale+0x68>
100004be0: 83 7b 14 00                 	cmpl	$0, 20(%rbx)
100004be4: 75 08                       	jne	8 <_scale+0x6e>
100004be6: eb 23                       	jmp	35 <_scale+0x8b>
100004be8: 83 7b 10 00                 	cmpl	$0, 16(%rbx)
100004bec: 74 1d                       	je	29 <_scale+0x8b>
100004bee: 48 8b 83 30 01 00 00        	movq	304(%rbx), %rax
100004bf5: b9 30 00 00 00              	movl	$48, %ecx
100004bfa: 48 89 e7                    	movq	%rsp, %rdi
100004bfd: 48 89 de                    	movq	%rbx, %rsi
100004c00: f3 48 a5                    	rep		movsq	(%rsi), %es:(%rdi)
100004c03: 48 89 c7                    	movq	%rax, %rdi
100004c06: e8 e5 f2 ff ff              	callq	-3355 <_make_threads>
100004c0b: 48 81 c4 80 01 00 00        	addq	$384, %rsp
100004c12: 5b                          	popq	%rbx
100004c13: 41 5e                       	popq	%r14
100004c15: 5d                          	popq	%rbp
100004c16: c3                          	retq
100004c17: 90                          	nop
100004c18: 90                          	nop
100004c19: 90                          	nop
100004c1a: 90                          	nop
100004c1b: 90                          	nop
100004c1c: 90                          	nop
100004c1d: 90                          	nop
100004c1e: 90                          	nop
100004c1f: 90                          	nop

0000000100004c20 _merge_light:
100004c20: 55                          	pushq	%rbp
100004c21: 48 89 e5                    	movq	%rsp, %rbp
100004c24: 53                          	pushq	%rbx
100004c25: 50                          	pushq	%rax
100004c26: 89 f0                       	movl	%esi, %eax
100004c28: 0f b6 c8                    	movzbl	%al, %ecx
100004c2b: f2 0f 2a c9                 	cvtsi2sd	%ecx, %xmm1
100004c2f: f2 0f 59 05 81 c2 00 00     	mulsd	49793(%rip), %xmm0
100004c37: 48 89 fb                    	movq	%rdi, %rbx
100004c3a: f2 0f 59 c8                 	mulsd	%xmm0, %xmm1
100004c3e: f2 0f 59 4d 10              	mulsd	16(%rbp), %xmm1
100004c43: 0f b6 cc                    	movzbl	%ah, %ecx
100004c46: f2 0f 11 0f                 	movsd	%xmm1, (%rdi)
100004c4a: 0f 57 c9                    	xorps	%xmm1, %xmm1
100004c4d: f2 0f 2a c9                 	cvtsi2sd	%ecx, %xmm1
100004c51: c1 e8 10                    	shrl	$16, %eax
100004c54: f2 0f 59 c8                 	mulsd	%xmm0, %xmm1
100004c58: f2 0f 59 4d 18              	mulsd	24(%rbp), %xmm1
100004c5d: f2 0f 11 4f 08              	movsd	%xmm1, 8(%rdi)
100004c62: 0f b6 c0                    	movzbl	%al, %eax
100004c65: 0f 57 c9                    	xorps	%xmm1, %xmm1
100004c68: f2 0f 2a c8                 	cvtsi2sd	%eax, %xmm1
100004c6c: f2 0f 59 c8                 	mulsd	%xmm0, %xmm1
100004c70: f2 0f 59 4d 20              	mulsd	32(%rbp), %xmm1
100004c75: f2 0f 11 4f 10              	movsd	%xmm1, 16(%rdi)
100004c7a: e8 61 08 00 00              	callq	2145 <_color_range_norm>
100004c7f: 48 89 d8                    	movq	%rbx, %rax
100004c82: 48 83 c4 08                 	addq	$8, %rsp
100004c86: 5b                          	popq	%rbx
100004c87: 5d                          	popq	%rbp
100004c88: c3                          	retq
100004c89: 0f 1f 80 00 00 00 00        	nopl	(%rax)

0000000100004c90 _diffuse_effect:
100004c90: 55                          	pushq	%rbp
100004c91: 48 89 e5                    	movq	%rsp, %rbp
100004c94: 41 57                       	pushq	%r15
100004c96: 41 56                       	pushq	%r14
100004c98: 53                          	pushq	%rbx
100004c99: 48 83 ec 18                 	subq	$24, %rsp
100004c9d: 48 89 cb                    	movq	%rcx, %rbx
100004ca0: 49 89 d6                    	movq	%rdx, %r14
100004ca3: 49 89 ff                    	movq	%rdi, %r15
100004ca6: 48 8b 41 30                 	movq	48(%rcx), %rax
100004caa: 48 8b 49 20                 	movq	32(%rcx), %rcx
100004cae: 48 8b 53 28                 	movq	40(%rbx), %rdx
100004cb2: 48 8b 7e 58                 	movq	88(%rsi), %rdi
100004cb6: 4c 8b 46 48                 	movq	72(%rsi), %r8
100004cba: 48 8b 76 50                 	movq	80(%rsi), %rsi
100004cbe: 50                          	pushq	%rax
100004cbf: 52                          	pushq	%rdx
100004cc0: 51                          	pushq	%rcx
100004cc1: 57                          	pushq	%rdi
100004cc2: 56                          	pushq	%rsi
100004cc3: 41 50                       	pushq	%r8
100004cc5: e8 f6 41 00 00              	callq	16886 <_dot_product>
100004cca: 48 83 c4 30                 	addq	$48, %rsp
100004cce: 48 8b 43 38                 	movq	56(%rbx), %rax
100004cd2: 48 8b 4b 40                 	movq	64(%rbx), %rcx
100004cd6: 49 89 07                    	movq	%rax, (%r15)
100004cd9: 49 89 4f 08                 	movq	%rcx, 8(%r15)
100004cdd: 48 8b 43 48                 	movq	72(%rbx), %rax
100004ce1: 49 89 47 10                 	movq	%rax, 16(%r15)
100004ce5: 41 0f b7 0e                 	movzwl	(%r14), %ecx
100004ce9: 41 0f b6 46 02              	movzbl	2(%r14), %eax
100004cee: c1 e0 10                    	shll	$16, %eax
100004cf1: 09 c8                       	orl	%ecx, %eax
100004cf3: 0f b6 c8                    	movzbl	%al, %ecx
100004cf6: 0f b6 d4                    	movzbl	%ah, %edx
100004cf9: f2 0f 2a c9                 	cvtsi2sd	%ecx, %xmm1
100004cfd: f2 0f 59 05 b3 c1 00 00     	mulsd	49587(%rip), %xmm0
100004d05: c1 e8 10                    	shrl	$16, %eax
100004d08: f2 41 0f 59 46 08           	mulsd	8(%r14), %xmm0
100004d0e: f2 41 0f 10 17              	movsd	(%r15), %xmm2
100004d13: f2 0f 59 d0                 	mulsd	%xmm0, %xmm2
100004d17: f2 0f 59 d1                 	mulsd	%xmm1, %xmm2
100004d1b: 0f 57 c9                    	xorps	%xmm1, %xmm1
100004d1e: f2 0f 2a ca                 	cvtsi2sd	%edx, %xmm1
100004d22: f2 41 0f 10 5f 08           	movsd	8(%r15), %xmm3
100004d28: 66 41 0f 16 4f 10           	movhpd	16(%r15), %xmm1
100004d2e: f2 0f 11 55 d0              	movsd	%xmm2, -48(%rbp)
100004d33: 0f b6 c0                    	movzbl	%al, %eax
100004d36: 0f 57 d2                    	xorps	%xmm2, %xmm2
100004d39: f2 0f 2a d0                 	cvtsi2sd	%eax, %xmm2
100004d3d: 66 0f 14 da                 	unpcklpd	%xmm2, %xmm3
100004d41: f2 0f 12 c0                 	movddup	%xmm0, %xmm0
100004d45: 66 0f 59 c3                 	mulpd	%xmm3, %xmm0
100004d49: 66 0f 59 c1                 	mulpd	%xmm1, %xmm0
100004d4d: 66 0f 11 45 d8              	movupd	%xmm0, -40(%rbp)
100004d52: 48 8d 7d d0                 	leaq	-48(%rbp), %rdi
100004d56: e8 85 07 00 00              	callq	1925 <_color_range_norm>
100004d5b: 48 8b 45 e0                 	movq	-32(%rbp), %rax
100004d5f: 49 89 47 10                 	movq	%rax, 16(%r15)
100004d63: 48 8b 45 d0                 	movq	-48(%rbp), %rax
100004d67: 48 8b 4d d8                 	movq	-40(%rbp), %rcx
100004d6b: 49 89 4f 08                 	movq	%rcx, 8(%r15)
100004d6f: 49 89 07                    	movq	%rax, (%r15)
100004d72: 4c 89 f8                    	movq	%r15, %rax
100004d75: 48 83 c4 18                 	addq	$24, %rsp
100004d79: 5b                          	popq	%rbx
100004d7a: 41 5e                       	popq	%r14
100004d7c: 41 5f                       	popq	%r15
100004d7e: 5d                          	popq	%rbp
100004d7f: c3                          	retq

0000000100004d80 _is_specular:
100004d80: 55                          	pushq	%rbp
100004d81: 48 89 e5                    	movq	%rsp, %rbp
100004d84: 48 83 ec 40                 	subq	$64, %rsp
100004d88: 48 89 fe                    	movq	%rdi, %rsi
100004d8b: 48 8d 7d c0                 	leaq	-64(%rbp), %rdi
100004d8f: e8 8c 1c 00 00              	callq	7308 <_get_specular_addr>
100004d94: f2 0f 2c 45 c0              	cvttsd2si	-64(%rbp), %eax
100004d99: f2 0f 2c 4d e8              	cvttsd2si	-24(%rbp), %ecx
100004d9e: 09 c1                       	orl	%eax, %ecx
100004da0: 0f 94 c0                    	sete	%al
100004da3: 48 83 c4 40                 	addq	$64, %rsp
100004da7: 5d                          	popq	%rbp
100004da8: c3                          	retq
100004da9: 0f 1f 80 00 00 00 00        	nopl	(%rax)

0000000100004db0 _get_light_effect:
100004db0: 55                          	pushq	%rbp
100004db1: 48 89 e5                    	movq	%rsp, %rbp
100004db4: 41 57                       	pushq	%r15
100004db6: 41 56                       	pushq	%r14
100004db8: 41 55                       	pushq	%r13
100004dba: 41 54                       	pushq	%r12
100004dbc: 53                          	pushq	%rbx
100004dbd: 48 81 ec f8 00 00 00        	subq	$248, %rsp
100004dc4: 4d 89 c7                    	movq	%r8, %r15
100004dc7: 48 89 4d a8                 	movq	%rcx, -88(%rbp)
100004dcb: 48 89 55 d0                 	movq	%rdx, -48(%rbp)
100004dcf: 49 89 f6                    	movq	%rsi, %r14
100004dd2: 48 89 fb                    	movq	%rdi, %rbx
100004dd5: 4c 8b a6 28 01 00 00        	movq	296(%rsi), %r12
100004ddc: ba 60 00 00 00              	movl	$96, %edx
100004de1: 31 f6                       	xorl	%esi, %esi
100004de3: e8 68 49 00 00              	callq	18792 <_ft_memset>
100004de8: 49 8b 47 38                 	movq	56(%r15), %rax
100004dec: 49 8b 4f 40                 	movq	64(%r15), %rcx
100004df0: 48 89 03                    	movq	%rax, (%rbx)
100004df3: 48 89 4b 08                 	movq	%rcx, 8(%rbx)
100004df7: 49 8b 47 48                 	movq	72(%r15), %rax
100004dfb: 48 89 43 10                 	movq	%rax, 16(%rbx)
100004dff: 41 0f b7 0e                 	movzwl	(%r14), %ecx
100004e03: 41 0f b6 46 02              	movzbl	2(%r14), %eax
100004e08: c1 e0 10                    	shll	$16, %eax
100004e0b: 09 c8                       	orl	%ecx, %eax
100004e0d: 0f b6 c8                    	movzbl	%al, %ecx
100004e10: 0f b6 d4                    	movzbl	%ah, %edx
100004e13: 4c 89 b5 40 ff ff ff        	movq	%r14, -192(%rbp)
100004e1a: f2 41 0f 10 46 08           	movsd	8(%r14), %xmm0
100004e20: f2 0f 2a c9                 	cvtsi2sd	%ecx, %xmm1
100004e24: c1 e8 10                    	shrl	$16, %eax
100004e27: f2 0f 59 05 89 c0 00 00     	mulsd	49289(%rip), %xmm0
100004e2f: f2 0f 10 13                 	movsd	(%rbx), %xmm2
100004e33: f2 0f 59 d0                 	mulsd	%xmm0, %xmm2
100004e37: f2 0f 59 d1                 	mulsd	%xmm1, %xmm2
100004e3b: 0f 57 c9                    	xorps	%xmm1, %xmm1
100004e3e: f2 0f 2a ca                 	cvtsi2sd	%edx, %xmm1
100004e42: f2 0f 10 5b 08              	movsd	8(%rbx), %xmm3
100004e47: 66 0f 16 4b 10              	movhpd	16(%rbx), %xmm1
100004e4c: f2 0f 11 95 68 ff ff ff     	movsd	%xmm2, -152(%rbp)
100004e54: 0f b6 c0                    	movzbl	%al, %eax
100004e57: 0f 57 d2                    	xorps	%xmm2, %xmm2
100004e5a: f2 0f 2a d0                 	cvtsi2sd	%eax, %xmm2
100004e5e: 66 0f 14 da                 	unpcklpd	%xmm2, %xmm3
100004e62: f2 0f 12 c0                 	movddup	%xmm0, %xmm0
100004e66: 66 0f 59 c3                 	mulpd	%xmm3, %xmm0
100004e6a: 66 0f 59 c1                 	mulpd	%xmm1, %xmm0
100004e6e: 66 0f 11 85 70 ff ff ff     	movupd	%xmm0, -144(%rbp)
100004e76: 48 8d bd 68 ff ff ff        	leaq	-152(%rbp), %rdi
100004e7d: e8 5e 06 00 00              	callq	1630 <_color_range_norm>
100004e82: 48 8b 85 78 ff ff ff        	movq	-136(%rbp), %rax
100004e89: 48 89 43 10                 	movq	%rax, 16(%rbx)
100004e8d: 48 8b 85 68 ff ff ff        	movq	-152(%rbp), %rax
100004e94: 48 8b 8d 70 ff ff ff        	movq	-144(%rbp), %rcx
100004e9b: 48 89 4b 08                 	movq	%rcx, 8(%rbx)
100004e9f: 48 89 5d b0                 	movq	%rbx, -80(%rbp)
100004ea3: 48 89 03                    	movq	%rax, (%rbx)
100004ea6: 4d 85 e4                    	testq	%r12, %r12
100004ea9: 0f 84 b7 02 00 00           	je	695 <_get_light_effect+0x3b6>
100004eaf: 49 8d 47 38                 	leaq	56(%r15), %rax
100004eb3: 48 89 85 48 ff ff ff        	movq	%rax, -184(%rbp)
100004eba: 48 8b 45 d0                 	movq	-48(%rbp), %rax
100004ebe: 48 83 c0 48                 	addq	$72, %rax
100004ec2: 48 89 85 50 ff ff ff        	movq	%rax, -176(%rbp)
100004ec9: 49 8d 47 20                 	leaq	32(%r15), %rax
100004ecd: 48 89 85 58 ff ff ff        	movq	%rax, -168(%rbp)
100004ed4: 48 8b 45 b0                 	movq	-80(%rbp), %rax
100004ed8: 4c 8d 70 18                 	leaq	24(%rax), %r14
100004edc: 48 83 c0 30                 	addq	$48, %rax
100004ee0: 48 89 85 60 ff ff ff        	movq	%rax, -160(%rbp)
100004ee7: eb 15                       	jmp	21 <_get_light_effect+0x14e>
100004ee9: 0f 1f 80 00 00 00 00        	nopl	(%rax)
100004ef0: 4d 8b 64 24 28              	movq	40(%r12), %r12
100004ef5: 4d 85 e4                    	testq	%r12, %r12
100004ef8: 0f 84 68 02 00 00           	je	616 <_get_light_effect+0x3b6>
100004efe: 48 8b 85 40 ff ff ff        	movq	-192(%rbp), %rax
100004f05: 48 8b 90 20 01 00 00        	movq	288(%rax), %rdx
100004f0c: 48 8b 7d d0                 	movq	-48(%rbp), %rdi
100004f10: 4c 89 e6                    	movq	%r12, %rsi
100004f13: 4c 89 f9                    	movq	%r15, %rcx
100004f16: e8 15 0b 00 00              	callq	2837 <_shadow_ray>
100004f1b: 84 c0                       	testb	%al, %al
100004f1d: 75 d1                       	jne	-47 <_get_light_effect+0x140>
100004f1f: 48 8b 95 58 ff ff ff        	movq	-168(%rbp), %rdx
100004f26: 48 8b 42 10                 	movq	16(%rdx), %rax
100004f2a: 48 8b 0a                    	movq	(%rdx), %rcx
100004f2d: 48 8b 52 08                 	movq	8(%rdx), %rdx
100004f31: 48 8b 9d 50 ff ff ff        	movq	-176(%rbp), %rbx
100004f38: 48 8b 73 10                 	movq	16(%rbx), %rsi
100004f3c: 48 8b 3b                    	movq	(%rbx), %rdi
100004f3f: 48 8b 5b 08                 	movq	8(%rbx), %rbx
100004f43: 50                          	pushq	%rax
100004f44: 52                          	pushq	%rdx
100004f45: 51                          	pushq	%rcx
100004f46: 56                          	pushq	%rsi
100004f47: 53                          	pushq	%rbx
100004f48: 57                          	pushq	%rdi
100004f49: e8 72 3f 00 00              	callq	16242 <_dot_product>
100004f4e: 48 83 c4 30                 	addq	$48, %rsp
100004f52: 48 8b 8d 48 ff ff ff        	movq	-184(%rbp), %rcx
100004f59: 48 8b 41 10                 	movq	16(%rcx), %rax
100004f5d: 48 89 45 c8                 	movq	%rax, -56(%rbp)
100004f61: 48 8b 01                    	movq	(%rcx), %rax
100004f64: 48 8b 49 08                 	movq	8(%rcx), %rcx
100004f68: 48 89 4d c0                 	movq	%rcx, -64(%rbp)
100004f6c: 48 89 45 b8                 	movq	%rax, -72(%rbp)
100004f70: 41 0f b7 0c 24              	movzwl	(%r12), %ecx
100004f75: 41 0f b6 44 24 02           	movzbl	2(%r12), %eax
100004f7b: c1 e0 10                    	shll	$16, %eax
100004f7e: 09 c8                       	orl	%ecx, %eax
100004f80: 0f b6 c8                    	movzbl	%al, %ecx
100004f83: 0f b6 d4                    	movzbl	%ah, %edx
100004f86: c1 e8 10                    	shrl	$16, %eax
100004f89: 0f 57 c9                    	xorps	%xmm1, %xmm1
100004f8c: f2 0f 2a c9                 	cvtsi2sd	%ecx, %xmm1
100004f90: f2 0f 59 05 20 bf 00 00     	mulsd	48928(%rip), %xmm0
100004f98: f2 41 0f 59 44 24 08        	mulsd	8(%r12), %xmm0
100004f9f: f2 0f 10 55 b8              	movsd	-72(%rbp), %xmm2
100004fa4: f2 0f 59 d0                 	mulsd	%xmm0, %xmm2
100004fa8: f2 0f 59 d1                 	mulsd	%xmm1, %xmm2
100004fac: 0f 57 c9                    	xorps	%xmm1, %xmm1
100004faf: f2 0f 2a ca                 	cvtsi2sd	%edx, %xmm1
100004fb3: f2 0f 11 95 68 ff ff ff     	movsd	%xmm2, -152(%rbp)
100004fbb: 0f b6 c0                    	movzbl	%al, %eax
100004fbe: 0f 57 d2                    	xorps	%xmm2, %xmm2
100004fc1: f2 0f 2a d0                 	cvtsi2sd	%eax, %xmm2
100004fc5: f2 0f 10 5d c0              	movsd	-64(%rbp), %xmm3
100004fca: 66 0f 14 da                 	unpcklpd	%xmm2, %xmm3
100004fce: f2 0f 12 c0                 	movddup	%xmm0, %xmm0
100004fd2: 66 0f 59 c3                 	mulpd	%xmm3, %xmm0
100004fd6: 66 0f 16 4d c8              	movhpd	-56(%rbp), %xmm1
100004fdb: 66 0f 59 c8                 	mulpd	%xmm0, %xmm1
100004fdf: 66 0f 11 8d 70 ff ff ff     	movupd	%xmm1, -144(%rbp)
100004fe7: 4c 8d ad 68 ff ff ff        	leaq	-152(%rbp), %r13
100004fee: 4c 89 ef                    	movq	%r13, %rdi
100004ff1: e8 ea 04 00 00              	callq	1258 <_color_range_norm>
100004ff6: 48 8b 85 78 ff ff ff        	movq	-136(%rbp), %rax
100004ffd: 48 89 45 c8                 	movq	%rax, -56(%rbp)
100005001: 48 8b 85 68 ff ff ff        	movq	-152(%rbp), %rax
100005008: 48 8b 8d 70 ff ff ff        	movq	-144(%rbp), %rcx
10000500f: 48 89 4d c0                 	movq	%rcx, -64(%rbp)
100005013: 48 89 45 b8                 	movq	%rax, -72(%rbp)
100005017: 48 8b 45 c8                 	movq	-56(%rbp), %rax
10000501b: 4c 8b 45 b8                 	movq	-72(%rbp), %r8
10000501f: 48 8b 55 c0                 	movq	-64(%rbp), %rdx
100005023: 49 8b 76 10                 	movq	16(%r14), %rsi
100005027: 49 8b 1e                    	movq	(%r14), %rbx
10000502a: 49 8b 4e 08                 	movq	8(%r14), %rcx
10000502e: 4c 89 ef                    	movq	%r13, %rdi
100005031: f2 0f 10 05 2f be 00 00     	movsd	48687(%rip), %xmm0
100005039: 66 0f 28 c8                 	movapd	%xmm0, %xmm1
10000503d: 50                          	pushq	%rax
10000503e: 52                          	pushq	%rdx
10000503f: 41 50                       	pushq	%r8
100005041: 56                          	pushq	%rsi
100005042: 51                          	pushq	%rcx
100005043: 53                          	pushq	%rbx
100005044: e8 67 05 00 00              	callq	1383 <_c_color>
100005049: 48 83 c4 30                 	addq	$48, %rsp
10000504d: 48 8b 85 78 ff ff ff        	movq	-136(%rbp), %rax
100005054: 49 89 46 10                 	movq	%rax, 16(%r14)
100005058: 48 8b 85 68 ff ff ff        	movq	-152(%rbp), %rax
10000505f: 48 8b 8d 70 ff ff ff        	movq	-144(%rbp), %rcx
100005066: 49 89 4e 08                 	movq	%rcx, 8(%r14)
10000506a: 49 89 06                    	movq	%rax, (%r14)
10000506d: 4c 89 ef                    	movq	%r13, %rdi
100005070: 48 8b 75 a8                 	movq	-88(%rbp), %rsi
100005074: e8 a7 19 00 00              	callq	6567 <_get_specular_addr>
100005079: f2 0f 2c 85 68 ff ff ff     	cvttsd2si	-152(%rbp), %eax
100005081: f2 0f 2c 4d 90              	cvttsd2si	-112(%rbp), %ecx
100005086: 09 c1                       	orl	%eax, %ecx
100005088: 0f 84 62 fe ff ff           	je	-414 <_get_light_effect+0x140>
10000508e: 48 8d bd e8 fe ff ff        	leaq	-280(%rbp), %rdi
100005095: 48 8b 75 a8                 	movq	-88(%rbp), %rsi
100005099: e8 82 19 00 00              	callq	6530 <_get_specular_addr>
10000509e: 48 8b 85 20 ff ff ff        	movq	-224(%rbp), %rax
1000050a5: 48 8b 9d 18 ff ff ff        	movq	-232(%rbp), %rbx
1000050ac: 4c 8b 85 10 ff ff ff        	movq	-240(%rbp), %r8
1000050b3: 4c 8b 8d 08 ff ff ff        	movq	-248(%rbp), %r9
1000050ba: 4c 8b 95 00 ff ff ff        	movq	-256(%rbp), %r10
1000050c1: 4c 8b 9d f8 fe ff ff        	movq	-264(%rbp), %r11
1000050c8: 4c 89 f9                    	movq	%r15, %rcx
1000050cb: 4c 8b bd e8 fe ff ff        	movq	-280(%rbp), %r15
1000050d2: 4c 8b ad f0 fe ff ff        	movq	-272(%rbp), %r13
1000050d9: 48 8d bd 28 ff ff ff        	leaq	-216(%rbp), %rdi
1000050e0: 48 8b 75 d0                 	movq	-48(%rbp), %rsi
1000050e4: 4c 89 e2                    	movq	%r12, %rdx
1000050e7: 50                          	pushq	%rax
1000050e8: 53                          	pushq	%rbx
1000050e9: 41 50                       	pushq	%r8
1000050eb: 41 51                       	pushq	%r9
1000050ed: 41 52                       	pushq	%r10
1000050ef: 41 53                       	pushq	%r11
1000050f1: 41 55                       	pushq	%r13
1000050f3: 41 57                       	pushq	%r15
1000050f5: 49 89 cf                    	movq	%rcx, %r15
1000050f8: e8 83 00 00 00              	callq	131 <_specular_light>
1000050fd: 48 83 c4 40                 	addq	$64, %rsp
100005101: 48 8b 85 38 ff ff ff        	movq	-200(%rbp), %rax
100005108: 4c 8b 85 28 ff ff ff        	movq	-216(%rbp), %r8
10000510f: 48 8b 95 30 ff ff ff        	movq	-208(%rbp), %rdx
100005116: 4c 8b ad 60 ff ff ff        	movq	-160(%rbp), %r13
10000511d: 49 8b 75 10                 	movq	16(%r13), %rsi
100005121: 49 8b 5d 00                 	movq	(%r13), %rbx
100005125: 49 8b 4d 08                 	movq	8(%r13), %rcx
100005129: 48 8d bd 68 ff ff ff        	leaq	-152(%rbp), %rdi
100005130: 50                          	pushq	%rax
100005131: 52                          	pushq	%rdx
100005132: 41 50                       	pushq	%r8
100005134: 56                          	pushq	%rsi
100005135: 51                          	pushq	%rcx
100005136: 53                          	pushq	%rbx
100005137: e8 e4 3b 00 00              	callq	15332 <_vec_addition>
10000513c: 48 83 c4 30                 	addq	$48, %rsp
100005140: 48 8b 85 78 ff ff ff        	movq	-136(%rbp), %rax
100005147: 49 89 45 10                 	movq	%rax, 16(%r13)
10000514b: 48 8b 85 68 ff ff ff        	movq	-152(%rbp), %rax
100005152: 48 8b 8d 70 ff ff ff        	movq	-144(%rbp), %rcx
100005159: 49 89 4d 08                 	movq	%rcx, 8(%r13)
10000515d: 49 89 45 00                 	movq	%rax, (%r13)
100005161: e9 8a fd ff ff              	jmp	-630 <_get_light_effect+0x140>
100005166: 48 8b 45 b0                 	movq	-80(%rbp), %rax
10000516a: 48 81 c4 f8 00 00 00        	addq	$248, %rsp
100005171: 5b                          	popq	%rbx
100005172: 41 5c                       	popq	%r12
100005174: 41 5d                       	popq	%r13
100005176: 41 5e                       	popq	%r14
100005178: 41 5f                       	popq	%r15
10000517a: 5d                          	popq	%rbp
10000517b: c3                          	retq
10000517c: 0f 1f 40 00                 	nopl	(%rax)

0000000100005180 _specular_light:
100005180: 55                          	pushq	%rbp
100005181: 48 89 e5                    	movq	%rsp, %rbp
100005184: 41 57                       	pushq	%r15
100005186: 41 56                       	pushq	%r14
100005188: 41 54                       	pushq	%r12
10000518a: 53                          	pushq	%rbx
10000518b: 48 81 ec c0 00 00 00        	subq	$192, %rsp
100005192: 48 89 cb                    	movq	%rcx, %rbx
100005195: 49 89 d6                    	movq	%rdx, %r14
100005198: 49 89 f4                    	movq	%rsi, %r12
10000519b: 49 89 ff                    	movq	%rdi, %r15
10000519e: 48 8d 7d 98                 	leaq	-104(%rbp), %rdi
1000051a2: ba 18 00 00 00              	movl	$24, %edx
1000051a7: 31 f6                       	xorl	%esi, %esi
1000051a9: e8 a2 45 00 00              	callq	17826 <_ft_memset>
1000051ae: f2 0f 10 45 38              	movsd	56(%rbp), %xmm0
1000051b3: 0f 29 85 20 ff ff ff        	movaps	%xmm0, -224(%rbp)
1000051ba: 48 83 ec 08                 	subq	$8, %rsp
1000051be: 48 8b 43 30                 	movq	48(%rbx), %rax
1000051c2: 48 8b 4b 20                 	movq	32(%rbx), %rcx
1000051c6: 48 8b 53 28                 	movq	40(%rbx), %rdx
1000051ca: 48 8d bd 30 ff ff ff        	leaq	-208(%rbp), %rdi
1000051d1: f2 0f 10 05 e7 bc 00 00     	movsd	48359(%rip), %xmm0
1000051d9: 50                          	pushq	%rax
1000051da: 52                          	pushq	%rdx
1000051db: 51                          	pushq	%rcx
1000051dc: e8 9f 3b 00 00              	callq	15263 <_scalar_mult>
1000051e1: 48 83 c4 18                 	addq	$24, %rsp
1000051e5: 48 8b 43 30                 	movq	48(%rbx), %rax
1000051e9: 48 8b 4b 20                 	movq	32(%rbx), %rcx
1000051ed: 48 8b 53 28                 	movq	40(%rbx), %rdx
1000051f1: 48 8d bd 48 ff ff ff        	leaq	-184(%rbp), %rdi
1000051f8: 50                          	pushq	%rax
1000051f9: 52                          	pushq	%rdx
1000051fa: 51                          	pushq	%rcx
1000051fb: e8 70 3d 00 00              	callq	15728 <_vec_nega>
100005200: 48 83 c4 20                 	addq	$32, %rsp
100005204: 49 8b 44 24 58              	movq	88(%r12), %rax
100005209: 49 8b 4c 24 48              	movq	72(%r12), %rcx
10000520e: 49 8b 54 24 50              	movq	80(%r12), %rdx
100005213: 48 8b b5 58 ff ff ff        	movq	-168(%rbp), %rsi
10000521a: 48 8b bd 48 ff ff ff        	movq	-184(%rbp), %rdi
100005221: 48 8b 9d 50 ff ff ff        	movq	-176(%rbp), %rbx
100005228: 50                          	pushq	%rax
100005229: 52                          	pushq	%rdx
10000522a: 51                          	pushq	%rcx
10000522b: 56                          	pushq	%rsi
10000522c: 53                          	pushq	%rbx
10000522d: 57                          	pushq	%rdi
10000522e: e8 8d 3c 00 00              	callq	15501 <_dot_product>
100005233: 48 83 c4 28                 	addq	$40, %rsp
100005237: 48 8b 85 40 ff ff ff        	movq	-192(%rbp), %rax
10000523e: 48 8b 8d 30 ff ff ff        	movq	-208(%rbp), %rcx
100005245: 48 8b 95 38 ff ff ff        	movq	-200(%rbp), %rdx
10000524c: 48 8d 7d b0                 	leaq	-80(%rbp), %rdi
100005250: 50                          	pushq	%rax
100005251: 52                          	pushq	%rdx
100005252: 51                          	pushq	%rcx
100005253: e8 28 3b 00 00              	callq	15144 <_scalar_mult>
100005258: 48 83 c4 20                 	addq	$32, %rsp
10000525c: 48 8b 45 c0                 	movq	-64(%rbp), %rax
100005260: 48 89 45 90                 	movq	%rax, -112(%rbp)
100005264: 48 8b 45 b0                 	movq	-80(%rbp), %rax
100005268: 48 8b 4d b8                 	movq	-72(%rbp), %rcx
10000526c: 48 89 4d 88                 	movq	%rcx, -120(%rbp)
100005270: 48 89 45 80                 	movq	%rax, -128(%rbp)
100005274: 48 8b 45 90                 	movq	-112(%rbp), %rax
100005278: 4c 8b 45 80                 	movq	-128(%rbp), %r8
10000527c: 48 8b 55 88                 	movq	-120(%rbp), %rdx
100005280: 49 8b 74 24 58              	movq	88(%r12), %rsi
100005285: 49 8b 5c 24 48              	movq	72(%r12), %rbx
10000528a: 49 8b 4c 24 50              	movq	80(%r12), %rcx
10000528f: 48 8d 7d c8                 	leaq	-56(%rbp), %rdi
100005293: 50                          	pushq	%rax
100005294: 52                          	pushq	%rdx
100005295: 41 50                       	pushq	%r8
100005297: 56                          	pushq	%rsi
100005298: 51                          	pushq	%rcx
100005299: 53                          	pushq	%rbx
10000529a: e8 81 3a 00 00              	callq	14977 <_vec_addition>
10000529f: 48 83 c4 30                 	addq	$48, %rsp
1000052a3: 48 8b 45 d8                 	movq	-40(%rbp), %rax
1000052a7: 48 89 45 c0                 	movq	%rax, -64(%rbp)
1000052ab: 48 8b 45 c8                 	movq	-56(%rbp), %rax
1000052af: 48 8b 4d d0                 	movq	-48(%rbp), %rcx
1000052b3: 48 89 4d b8                 	movq	%rcx, -72(%rbp)
1000052b7: 48 89 45 b0                 	movq	%rax, -80(%rbp)
1000052bb: 48 8b 45 90                 	movq	-112(%rbp), %rax
1000052bf: 48 8b 4d 80                 	movq	-128(%rbp), %rcx
1000052c3: 48 8b 55 88                 	movq	-120(%rbp), %rdx
1000052c7: 48 8b 75 c0                 	movq	-64(%rbp), %rsi
1000052cb: 48 8b 7d b0                 	movq	-80(%rbp), %rdi
1000052cf: 48 8b 5d b8                 	movq	-72(%rbp), %rbx
1000052d3: 50                          	pushq	%rax
1000052d4: 52                          	pushq	%rdx
1000052d5: 51                          	pushq	%rcx
1000052d6: 56                          	pushq	%rsi
1000052d7: 53                          	pushq	%rbx
1000052d8: 57                          	pushq	%rdi
1000052d9: e8 e2 3b 00 00              	callq	15330 <_dot_product>
1000052de: 48 83 c4 30                 	addq	$48, %rsp
1000052e2: 66 0f 2e 05 de bb 00 00     	ucomisd	48094(%rip), %xmm0
1000052ea: 0f 86 0e 01 00 00           	jbe	270 <_specular_light+0x27e>
1000052f0: 48 8d 45 10                 	leaq	16(%rbp), %rax
1000052f4: f2 0f 10 08                 	movsd	(%rax), %xmm1
1000052f8: e8 61 90 00 00              	callq	36961 <dyld_stub_binder+0x10000e35e>
1000052fd: 0f 28 0d cc bb 00 00        	movaps	48076(%rip), %xmm1
100005304: 0f 29 8d 60 ff ff ff        	movaps	%xmm1, -160(%rbp)
10000530b: 48 b8 00 00 00 00 00 00 f0 3f       	movabsq	$4607182418800017408, %rax
100005315: 48 89 85 70 ff ff ff        	movq	%rax, -144(%rbp)
10000531c: 48 83 ec 08                 	subq	$8, %rsp
100005320: 48 8b 85 70 ff ff ff        	movq	-144(%rbp), %rax
100005327: 48 8b 8d 60 ff ff ff        	movq	-160(%rbp), %rcx
10000532e: 48 8b 95 68 ff ff ff        	movq	-152(%rbp), %rdx
100005335: 48 8d 7d c8                 	leaq	-56(%rbp), %rdi
100005339: 50                          	pushq	%rax
10000533a: 52                          	pushq	%rdx
10000533b: 51                          	pushq	%rcx
10000533c: e8 3f 3a 00 00              	callq	14911 <_scalar_mult>
100005341: 48 83 c4 20                 	addq	$32, %rsp
100005345: 48 8b 45 d8                 	movq	-40(%rbp), %rax
100005349: 48 89 45 a8                 	movq	%rax, -88(%rbp)
10000534d: 48 8b 45 c8                 	movq	-56(%rbp), %rax
100005351: 48 8b 4d d0                 	movq	-48(%rbp), %rcx
100005355: 48 89 4d a0                 	movq	%rcx, -96(%rbp)
100005359: 48 89 45 98                 	movq	%rax, -104(%rbp)
10000535d: 41 0f b7 0e                 	movzwl	(%r14), %ecx
100005361: 41 0f b6 46 02              	movzbl	2(%r14), %eax
100005366: c1 e0 10                    	shll	$16, %eax
100005369: 09 c8                       	orl	%ecx, %eax
10000536b: 0f b6 c8                    	movzbl	%al, %ecx
10000536e: 0f b6 d4                    	movzbl	%ah, %edx
100005371: f2 0f 2a c1                 	cvtsi2sd	%ecx, %xmm0
100005375: 66 0f 28 9d 20 ff ff ff     	movapd	-224(%rbp), %xmm3
10000537d: f2 0f 59 1d 33 bb 00 00     	mulsd	47923(%rip), %xmm3
100005385: c1 e8 10                    	shrl	$16, %eax
100005388: f2 41 0f 59 5e 08           	mulsd	8(%r14), %xmm3
10000538e: f2 0f 10 4d 98              	movsd	-104(%rbp), %xmm1
100005393: f2 0f 59 cb                 	mulsd	%xmm3, %xmm1
100005397: f2 0f 59 c8                 	mulsd	%xmm0, %xmm1
10000539b: 0f 57 c0                    	xorps	%xmm0, %xmm0
10000539e: f2 0f 2a c2                 	cvtsi2sd	%edx, %xmm0
1000053a2: f2 0f 11 4d c8              	movsd	%xmm1, -56(%rbp)
1000053a7: 0f b6 c0                    	movzbl	%al, %eax
1000053aa: 0f 57 c9                    	xorps	%xmm1, %xmm1
1000053ad: f2 0f 2a c8                 	cvtsi2sd	%eax, %xmm1
1000053b1: f2 0f 10 55 a0              	movsd	-96(%rbp), %xmm2
1000053b6: 66 0f 14 d1                 	unpcklpd	%xmm1, %xmm2
1000053ba: f2 0f 12 cb                 	movddup	%xmm3, %xmm1
1000053be: 66 0f 59 ca                 	mulpd	%xmm2, %xmm1
1000053c2: 66 0f 16 45 a8              	movhpd	-88(%rbp), %xmm0
1000053c7: 66 0f 59 c1                 	mulpd	%xmm1, %xmm0
1000053cb: 66 0f 11 45 d0              	movupd	%xmm0, -48(%rbp)
1000053d0: 48 8d 7d c8                 	leaq	-56(%rbp), %rdi
1000053d4: e8 07 01 00 00              	callq	263 <_color_range_norm>
1000053d9: 48 8b 45 d8                 	movq	-40(%rbp), %rax
1000053dd: 48 89 45 a8                 	movq	%rax, -88(%rbp)
1000053e1: 48 8b 4d c8                 	movq	-56(%rbp), %rcx
1000053e5: 48 8b 55 d0                 	movq	-48(%rbp), %rdx
1000053e9: 48 89 55 a0                 	movq	%rdx, -96(%rbp)
1000053ed: 48 89 4d 98                 	movq	%rcx, -104(%rbp)
1000053f1: 49 89 47 10                 	movq	%rax, 16(%r15)
1000053f5: 49 89 57 08                 	movq	%rdx, 8(%r15)
1000053f9: 49 89 0f                    	movq	%rcx, (%r15)
1000053fc: eb 17                       	jmp	23 <_specular_light+0x295>
1000053fe: 49 c7 47 10 00 00 00 00     	movq	$0, 16(%r15)
100005406: 49 c7 47 08 00 00 00 00     	movq	$0, 8(%r15)
10000540e: 49 c7 07 00 00 00 00        	movq	$0, (%r15)
100005415: 4c 89 f8                    	movq	%r15, %rax
100005418: 48 81 c4 c0 00 00 00        	addq	$192, %rsp
10000541f: 5b                          	popq	%rbx
100005420: 41 5c                       	popq	%r12
100005422: 41 5e                       	popq	%r14
100005424: 41 5f                       	popq	%r15
100005426: 5d                          	popq	%rbp
100005427: c3                          	retq
100005428: 0f 1f 84 00 00 00 00 00     	nopl	(%rax,%rax)

0000000100005430 _convert_light:
100005430: 55                          	pushq	%rbp
100005431: 48 89 e5                    	movq	%rsp, %rbp
100005434: 53                          	pushq	%rbx
100005435: 48 83 ec 18                 	subq	$24, %rsp
100005439: 48 89 fb                    	movq	%rdi, %rbx
10000543c: 66 0f 10 45 28              	movupd	40(%rbp), %xmm0
100005441: 66 0f 58 45 10              	addpd	16(%rbp), %xmm0
100005446: 66 0f 58 45 40              	addpd	64(%rbp), %xmm0
10000544b: 66 0f 11 07                 	movupd	%xmm0, (%rdi)
10000544f: f2 0f 10 45 38              	movsd	56(%rbp), %xmm0
100005454: f2 0f 58 45 20              	addsd	32(%rbp), %xmm0
100005459: f2 0f 58 45 50              	addsd	80(%rbp), %xmm0
10000545e: f2 0f 11 47 10              	movsd	%xmm0, 16(%rdi)
100005463: 85 f6                       	testl	%esi, %esi
100005465: 7e 66                       	jle	102 <_convert_light+0x9d>
100005467: 48 8d 45 70                 	leaq	112(%rbp), %rax
10000546b: f2 0f 10 48 08              	movsd	8(%rax), %xmm1
100005470: 66 0f 57 c0                 	xorpd	%xmm0, %xmm0
100005474: 66 0f 2e c1                 	ucomisd	%xmm1, %xmm0
100005478: 73 53                       	jae	83 <_convert_light+0x9d>
10000547a: 48 8d 45 10                 	leaq	16(%rbp), %rax
10000547e: f2 0f 10 05 e2 b9 00 00     	movsd	47586(%rip), %xmm0
100005486: f2 0f 5c c1                 	subsd	%xmm1, %xmm0
10000548a: 48 8b 48 58                 	movq	88(%rax), %rcx
10000548e: 4c 8b 48 48                 	movq	72(%rax), %r9
100005492: 48 8b 40 50                 	movq	80(%rax), %rax
100005496: 48 8b 73 10                 	movq	16(%rbx), %rsi
10000549a: 4c 8b 03                    	movq	(%rbx), %r8
10000549d: 48 8b 53 08                 	movq	8(%rbx), %rdx
1000054a1: 48 8d 7d e0                 	leaq	-32(%rbp), %rdi
1000054a5: 51                          	pushq	%rcx
1000054a6: 50                          	pushq	%rax
1000054a7: 41 51                       	pushq	%r9
1000054a9: 56                          	pushq	%rsi
1000054aa: 52                          	pushq	%rdx
1000054ab: 41 50                       	pushq	%r8
1000054ad: e8 fe 00 00 00              	callq	254 <_c_color>
1000054b2: 48 83 c4 30                 	addq	$48, %rsp
1000054b6: 48 8b 45 f0                 	movq	-16(%rbp), %rax
1000054ba: 48 89 43 10                 	movq	%rax, 16(%rbx)
1000054be: 48 8b 45 e0                 	movq	-32(%rbp), %rax
1000054c2: 48 8b 4d e8                 	movq	-24(%rbp), %rcx
1000054c6: 48 89 4b 08                 	movq	%rcx, 8(%rbx)
1000054ca: 48 89 03                    	movq	%rax, (%rbx)
1000054cd: 48 89 df                    	movq	%rbx, %rdi
1000054d0: e8 0b 00 00 00              	callq	11 <_color_range_norm>
1000054d5: 48 89 d8                    	movq	%rbx, %rax
1000054d8: 48 83 c4 18                 	addq	$24, %rsp
1000054dc: 5b                          	popq	%rbx
1000054dd: 5d                          	popq	%rbp
1000054de: c3                          	retq
1000054df: 90                          	nop

00000001000054e0 _color_range_norm:
1000054e0: 55                          	pushq	%rbp
1000054e1: 48 89 e5                    	movq	%rsp, %rbp
1000054e4: f2 0f 10 17                 	movsd	(%rdi), %xmm2
1000054e8: f2 0f 10 5f 08              	movsd	8(%rdi), %xmm3
1000054ed: f2 0f 10 05 73 b9 00 00     	movsd	47475(%rip), %xmm0
1000054f5: 66 0f 28 e0                 	movapd	%xmm0, %xmm4
1000054f9: f2 0f c2 e2 01              	cmpltsd	%xmm2, %xmm4
1000054fe: 66 0f 54 e0                 	andpd	%xmm0, %xmm4
100005502: 66 0f 28 ca                 	movapd	%xmm2, %xmm1
100005506: f2 0f c2 c8 02              	cmplesd	%xmm0, %xmm1
10000550b: 66 0f 54 c8                 	andpd	%xmm0, %xmm1
10000550f: f2 0f 59 ca                 	mulsd	%xmm2, %xmm1
100005513: f2 0f 58 cc                 	addsd	%xmm4, %xmm1
100005517: 66 0f 28 e0                 	movapd	%xmm0, %xmm4
10000551b: f2 0f c2 e3 01              	cmpltsd	%xmm3, %xmm4
100005520: 66 0f 54 e0                 	andpd	%xmm0, %xmm4
100005524: 66 0f 28 d3                 	movapd	%xmm3, %xmm2
100005528: f2 0f c2 d0 02              	cmplesd	%xmm0, %xmm2
10000552d: 66 0f 54 d0                 	andpd	%xmm0, %xmm2
100005531: f2 0f 59 d3                 	mulsd	%xmm3, %xmm2
100005535: f2 0f 58 d4                 	addsd	%xmm4, %xmm2
100005539: f2 0f 10 5f 10              	movsd	16(%rdi), %xmm3
10000553e: 66 0f 28 e0                 	movapd	%xmm0, %xmm4
100005542: f2 0f c2 e3 01              	cmpltsd	%xmm3, %xmm4
100005547: 66 0f 54 e0                 	andpd	%xmm0, %xmm4
10000554b: 66 0f 28 eb                 	movapd	%xmm3, %xmm5
10000554f: f2 0f c2 e8 02              	cmplesd	%xmm0, %xmm5
100005554: 66 0f 54 e8                 	andpd	%xmm0, %xmm5
100005558: f2 0f 59 eb                 	mulsd	%xmm3, %xmm5
10000555c: f2 0f 58 ec                 	addsd	%xmm4, %xmm5
100005560: 66 0f 57 db                 	xorpd	%xmm3, %xmm3
100005564: 66 0f 57 e4                 	xorpd	%xmm4, %xmm4
100005568: f2 0f c2 e1 02              	cmplesd	%xmm1, %xmm4
10000556d: 66 0f 54 e0                 	andpd	%xmm0, %xmm4
100005571: f2 0f 59 e1                 	mulsd	%xmm1, %xmm4
100005575: f2 0f 11 27                 	movsd	%xmm4, (%rdi)
100005579: 66 0f 57 c9                 	xorpd	%xmm1, %xmm1
10000557d: f2 0f c2 ca 02              	cmplesd	%xmm2, %xmm1
100005582: 66 0f 54 c8                 	andpd	%xmm0, %xmm1
100005586: f2 0f 59 ca                 	mulsd	%xmm2, %xmm1
10000558a: f2 0f 11 4f 08              	movsd	%xmm1, 8(%rdi)
10000558f: f2 0f c2 dd 02              	cmplesd	%xmm5, %xmm3
100005594: 66 0f 54 d8                 	andpd	%xmm0, %xmm3
100005598: f2 0f 59 dd                 	mulsd	%xmm5, %xmm3
10000559c: f2 0f 11 5f 10              	movsd	%xmm3, 16(%rdi)
1000055a1: 5d                          	popq	%rbp
1000055a2: c3                          	retq
1000055a3: 66 2e 0f 1f 84 00 00 00 00 00       	nopw	%cs:(%rax,%rax)
1000055ad: 0f 1f 00                    	nopl	(%rax)

00000001000055b0 _c_color:
1000055b0: 55                          	pushq	%rbp
1000055b1: 48 89 e5                    	movq	%rsp, %rbp
1000055b4: f2 0f 12 d0                 	movddup	%xmm0, %xmm2
1000055b8: 66 0f 59 55 10              	mulpd	16(%rbp), %xmm2
1000055bd: 48 89 f8                    	movq	%rdi, %rax
1000055c0: 66 0f 10 5d 28              	movupd	40(%rbp), %xmm3
1000055c5: f2 0f 12 e1                 	movddup	%xmm1, %xmm4
1000055c9: 66 0f 59 e3                 	mulpd	%xmm3, %xmm4
1000055cd: f2 0f 59 45 20              	mulsd	32(%rbp), %xmm0
1000055d2: f2 0f 59 4d 38              	mulsd	56(%rbp), %xmm1
1000055d7: 66 0f 58 e2                 	addpd	%xmm2, %xmm4
1000055db: f2 0f 58 c8                 	addsd	%xmm0, %xmm1
1000055df: 66 0f 28 05 e9 b8 00 00     	movapd	47337(%rip), %xmm0
1000055e7: 66 0f 28 d4                 	movapd	%xmm4, %xmm2
1000055eb: 66 0f c2 d0 02              	cmplepd	%xmm0, %xmm2
1000055f0: 66 0f c2 c4 01              	cmpltpd	%xmm4, %xmm0
1000055f5: 0f c6 c0 e8                 	shufps	$232, %xmm0, %xmm0
1000055f9: 0f 28 1d f0 b8 00 00        	movaps	47344(%rip), %xmm3
100005600: 0f 54 c3                    	andps	%xmm3, %xmm0
100005603: f3 0f e6 c0                 	cvtdq2pd	%xmm0, %xmm0
100005607: 0f c6 d2 e8                 	shufps	$232, %xmm2, %xmm2
10000560b: 0f 54 d3                    	andps	%xmm3, %xmm2
10000560e: f3 0f e6 d2                 	cvtdq2pd	%xmm2, %xmm2
100005612: 66 0f 59 d4                 	mulpd	%xmm4, %xmm2
100005616: 66 0f 58 d0                 	addpd	%xmm0, %xmm2
10000561a: f2 0f 10 05 46 b8 00 00     	movsd	47174(%rip), %xmm0
100005622: 66 0f 28 e0                 	movapd	%xmm0, %xmm4
100005626: f2 0f c2 e1 01              	cmpltsd	%xmm1, %xmm4
10000562b: 66 0f 54 e0                 	andpd	%xmm0, %xmm4
10000562f: 66 0f 28 e9                 	movapd	%xmm1, %xmm5
100005633: f2 0f c2 e8 02              	cmplesd	%xmm0, %xmm5
100005638: 66 0f 54 e8                 	andpd	%xmm0, %xmm5
10000563c: f2 0f 59 e9                 	mulsd	%xmm1, %xmm5
100005640: 66 0f 57 c9                 	xorpd	%xmm1, %xmm1
100005644: 66 0f c2 ca 02              	cmplepd	%xmm2, %xmm1
100005649: 0f c6 c9 e8                 	shufps	$232, %xmm1, %xmm1
10000564d: 0f 54 cb                    	andps	%xmm3, %xmm1
100005650: f3 0f e6 c9                 	cvtdq2pd	%xmm1, %xmm1
100005654: f2 0f 58 ec                 	addsd	%xmm4, %xmm5
100005658: 66 0f 59 ca                 	mulpd	%xmm2, %xmm1
10000565c: 66 0f 11 0f                 	movupd	%xmm1, (%rdi)
100005660: 66 0f 57 c9                 	xorpd	%xmm1, %xmm1
100005664: f2 0f c2 cd 02              	cmplesd	%xmm5, %xmm1
100005669: 66 0f 54 c8                 	andpd	%xmm0, %xmm1
10000566d: f2 0f 59 cd                 	mulsd	%xmm5, %xmm1
100005671: f2 0f 11 4f 10              	movsd	%xmm1, 16(%rdi)
100005676: 5d                          	popq	%rbp
100005677: c3                          	retq
100005678: 0f 1f 84 00 00 00 00 00     	nopl	(%rax,%rax)

0000000100005680 _rgb_to_int:
100005680: 55                          	pushq	%rbp
100005681: 48 89 e5                    	movq	%rsp, %rbp
100005684: f2 0f 10 05 54 b8 00 00     	movsd	47188(%rip), %xmm0
10000568c: f2 0f 10 4d 10              	movsd	16(%rbp), %xmm1
100005691: f2 0f 59 c8                 	mulsd	%xmm0, %xmm1
100005695: f2 0f 2c c9                 	cvttsd2si	%xmm1, %ecx
100005699: f2 0f 10 4d 18              	movsd	24(%rbp), %xmm1
10000569e: f2 0f 59 c8                 	mulsd	%xmm0, %xmm1
1000056a2: f2 0f 2c c1                 	cvttsd2si	%xmm1, %eax
1000056a6: f2 0f 59 45 20              	mulsd	32(%rbp), %xmm0
1000056ab: f2 0f 2c d0                 	cvttsd2si	%xmm0, %edx
1000056af: c1 e1 10                    	shll	$16, %ecx
1000056b2: c1 e0 08                    	shll	$8, %eax
1000056b5: 09 c8                       	orl	%ecx, %eax
1000056b7: 09 d0                       	orl	%edx, %eax
1000056b9: 5d                          	popq	%rbp
1000056ba: c3                          	retq
1000056bb: 0f 1f 44 00 00              	nopl	(%rax,%rax)

00000001000056c0 _get_tex_color:
1000056c0: 55                          	pushq	%rbp
1000056c1: 48 89 e5                    	movq	%rsp, %rbp
1000056c4: 44 8b 4e 24                 	movl	36(%rsi), %r9d
1000056c8: 41 8d 41 ff                 	leal	-1(%r9), %eax
1000056cc: f2 0f 2a d0                 	cvtsi2sd	%eax, %xmm2
1000056d0: 41 89 d2                    	movl	%edx, %r10d
1000056d3: 49 89 f8                    	movq	%rdi, %r8
1000056d6: f2 0f 59 d0                 	mulsd	%xmm0, %xmm2
1000056da: f2 0f 2c fa                 	cvttsd2si	%xmm2, %edi
1000056de: f2 0f 10 15 82 b7 00 00     	movsd	46978(%rip), %xmm2
1000056e6: 8b 4e 28                    	movl	40(%rsi), %ecx
1000056e9: f2 0f 2a d9                 	cvtsi2sd	%ecx, %xmm3
1000056ed: f2 0f 5c d1                 	subsd	%xmm1, %xmm2
1000056f1: f2 0f 59 da                 	mulsd	%xmm2, %xmm3
1000056f5: f2 0f 2c c3                 	cvttsd2si	%xmm3, %eax
1000056f9: 99                          	cltd
1000056fa: f7 f9                       	idivl	%ecx
1000056fc: 0f 57 c9                    	xorps	%xmm1, %xmm1
1000056ff: f2 41 0f 2a c9              	cvtsi2sd	%r9d, %xmm1
100005704: 45 31 db                    	xorl	%r11d, %r11d
100005707: f2 0f 59 c8                 	mulsd	%xmm0, %xmm1
10000570b: f2 0f 2c c1                 	cvttsd2si	%xmm1, %eax
10000570f: 0f 57 c9                    	xorps	%xmm1, %xmm1
100005712: f2 41 0f 2a ca              	cvtsi2sd	%r10d, %xmm1
100005717: 66 0f 57 c0                 	xorpd	%xmm0, %xmm0
10000571b: 45 85 d2                    	testl	%r10d, %r10d
10000571e: 41 0f 44 fa                 	cmovel	%r10d, %edi
100005722: 41 0f 45 c3                 	cmovnel	%r11d, %eax
100005726: 75 07                       	jne	7 <_get_tex_color+0x6f>
100005728: 0f 57 c0                    	xorps	%xmm0, %xmm0
10000572b: f2 0f 2a c2                 	cvtsi2sd	%edx, %xmm0
10000572f: 99                          	cltd
100005730: 41 f7 f9                    	idivl	%r9d
100005733: ff c9                       	decl	%ecx
100005735: 0f 57 db                    	xorps	%xmm3, %xmm3
100005738: f2 0f 2a d9                 	cvtsi2sd	%ecx, %xmm3
10000573c: f2 0f 59 d1                 	mulsd	%xmm1, %xmm2
100005740: f2 0f 59 d3                 	mulsd	%xmm3, %xmm2
100005744: f2 0f 58 d0                 	addsd	%xmm0, %xmm2
100005748: f2 0f 2c c2                 	cvttsd2si	%xmm2, %eax
10000574c: 01 d7                       	addl	%edx, %edi
10000574e: 0f af 7e 18                 	imull	24(%rsi), %edi
100005752: 8d 4f 07                    	leal	7(%rdi), %ecx
100005755: 85 ff                       	testl	%edi, %edi
100005757: 0f 49 cf                    	cmovnsl	%edi, %ecx
10000575a: c1 f9 03                    	sarl	$3, %ecx
10000575d: 0f af 46 1c                 	imull	28(%rsi), %eax
100005761: 01 c8                       	addl	%ecx, %eax
100005763: 48 8b 4e 10                 	movq	16(%rsi), %rcx
100005767: 89 c2                       	movl	%eax, %edx
100005769: f7 da                       	negl	%edx
10000576b: 0f 4c d0                    	cmovll	%eax, %edx
10000576e: 0f b6 44 11 02              	movzbl	2(%rcx,%rdx), %eax
100005773: 0f 57 c0                    	xorps	%xmm0, %xmm0
100005776: f2 0f 2a c0                 	cvtsi2sd	%eax, %xmm0
10000577a: f2 0f 10 0d 36 b7 00 00     	movsd	46902(%rip), %xmm1
100005782: f2 0f 59 c1                 	mulsd	%xmm1, %xmm0
100005786: f2 41 0f 11 00              	movsd	%xmm0, (%r8)
10000578b: 0f b6 44 11 01              	movzbl	1(%rcx,%rdx), %eax
100005790: 0f 57 c0                    	xorps	%xmm0, %xmm0
100005793: f2 0f 2a c0                 	cvtsi2sd	%eax, %xmm0
100005797: f2 0f 59 c1                 	mulsd	%xmm1, %xmm0
10000579b: f2 41 0f 11 40 08           	movsd	%xmm0, 8(%r8)
1000057a1: 0f b6 04 11                 	movzbl	(%rcx,%rdx), %eax
1000057a5: 0f 57 c0                    	xorps	%xmm0, %xmm0
1000057a8: f2 0f 2a c0                 	cvtsi2sd	%eax, %xmm0
1000057ac: f2 0f 59 c1                 	mulsd	%xmm1, %xmm0
1000057b0: f2 41 0f 11 40 10           	movsd	%xmm0, 16(%r8)
1000057b6: 4c 89 c0                    	movq	%r8, %rax
1000057b9: 5d                          	popq	%rbp
1000057ba: c3                          	retq
1000057bb: 0f 1f 44 00 00              	nopl	(%rax,%rax)

00000001000057c0 _check_color:
1000057c0: 55                          	pushq	%rbp
1000057c1: 48 89 e5                    	movq	%rsp, %rbp
1000057c4: 41 56                       	pushq	%r14
1000057c6: 53                          	pushq	%rbx
1000057c7: 48 83 ec 20                 	subq	$32, %rsp
1000057cb: 48 8b 05 3e 28 02 00        	movq	141374(%rip), %rax
1000057d2: 48 8b 00                    	movq	(%rax), %rax
1000057d5: 48 89 45 e8                 	movq	%rax, -24(%rbp)
1000057d9: 48 85 ff                    	testq	%rdi, %rdi
1000057dc: 0f 84 6c 01 00 00           	je	364 <_check_color+0x18e>
1000057e2: 49 89 f6                    	movq	%rsi, %r14
1000057e5: 48 89 fb                    	movq	%rdi, %rbx
1000057e8: 8a 07                       	movb	(%rdi), %al
1000057ea: 3c 02                       	cmpb	$2, %al
1000057ec: 0f 84 81 00 00 00           	je	129 <_check_color+0xb3>
1000057f2: 3c 01                       	cmpb	$1, %al
1000057f4: 0f 84 9a 00 00 00           	je	154 <_check_color+0xd4>
1000057fa: 84 c0                       	testb	%al, %al
1000057fc: 0f 85 4c 01 00 00           	jne	332 <_check_color+0x18e>
100005802: 48 83 7b 08 00              	cmpq	$0, 8(%rbx)
100005807: 0f 84 41 01 00 00           	je	321 <_check_color+0x18e>
10000580d: 48 8b 7b 18                 	movq	24(%rbx), %rdi
100005811: 48 8d 4d d8                 	leaq	-40(%rbp), %rcx
100005815: 48 8d 55 d0                 	leaq	-48(%rbp), %rdx
100005819: 4c 89 f6                    	movq	%r14, %rsi
10000581c: e8 4f 12 00 00              	callq	4687 <_get_uv_sphere>
100005821: 48 8b 43 08                 	movq	8(%rbx), %rax
100005825: 8b 48 24                    	movl	36(%rax), %ecx
100005828: ff c9                       	decl	%ecx
10000582a: f2 0f 2a c1                 	cvtsi2sd	%ecx, %xmm0
10000582e: f2 0f 59 45 d0              	mulsd	-48(%rbp), %xmm0
100005833: f2 0f 2c c8                 	cvttsd2si	%xmm0, %ecx
100005837: f2 0f 10 05 29 b6 00 00     	movsd	46633(%rip), %xmm0
10000583f: f2 0f 5c 45 d8              	subsd	-40(%rbp), %xmm0
100005844: 8b 50 28                    	movl	40(%rax), %edx
100005847: ff ca                       	decl	%edx
100005849: f2 0f 2a ca                 	cvtsi2sd	%edx, %xmm1
10000584d: f2 0f 59 c8                 	mulsd	%xmm0, %xmm1
100005851: f2 0f 2c d1                 	cvttsd2si	%xmm1, %edx
100005855: 0f af 48 18                 	imull	24(%rax), %ecx
100005859: 8d 71 07                    	leal	7(%rcx), %esi
10000585c: 85 c9                       	testl	%ecx, %ecx
10000585e: 0f 49 f1                    	cmovnsl	%ecx, %esi
100005861: c1 fe 03                    	sarl	$3, %esi
100005864: 0f af 50 1c                 	imull	28(%rax), %edx
100005868: 01 f2                       	addl	%esi, %edx
10000586a: 48 8b 40 10                 	movq	16(%rax), %rax
10000586e: e9 91 00 00 00              	jmp	145 <_check_color+0x144>
100005873: 48 83 7b 08 00              	cmpq	$0, 8(%rbx)
100005878: 0f 84 d0 00 00 00           	je	208 <_check_color+0x18e>
10000587e: 48 8b 7b 18                 	movq	24(%rbx), %rdi
100005882: 48 8d 4d d8                 	leaq	-40(%rbp), %rcx
100005886: 48 8d 55 d0                 	leaq	-48(%rbp), %rdx
10000588a: 4c 89 f6                    	movq	%r14, %rsi
10000588d: e8 9e 12 00 00              	callq	4766 <_get_uv_plane>
100005892: eb 1f                       	jmp	31 <_check_color+0xf3>
100005894: 48 83 7b 08 00              	cmpq	$0, 8(%rbx)
100005899: 0f 84 af 00 00 00           	je	175 <_check_color+0x18e>
10000589f: 48 8b 7b 18                 	movq	24(%rbx), %rdi
1000058a3: 48 8d 4d d8                 	leaq	-40(%rbp), %rcx
1000058a7: 48 8d 55 d0                 	leaq	-48(%rbp), %rdx
1000058ab: 4c 89 f6                    	movq	%r14, %rsi
1000058ae: e8 bd 14 00 00              	callq	5309 <_get_uv_cylinder>
1000058b3: 48 8b 73 08                 	movq	8(%rbx), %rsi
1000058b7: 8b 4e 24                    	movl	36(%rsi), %ecx
1000058ba: f2 0f 2a c1                 	cvtsi2sd	%ecx, %xmm0
1000058be: f2 0f 59 45 d0              	mulsd	-48(%rbp), %xmm0
1000058c3: f2 0f 2c c0                 	cvttsd2si	%xmm0, %eax
1000058c7: 99                          	cltd
1000058c8: f7 f9                       	idivl	%ecx
1000058ca: 89 d1                       	movl	%edx, %ecx
1000058cc: f2 0f 10 05 94 b5 00 00     	movsd	46484(%rip), %xmm0
1000058d4: f2 0f 5c 45 d8              	subsd	-40(%rbp), %xmm0
1000058d9: 8b 7e 28                    	movl	40(%rsi), %edi
1000058dc: f2 0f 2a cf                 	cvtsi2sd	%edi, %xmm1
1000058e0: f2 0f 59 c8                 	mulsd	%xmm0, %xmm1
1000058e4: f2 0f 2c c1                 	cvttsd2si	%xmm1, %eax
1000058e8: 99                          	cltd
1000058e9: f7 ff                       	idivl	%edi
1000058eb: 0f af 4e 18                 	imull	24(%rsi), %ecx
1000058ef: 8d 41 07                    	leal	7(%rcx), %eax
1000058f2: 85 c9                       	testl	%ecx, %ecx
1000058f4: 0f 49 c1                    	cmovnsl	%ecx, %eax
1000058f7: c1 f8 03                    	sarl	$3, %eax
1000058fa: 0f af 56 1c                 	imull	28(%rsi), %edx
1000058fe: 01 c2                       	addl	%eax, %edx
100005900: 48 8b 46 10                 	movq	16(%rsi), %rax
100005904: 89 d1                       	movl	%edx, %ecx
100005906: f7 d9                       	negl	%ecx
100005908: 0f 4c ca                    	cmovll	%edx, %ecx
10000590b: 0f b6 54 08 02              	movzbl	2(%rax,%rcx), %edx
100005910: 0f 57 c0                    	xorps	%xmm0, %xmm0
100005913: f2 0f 2a c2                 	cvtsi2sd	%edx, %xmm0
100005917: f2 0f 10 0d 99 b5 00 00     	movsd	46489(%rip), %xmm1
10000591f: f2 0f 59 c1                 	mulsd	%xmm1, %xmm0
100005923: 0f b6 54 08 01              	movzbl	1(%rax,%rcx), %edx
100005928: f2 0f 2a d2                 	cvtsi2sd	%edx, %xmm2
10000592c: f2 0f 59 d1                 	mulsd	%xmm1, %xmm2
100005930: 0f b6 04 08                 	movzbl	(%rax,%rcx), %eax
100005934: f2 0f 2a d8                 	cvtsi2sd	%eax, %xmm3
100005938: f2 0f 59 d9                 	mulsd	%xmm1, %xmm3
10000593c: f2 41 0f 11 46 38           	movsd	%xmm0, 56(%r14)
100005942: f2 41 0f 11 56 40           	movsd	%xmm2, 64(%r14)
100005948: f2 41 0f 11 5e 48           	movsd	%xmm3, 72(%r14)
10000594e: 48 8b 05 bb 26 02 00        	movq	140987(%rip), %rax
100005955: 48 8b 00                    	movq	(%rax), %rax
100005958: 48 3b 45 e8                 	cmpq	-24(%rbp), %rax
10000595c: 75 09                       	jne	9 <_check_color+0x1a7>
10000595e: 48 83 c4 20                 	addq	$32, %rsp
100005962: 5b                          	popq	%rbx
100005963: 41 5e                       	popq	%r14
100005965: 5d                          	popq	%rbp
100005966: c3                          	retq
100005967: e8 84 88 00 00              	callq	34948 <dyld_stub_binder+0x10000e1f0>
10000596c: 90                          	nop
10000596d: 90                          	nop
10000596e: 90                          	nop
10000596f: 90                          	nop

0000000100005970 _prime_ray:
100005970: 55                          	pushq	%rbp
100005971: 48 89 e5                    	movq	%rsp, %rbp
100005974: 41 56                       	pushq	%r14
100005976: 53                          	pushq	%rbx
100005977: 48 83 ec 20                 	subq	$32, %rsp
10000597b: 48 89 d3                    	movq	%rdx, %rbx
10000597e: 48 8b 41 18                 	movq	24(%rcx), %rax
100005982: 48 89 42 10                 	movq	%rax, 16(%rdx)
100005986: 48 8b 41 08                 	movq	8(%rcx), %rax
10000598a: 48 8b 51 10                 	movq	16(%rcx), %rdx
10000598e: 48 89 53 08                 	movq	%rdx, 8(%rbx)
100005992: 48 89 03                    	movq	%rax, (%rbx)
100005995: f2 0f 2a c7                 	cvtsi2sd	%edi, %xmm0
100005999: f2 0f 2a ce                 	cvtsi2sd	%esi, %xmm1
10000599d: f2 0f 59 05 5b b5 00 00     	mulsd	46427(%rip), %xmm0
1000059a5: f2 0f 58 05 5b b5 00 00     	addsd	46427(%rip), %xmm0
1000059ad: f2 0f 10 51 68              	movsd	104(%rcx), %xmm2
1000059b2: f2 0f 59 c2                 	mulsd	%xmm2, %xmm0
1000059b6: f2 0f 59 41 70              	mulsd	112(%rcx), %xmm0
1000059bb: 4c 8d 73 18                 	leaq	24(%rbx), %r14
1000059bf: f2 0f 59 0d 49 b5 00 00     	mulsd	46409(%rip), %xmm1
1000059c7: f2 0f 11 43 18              	movsd	%xmm0, 24(%rbx)
1000059cc: f2 0f 58 0d 44 b5 00 00     	addsd	46404(%rip), %xmm1
1000059d4: f2 0f 59 ca                 	mulsd	%xmm2, %xmm1
1000059d8: f2 0f 11 4b 20              	movsd	%xmm1, 32(%rbx)
1000059dd: 48 b8 00 00 00 00 00 00 f0 3f       	movabsq	$4607182418800017408, %rax
1000059e7: 48 89 43 28                 	movq	%rax, 40(%rbx)
1000059eb: 48 8d 71 78                 	leaq	120(%rcx), %rsi
1000059ef: 48 8d 7d d8                 	leaq	-40(%rbp), %rdi
1000059f3: 4c 89 f2                    	movq	%r14, %rdx
1000059f6: e8 95 e8 ff ff              	callq	-5995 <_cam_to_world>
1000059fb: 48 8b 45 e8                 	movq	-24(%rbp), %rax
1000059ff: 48 89 43 28                 	movq	%rax, 40(%rbx)
100005a03: 48 8b 45 d8                 	movq	-40(%rbp), %rax
100005a07: 48 8b 4d e0                 	movq	-32(%rbp), %rcx
100005a0b: 48 89 4b 20                 	movq	%rcx, 32(%rbx)
100005a0f: 48 89 43 18                 	movq	%rax, 24(%rbx)
100005a13: 48 8d 7d d8                 	leaq	-40(%rbp), %rdi
100005a17: 4c 89 f6                    	movq	%r14, %rsi
100005a1a: e8 b1 33 00 00              	callq	13233 <_normalize>
100005a1f: 48 83 c4 20                 	addq	$32, %rsp
100005a23: 5b                          	popq	%rbx
100005a24: 41 5e                       	popq	%r14
100005a26: 5d                          	popq	%rbp
100005a27: c3                          	retq
100005a28: 0f 1f 84 00 00 00 00 00     	nopl	(%rax,%rax)

0000000100005a30 _shadow_ray:
100005a30: 55                          	pushq	%rbp
100005a31: 48 89 e5                    	movq	%rsp, %rbp
100005a34: 41 57                       	pushq	%r15
100005a36: 41 56                       	pushq	%r14
100005a38: 41 55                       	pushq	%r13
100005a3a: 41 54                       	pushq	%r12
100005a3c: 53                          	pushq	%rbx
100005a3d: 48 83 ec 58                 	subq	$88, %rsp
100005a41: 49 89 cd                    	movq	%rcx, %r13
100005a44: 48 89 55 d0                 	movq	%rdx, -48(%rbp)
100005a48: 49 89 f6                    	movq	%rsi, %r14
100005a4b: 48 89 fb                    	movq	%rdi, %rbx
100005a4e: 4c 8d 67 30                 	leaq	48(%rdi), %r12
100005a52: 48 8b 41 18                 	movq	24(%rcx), %rax
100005a56: 48 89 47 40                 	movq	%rax, 64(%rdi)
100005a5a: 48 8b 41 08                 	movq	8(%rcx), %rax
100005a5e: 48 8b 49 10                 	movq	16(%rcx), %rcx
100005a62: 48 89 4f 38                 	movq	%rcx, 56(%rdi)
100005a66: 48 89 47 30                 	movq	%rax, 48(%rdi)
100005a6a: 4c 8d 7f 48                 	leaq	72(%rdi), %r15
100005a6e: 49 8b 45 18                 	movq	24(%r13), %rax
100005a72: 4d 8b 4d 08                 	movq	8(%r13), %r9
100005a76: 49 8b 55 10                 	movq	16(%r13), %rdx
100005a7a: 48 8b 76 20                 	movq	32(%rsi), %rsi
100005a7e: 4d 8b 46 10                 	movq	16(%r14), %r8
100005a82: 49 8b 4e 18                 	movq	24(%r14), %rcx
100005a86: 48 8d 7d 80                 	leaq	-128(%rbp), %rdi
100005a8a: 50                          	pushq	%rax
100005a8b: 52                          	pushq	%rdx
100005a8c: 41 51                       	pushq	%r9
100005a8e: 56                          	pushq	%rsi
100005a8f: 51                          	pushq	%rcx
100005a90: 41 50                       	pushq	%r8
100005a92: e8 b9 32 00 00              	callq	12985 <_vec_sub>
100005a97: 48 83 c4 30                 	addq	$48, %rsp
100005a9b: 48 8b 45 90                 	movq	-112(%rbp), %rax
100005a9f: 48 89 43 58                 	movq	%rax, 88(%rbx)
100005aa3: 48 8b 45 80                 	movq	-128(%rbp), %rax
100005aa7: 48 8b 4d 88                 	movq	-120(%rbp), %rcx
100005aab: 48 89 4b 50                 	movq	%rcx, 80(%rbx)
100005aaf: 48 89 43 48                 	movq	%rax, 72(%rbx)
100005ab3: 48 8d 7d 80                 	leaq	-128(%rbp), %rdi
100005ab7: 4c 89 fe                    	movq	%r15, %rsi
100005aba: e8 11 33 00 00              	callq	13073 <_normalize>
100005abf: 4c 8b 4b 58                 	movq	88(%rbx), %r9
100005ac3: 48 8b 4b 50                 	movq	80(%rbx), %rcx
100005ac7: 48 8b 53 48                 	movq	72(%rbx), %rdx
100005acb: 48 8b 73 40                 	movq	64(%rbx), %rsi
100005acf: 4c 8b 43 30                 	movq	48(%rbx), %r8
100005ad3: 48 8b 43 38                 	movq	56(%rbx), %rax
100005ad7: 48 8d 7d 80                 	leaq	-128(%rbp), %rdi
100005adb: f2 0f 10 05 3d b4 00 00     	movsd	46141(%rip), %xmm0
100005ae3: 41 51                       	pushq	%r9
100005ae5: 51                          	pushq	%rcx
100005ae6: 52                          	pushq	%rdx
100005ae7: 56                          	pushq	%rsi
100005ae8: 50                          	pushq	%rax
100005ae9: 41 50                       	pushq	%r8
100005aeb: e8 d0 34 00 00              	callq	13520 <_at>
100005af0: 48 83 c4 30                 	addq	$48, %rsp
100005af4: 48 8b 45 90                 	movq	-112(%rbp), %rax
100005af8: 48 89 43 40                 	movq	%rax, 64(%rbx)
100005afc: 48 8b 45 80                 	movq	-128(%rbp), %rax
100005b00: 48 8b 4d 88                 	movq	-120(%rbp), %rcx
100005b04: 48 89 4b 38                 	movq	%rcx, 56(%rbx)
100005b08: 48 89 43 30                 	movq	%rax, 48(%rbx)
100005b0c: 48 8d 55 80                 	leaq	-128(%rbp), %rdx
100005b10: 4c 89 e7                    	movq	%r12, %rdi
100005b13: 48 8b 75 d0                 	movq	-48(%rbp), %rsi
100005b17: e8 44 22 00 00              	callq	8772 <_get_closes_object>
100005b1c: 48 85 c0                    	testq	%rax, %rax
100005b1f: 74 38                       	je	56 <_shadow_ray+0x129>
100005b21: 49 83 c5 08                 	addq	$8, %r13
100005b25: 49 83 c6 10                 	addq	$16, %r14
100005b29: 49 8b 46 10                 	movq	16(%r14), %rax
100005b2d: 49 8b 0e                    	movq	(%r14), %rcx
100005b30: 49 8b 56 08                 	movq	8(%r14), %rdx
100005b34: 49 8b 75 10                 	movq	16(%r13), %rsi
100005b38: 49 8b 7d 00                 	movq	(%r13), %rdi
100005b3c: 49 8b 5d 08                 	movq	8(%r13), %rbx
100005b40: 50                          	pushq	%rax
100005b41: 52                          	pushq	%rdx
100005b42: 51                          	pushq	%rcx
100005b43: 56                          	pushq	%rsi
100005b44: 53                          	pushq	%rbx
100005b45: 57                          	pushq	%rdi
100005b46: e8 e5 34 00 00              	callq	13541 <_distance>
100005b4b: 48 83 c4 30                 	addq	$48, %rsp
100005b4f: 66 0f 2e 45 80              	ucomisd	-128(%rbp), %xmm0
100005b54: 0f 97 c0                    	seta	%al
100005b57: eb 02                       	jmp	2 <_shadow_ray+0x12b>
100005b59: 31 c0                       	xorl	%eax, %eax
100005b5b: 48 83 c4 58                 	addq	$88, %rsp
100005b5f: 5b                          	popq	%rbx
100005b60: 41 5c                       	popq	%r12
100005b62: 41 5d                       	popq	%r13
100005b64: 41 5e                       	popq	%r14
100005b66: 41 5f                       	popq	%r15
100005b68: 5d                          	popq	%rbp
100005b69: c3                          	retq
100005b6a: 66 0f 1f 44 00 00           	nopw	(%rax,%rax)

0000000100005b70 _raytrace:
100005b70: 55                          	pushq	%rbp
100005b71: 48 89 e5                    	movq	%rsp, %rbp
100005b74: 41 57                       	pushq	%r15
100005b76: 41 56                       	pushq	%r14
100005b78: 41 55                       	pushq	%r13
100005b7a: 41 54                       	pushq	%r12
100005b7c: 53                          	pushq	%rbx
100005b7d: 48 81 ec 38 01 00 00        	subq	$312, %rsp
100005b84: 4c 89 45 d0                 	movq	%r8, -48(%rbp)
100005b88: 49 89 cd                    	movq	%rcx, %r13
100005b8b: 49 89 d4                    	movq	%rdx, %r12
100005b8e: 49 89 f6                    	movq	%rsi, %r14
100005b91: 48 89 fb                    	movq	%rdi, %rbx
100005b94: 48 8b b6 20 01 00 00        	movq	288(%rsi), %rsi
100005b9b: 48 89 d7                    	movq	%rdx, %rdi
100005b9e: 48 89 ca                    	movq	%rcx, %rdx
100005ba1: e8 ba 21 00 00              	callq	8634 <_get_closes_object>
100005ba6: 49 89 44 24 60              	movq	%rax, 96(%r12)
100005bab: 48 85 c0                    	testq	%rax, %rax
100005bae: 0f 84 a0 02 00 00           	je	672 <_raytrace+0x2e4>
100005bb4: 49 89 c7                    	movq	%rax, %r15
100005bb7: 48 89 9d 70 ff ff ff        	movq	%rbx, -144(%rbp)
100005bbe: 48 8d bd 08 ff ff ff        	leaq	-248(%rbp), %rdi
100005bc5: 48 89 c6                    	movq	%rax, %rsi
100005bc8: e8 53 0e 00 00              	callq	3667 <_get_specular_addr>
100005bcd: 48 8b 85 40 ff ff ff        	movq	-192(%rbp), %rax
100005bd4: 48 89 45 b0                 	movq	%rax, -80(%rbp)
100005bd8: 48 8b 85 38 ff ff ff        	movq	-200(%rbp), %rax
100005bdf: 48 89 45 a8                 	movq	%rax, -88(%rbp)
100005be3: 48 8b 85 30 ff ff ff        	movq	-208(%rbp), %rax
100005bea: 48 89 45 a0                 	movq	%rax, -96(%rbp)
100005bee: 48 8b 85 28 ff ff ff        	movq	-216(%rbp), %rax
100005bf5: 48 89 45 98                 	movq	%rax, -104(%rbp)
100005bf9: 48 8b 85 20 ff ff ff        	movq	-224(%rbp), %rax
100005c00: 48 89 45 90                 	movq	%rax, -112(%rbp)
100005c04: 48 8b 85 18 ff ff ff        	movq	-232(%rbp), %rax
100005c0b: 48 89 45 88                 	movq	%rax, -120(%rbp)
100005c0f: 48 8b 85 08 ff ff ff        	movq	-248(%rbp), %rax
100005c16: 48 8b 8d 10 ff ff ff        	movq	-240(%rbp), %rcx
100005c1d: 48 89 4d 80                 	movq	%rcx, -128(%rbp)
100005c21: 48 89 85 78 ff ff ff        	movq	%rax, -136(%rbp)
100005c28: 49 8b 74 24 60              	movq	96(%r12), %rsi
100005c2d: 4c 89 ef                    	movq	%r13, %rdi
100005c30: e8 3b 0d 00 00              	callq	3387 <_handle_bump>
100005c35: 4c 89 ff                    	movq	%r15, %rdi
100005c38: 4c 89 ee                    	movq	%r13, %rsi
100005c3b: e8 d0 e8 ff ff              	callq	-5936 <_checkread_borad>
100005c40: 48 8d 9d 08 ff ff ff        	leaq	-248(%rbp), %rbx
100005c47: 48 89 df                    	movq	%rbx, %rdi
100005c4a: 4c 89 f6                    	movq	%r14, %rsi
100005c4d: 4c 89 e2                    	movq	%r12, %rdx
100005c50: 4c 89 f9                    	movq	%r15, %rcx
100005c53: 4d 89 e8                    	movq	%r13, %r8
100005c56: e8 55 f1 ff ff              	callq	-3755 <_get_light_effect>
100005c5b: 48 8d bd a8 fe ff ff        	leaq	-344(%rbp), %rdi
100005c62: b9 0c 00 00 00              	movl	$12, %ecx
100005c67: 48 89 de                    	movq	%rbx, %rsi
100005c6a: f3 48 a5                    	rep		movsq	(%rsi), %es:(%rdi)
100005c6d: 48 8b 45 d0                 	movq	-48(%rbp), %rax
100005c71: 8d 50 ff                    	leal	-1(%rax), %edx
100005c74: 83 f8 02                    	cmpl	$2, %eax
100005c77: 0f 8c 4a 01 00 00           	jl	330 <_raytrace+0x257>
100005c7d: 66 0f 57 c0                 	xorpd	%xmm0, %xmm0
100005c81: 66 0f 2e 45 80              	ucomisd	-128(%rbp), %xmm0
100005c86: 0f 83 3b 01 00 00           	jae	315 <_raytrace+0x257>
100005c8c: 49 8b 45 18                 	movq	24(%r13), %rax
100005c90: 48 89 85 18 ff ff ff        	movq	%rax, -232(%rbp)
100005c97: 49 8b 45 08                 	movq	8(%r13), %rax
100005c9b: 49 8b 4d 10                 	movq	16(%r13), %rcx
100005c9f: 48 89 8d 10 ff ff ff        	movq	%rcx, -240(%rbp)
100005ca6: 48 89 85 08 ff ff ff        	movq	%rax, -248(%rbp)
100005cad: 49 8b 45 30                 	movq	48(%r13), %rax
100005cb1: 89 55 d0                    	movl	%edx, -48(%rbp)
100005cb4: 4d 8b 45 20                 	movq	32(%r13), %r8
100005cb8: 49 8b 55 28                 	movq	40(%r13), %rdx
100005cbc: 49 8b 74 24 28              	movq	40(%r12), %rsi
100005cc1: 49 8b 7c 24 18              	movq	24(%r12), %rdi
100005cc6: 49 8b 4c 24 20              	movq	32(%r12), %rcx
100005ccb: 50                          	pushq	%rax
100005ccc: 52                          	pushq	%rdx
100005ccd: 41 50                       	pushq	%r8
100005ccf: 56                          	pushq	%rsi
100005cd0: 51                          	pushq	%rcx
100005cd1: 57                          	pushq	%rdi
100005cd2: e8 e9 31 00 00              	callq	12777 <_dot_product>
100005cd7: 48 83 c4 30                 	addq	$48, %rsp
100005cdb: f2 0f 58 c0                 	addsd	%xmm0, %xmm0
100005cdf: 48 83 ec 08                 	subq	$8, %rsp
100005ce3: 49 8b 45 30                 	movq	48(%r13), %rax
100005ce7: 49 8b 4d 20                 	movq	32(%r13), %rcx
100005ceb: 49 8b 55 28                 	movq	40(%r13), %rdx
100005cef: 48 8d 7d b8                 	leaq	-72(%rbp), %rdi
100005cf3: 50                          	pushq	%rax
100005cf4: 52                          	pushq	%rdx
100005cf5: 51                          	pushq	%rcx
100005cf6: e8 85 30 00 00              	callq	12421 <_scalar_mult>
100005cfb: 48 83 c4 20                 	addq	$32, %rsp
100005cff: 48 8b 45 c8                 	movq	-56(%rbp), %rax
100005d03: 48 89 85 30 ff ff ff        	movq	%rax, -208(%rbp)
100005d0a: 48 8b 45 b8                 	movq	-72(%rbp), %rax
100005d0e: 48 8b 4d c0                 	movq	-64(%rbp), %rcx
100005d12: 48 89 8d 28 ff ff ff        	movq	%rcx, -216(%rbp)
100005d19: 48 89 85 20 ff ff ff        	movq	%rax, -224(%rbp)
100005d20: 48 8b 85 30 ff ff ff        	movq	-208(%rbp), %rax
100005d27: 48 8b 8d 20 ff ff ff        	movq	-224(%rbp), %rcx
100005d2e: 48 8b 95 28 ff ff ff        	movq	-216(%rbp), %rdx
100005d35: 49 8b 74 24 28              	movq	40(%r12), %rsi
100005d3a: 4d 8b 44 24 18              	movq	24(%r12), %r8
100005d3f: 49 8b 5c 24 20              	movq	32(%r12), %rbx
100005d44: 48 8d 7d b8                 	leaq	-72(%rbp), %rdi
100005d48: 50                          	pushq	%rax
100005d49: 52                          	pushq	%rdx
100005d4a: 51                          	pushq	%rcx
100005d4b: 56                          	pushq	%rsi
100005d4c: 53                          	pushq	%rbx
100005d4d: 41 50                       	pushq	%r8
100005d4f: e8 fc 2f 00 00              	callq	12284 <_vec_sub>
100005d54: 48 83 c4 30                 	addq	$48, %rsp
100005d58: 48 8b 45 c8                 	movq	-56(%rbp), %rax
100005d5c: 48 89 85 30 ff ff ff        	movq	%rax, -208(%rbp)
100005d63: 48 8b 45 b8                 	movq	-72(%rbp), %rax
100005d67: 48 8b 4d c0                 	movq	-64(%rbp), %rcx
100005d6b: 48 89 8d 28 ff ff ff        	movq	%rcx, -216(%rbp)
100005d72: 48 89 85 20 ff ff ff        	movq	%rax, -224(%rbp)
100005d79: 48 8d 7d b8                 	leaq	-72(%rbp), %rdi
100005d7d: 48 8d b5 20 ff ff ff        	leaq	-224(%rbp), %rsi
100005d84: e8 47 30 00 00              	callq	12359 <_normalize>
100005d89: 48 8d 7d b8                 	leaq	-72(%rbp), %rdi
100005d8d: 48 8d 95 08 ff ff ff        	leaq	-248(%rbp), %rdx
100005d94: 4c 89 f6                    	movq	%r14, %rsi
100005d97: 4c 89 e9                    	movq	%r13, %rcx
100005d9a: 44 8b 45 d0                 	movl	-48(%rbp), %r8d
100005d9e: e8 cd fd ff ff              	callq	-563 <_raytrace>
100005da3: 8b 55 d0                    	movl	-48(%rbp), %edx
100005da6: 48 8b 45 c8                 	movq	-56(%rbp), %rax
100005daa: 48 89 85 00 ff ff ff        	movq	%rax, -256(%rbp)
100005db1: 48 8b 45 b8                 	movq	-72(%rbp), %rax
100005db5: 48 8b 4d c0                 	movq	-64(%rbp), %rcx
100005db9: 48 89 8d f8 fe ff ff        	movq	%rcx, -264(%rbp)
100005dc0: 48 89 85 f0 fe ff ff        	movq	%rax, -272(%rbp)
100005dc7: 48 81 ec a0 00 00 00        	subq	$160, %rsp
100005dce: 48 8d b5 a8 fe ff ff        	leaq	-344(%rbp), %rsi
100005dd5: b9 0c 00 00 00              	movl	$12, %ecx
100005dda: 48 89 e7                    	movq	%rsp, %rdi
100005ddd: f3 48 a5                    	rep		movsq	(%rsi), %es:(%rdi)
100005de0: 48 8b 45 b0                 	movq	-80(%rbp), %rax
100005de4: 48 89 84 24 98 00 00 00     	movq	%rax, 152(%rsp)
100005dec: 48 8b 45 a8                 	movq	-88(%rbp), %rax
100005df0: 48 89 84 24 90 00 00 00     	movq	%rax, 144(%rsp)
100005df8: 48 8b 45 a0                 	movq	-96(%rbp), %rax
100005dfc: 48 89 84 24 88 00 00 00     	movq	%rax, 136(%rsp)
100005e04: 48 8b 45 98                 	movq	-104(%rbp), %rax
100005e08: 48 89 84 24 80 00 00 00     	movq	%rax, 128(%rsp)
100005e10: 48 8b 45 90                 	movq	-112(%rbp), %rax
100005e14: 48 89 44 24 78              	movq	%rax, 120(%rsp)
100005e19: 48 8b 45 88                 	movq	-120(%rbp), %rax
100005e1d: 48 89 44 24 70              	movq	%rax, 112(%rsp)
100005e22: 48 8b 85 78 ff ff ff        	movq	-136(%rbp), %rax
100005e29: 48 8b 4d 80                 	movq	-128(%rbp), %rcx
100005e2d: 48 89 4c 24 68              	movq	%rcx, 104(%rsp)
100005e32: 48 89 44 24 60              	movq	%rax, 96(%rsp)
100005e37: 48 8b 9d 70 ff ff ff        	movq	-144(%rbp), %rbx
100005e3e: 48 89 df                    	movq	%rbx, %rdi
100005e41: 89 d6                       	movl	%edx, %esi
100005e43: 4c 89 fa                    	movq	%r15, %rdx
100005e46: e8 e5 f5 ff ff              	callq	-2587 <_convert_light>
100005e4b: 48 81 c4 a0 00 00 00        	addq	$160, %rsp
100005e52: eb 17                       	jmp	23 <_raytrace+0x2fb>
100005e54: 48 c7 43 10 00 00 00 00     	movq	$0, 16(%rbx)
100005e5c: 48 c7 43 08 00 00 00 00     	movq	$0, 8(%rbx)
100005e64: 48 c7 03 00 00 00 00        	movq	$0, (%rbx)
100005e6b: 48 89 d8                    	movq	%rbx, %rax
100005e6e: 48 81 c4 38 01 00 00        	addq	$312, %rsp
100005e75: 5b                          	popq	%rbx
100005e76: 41 5c                       	popq	%r12
100005e78: 41 5d                       	popq	%r13
100005e7a: 41 5e                       	popq	%r14
100005e7c: 41 5f                       	popq	%r15
100005e7e: 5d                          	popq	%rbp
100005e7f: c3                          	retq

0000000100005e80 _close_key:
100005e80: 55                          	pushq	%rbp
100005e81: 48 89 e5                    	movq	%rsp, %rbp
100005e84: 53                          	pushq	%rbx
100005e85: 50                          	pushq	%rax
100005e86: 48 89 f3                    	movq	%rsi, %rbx
100005e89: 48 8b 86 30 01 00 00        	movq	304(%rsi), %rax
100005e90: 48 8b 38                    	movq	(%rax), %rdi
100005e93: 48 8b 70 10                 	movq	16(%rax), %rsi
100005e97: e8 14 76 00 00              	callq	30228 <_mlx_destroy_image>
100005e9c: 48 8b 83 30 01 00 00        	movq	304(%rbx), %rax
100005ea3: 48 8b 38                    	movq	(%rax), %rdi
100005ea6: 48 8b 70 08                 	movq	8(%rax), %rsi
100005eaa: e8 e1 6a 00 00              	callq	27361 <_mlx_destroy_window>
100005eaf: 48 8d bb 20 01 00 00        	leaq	288(%rbx), %rdi
100005eb6: e8 e5 d9 ff ff              	callq	-9755 <_clearobjs>
100005ebb: 48 8d bb 28 01 00 00        	leaq	296(%rbx), %rdi
100005ec2: e8 49 da ff ff              	callq	-9655 <_clearlights>
100005ec7: 31 ff                       	xorl	%edi, %edi
100005ec9: e8 52 83 00 00              	callq	33618 <dyld_stub_binder+0x10000e220>
100005ece: 66 90                       	nop

0000000100005ed0 _m_close:
100005ed0: 55                          	pushq	%rbp
100005ed1: 48 89 e5                    	movq	%rsp, %rbp
100005ed4: 53                          	pushq	%rbx
100005ed5: 50                          	pushq	%rax
100005ed6: 48 89 fb                    	movq	%rdi, %rbx
100005ed9: 48 81 c7 20 01 00 00        	addq	$288, %rdi
100005ee0: e8 bb d9 ff ff              	callq	-9797 <_clearobjs>
100005ee5: 48 81 c3 28 01 00 00        	addq	$296, %rbx
100005eec: 48 89 df                    	movq	%rbx, %rdi
100005eef: e8 1c da ff ff              	callq	-9700 <_clearlights>
100005ef4: bf 01 00 00 00              	movl	$1, %edi
100005ef9: e8 22 83 00 00              	callq	33570 <dyld_stub_binder+0x10000e220>
100005efe: 66 90                       	nop

0000000100005f00 _hook_func:
100005f00: 55                          	pushq	%rbp
100005f01: 48 89 e5                    	movq	%rsp, %rbp
100005f04: 48 83 ec 40                 	subq	$64, %rsp
100005f08: 48 8b 05 01 21 02 00        	movq	139521(%rip), %rax
100005f0f: 48 8b 00                    	movq	(%rax), %rax
100005f12: 48 89 45 f8                 	movq	%rax, -8(%rbp)
100005f16: 48 8d 05 a3 0e 00 00        	leaq	3747(%rip), %rax
100005f1d: 48 89 45 c0                 	movq	%rax, -64(%rbp)
100005f21: 48 8d 05 58 ff ff ff        	leaq	-168(%rip), %rax
100005f28: 48 89 45 c8                 	movq	%rax, -56(%rbp)
100005f2c: 48 8d 05 2d e7 ff ff        	leaq	-6355(%rip), %rax
100005f33: 48 89 45 d0                 	movq	%rax, -48(%rbp)
100005f37: 48 8d 05 b2 e7 ff ff        	leaq	-6222(%rip), %rax
100005f3e: 48 89 45 d8                 	movq	%rax, -40(%rbp)
100005f42: 48 8d 05 a7 e6 ff ff        	leaq	-6489(%rip), %rax
100005f49: 48 89 45 e0                 	movq	%rax, -32(%rbp)
100005f4d: 48 8d 05 2c e8 ff ff        	leaq	-6100(%rip), %rax
100005f54: 48 89 45 e8                 	movq	%rax, -24(%rbp)
100005f58: 48 8d 05 21 ec ff ff        	leaq	-5087(%rip), %rax
100005f5f: 48 89 45 f0                 	movq	%rax, -16(%rbp)
100005f63: 48 63 c7                    	movslq	%edi, %rax
100005f66: 48 8b 44 c5 c0              	movq	-64(%rbp,%rax,8), %rax
100005f6b: 48 8b 0d 9e 20 02 00        	movq	139422(%rip), %rcx
100005f72: 48 8b 09                    	movq	(%rcx), %rcx
100005f75: 48 3b 4d f8                 	cmpq	-8(%rbp), %rcx
100005f79: 75 06                       	jne	6 <_hook_func+0x81>
100005f7b: 48 83 c4 40                 	addq	$64, %rsp
100005f7f: 5d                          	popq	%rbp
100005f80: c3                          	retq
100005f81: e8 6a 82 00 00              	callq	33386 <dyld_stub_binder+0x10000e1f0>
100005f86: 66 2e 0f 1f 84 00 00 00 00 00       	nopw	%cs:(%rax,%rax)

0000000100005f90 _key_hook:
100005f90: 55                          	pushq	%rbp
100005f91: 48 89 e5                    	movq	%rsp, %rbp
100005f94: 41 57                       	pushq	%r15
100005f96: 41 56                       	pushq	%r14
100005f98: 41 55                       	pushq	%r13
100005f9a: 41 54                       	pushq	%r12
100005f9c: 53                          	pushq	%rbx
100005f9d: 48 83 ec 48                 	subq	$72, %rsp
100005fa1: 49 89 f6                    	movq	%rsi, %r14
100005fa4: 89 fb                       	movl	%edi, %ebx
100005fa6: 48 8b 05 63 20 02 00        	movq	139363(%rip), %rax
100005fad: 48 8b 00                    	movq	(%rax), %rax
100005fb0: 48 89 45 d0                 	movq	%rax, -48(%rbp)
100005fb4: 31 c0                       	xorl	%eax, %eax
100005fb6: 83 ff 35                    	cmpl	$53, %edi
100005fb9: 0f 94 c0                    	sete	%al
100005fbc: 8d 4b 85                    	leal	-123(%rbx), %ecx
100005fbf: 31 d2                       	xorl	%edx, %edx
100005fc1: 83 f9 02                    	cmpl	$2, %ecx
100005fc4: 0f 92 c2                    	setb	%dl
100005fc7: 48 8d 34 50                 	leaq	(%rax,%rdx,2), %rsi
100005fcb: 8d 4b 83                    	leal	-125(%rbx), %ecx
100005fce: 31 d2                       	xorl	%edx, %edx
100005fd0: 83 f9 02                    	cmpl	$2, %ecx
100005fd3: 0f 92 c2                    	setb	%dl
100005fd6: 48 8d 0c 52                 	leaq	(%rdx,%rdx,2), %rcx
100005fda: 83 ff 4e                    	cmpl	$78, %edi
100005fdd: 0f 94 c2                    	sete	%dl
100005fe0: 83 ff 45                    	cmpl	$69, %edi
100005fe3: 0f 94 c0                    	sete	%al
100005fe6: 08 d0                       	orb	%dl, %al
100005fe8: 0f b6 c0                    	movzbl	%al, %eax
100005feb: 48 c1 e0 02                 	shlq	$2, %rax
100005fef: 48 09 c8                    	orq	%rcx, %rax
100005ff2: 48 01 f0                    	addq	%rsi, %rax
100005ff5: 48 8d 0d c4 0d 00 00        	leaq	3524(%rip), %rcx
100005ffc: 48 89 4d 90                 	movq	%rcx, -112(%rbp)
100006000: 48 8d 0d 79 fe ff ff        	leaq	-391(%rip), %rcx
100006007: 48 89 4d 98                 	movq	%rcx, -104(%rbp)
10000600b: 48 8d 0d 4e e6 ff ff        	leaq	-6578(%rip), %rcx
100006012: 48 89 4d a0                 	movq	%rcx, -96(%rbp)
100006016: 48 8d 0d d3 e6 ff ff        	leaq	-6445(%rip), %rcx
10000601d: 48 89 4d a8                 	movq	%rcx, -88(%rbp)
100006021: 4c 8d 25 c8 e5 ff ff        	leaq	-6712(%rip), %r12
100006028: 4c 89 65 b0                 	movq	%r12, -80(%rbp)
10000602c: 4c 8d 2d 4d e7 ff ff        	leaq	-6323(%rip), %r13
100006033: 4c 89 6d b8                 	movq	%r13, -72(%rbp)
100006037: 4c 8d 3d 42 eb ff ff        	leaq	-5310(%rip), %r15
10000603e: 4c 89 7d c0                 	movq	%r15, -64(%rbp)
100006042: 4c 89 f6                    	movq	%r14, %rsi
100006045: ff 54 c5 90                 	callq	*-112(%rbp,%rax,8)
100006049: 31 c0                       	xorl	%eax, %eax
10000604b: 83 fb 08                    	cmpl	$8, %ebx
10000604e: 0f 94 c0                    	sete	%al
100006051: 31 c9                       	xorl	%ecx, %ecx
100006053: 83 fb 23                    	cmpl	$35, %ebx
100006056: 0f 94 c1                    	sete	%cl
100006059: 8d 04 48                    	leal	(%rax,%rcx,2), %eax
10000605c: 31 c9                       	xorl	%ecx, %ecx
10000605e: 83 fb 01                    	cmpl	$1, %ebx
100006061: 74 0d                       	je	13 <_key_hook+0xe0>
100006063: 83 fb 23                    	cmpl	$35, %ebx
100006066: 74 08                       	je	8 <_key_hook+0xe0>
100006068: 31 c9                       	xorl	%ecx, %ecx
10000606a: 83 fb 08                    	cmpl	$8, %ebx
10000606d: 0f 95 c1                    	setne	%cl
100006070: 41 0f af 8e 3c 01 00 00     	imull	316(%r14), %ecx
100006078: 01 c1                       	addl	%eax, %ecx
10000607a: 41 89 8e 3c 01 00 00        	movl	%ecx, 316(%r14)
100006081: 83 fb 26                    	cmpl	$38, %ebx
100006084: 77 17                       	ja	23 <_key_hook+0x10d>
100006086: b9 05 00 00 00              	movl	$5, %ecx
10000608b: 89 d8                       	movl	%ebx, %eax
10000608d: 48 ba 00 00 00 00 64 00 00 00       	movabsq	$429496729600, %rdx
100006097: 48 0f a3 c2                 	btq	%rax, %rdx
10000609b: 72 0b                       	jb	11 <_key_hook+0x118>
10000609d: 31 c0                       	xorl	%eax, %eax
10000609f: 83 fb 28                    	cmpl	$40, %ebx
1000060a2: 0f 94 c0                    	sete	%al
1000060a5: 8d 0c 80                    	leal	(%rax,%rax,4), %ecx
1000060a8: 31 c0                       	xorl	%eax, %eax
1000060aa: 83 fb 1b                    	cmpl	$27, %ebx
1000060ad: ba 06 00 00 00              	movl	$6, %edx
1000060b2: 0f 44 c2                    	cmovel	%edx, %eax
1000060b5: 83 fb 18                    	cmpl	$24, %ebx
1000060b8: 0f 44 c2                    	cmovel	%edx, %eax
1000060bb: 01 c8                       	addl	%ecx, %eax
1000060bd: 83 f8 06                    	cmpl	$6, %eax
1000060c0: 77 43                       	ja	67 <_key_hook+0x175>
1000060c2: 48 8d 0d f7 0c 00 00        	leaq	3319(%rip), %rcx
1000060c9: 48 89 4d 90                 	movq	%rcx, -112(%rbp)
1000060cd: 48 8d 0d ac fd ff ff        	leaq	-596(%rip), %rcx
1000060d4: 48 89 4d 98                 	movq	%rcx, -104(%rbp)
1000060d8: 48 8d 0d 81 e5 ff ff        	leaq	-6783(%rip), %rcx
1000060df: 48 89 4d a0                 	movq	%rcx, -96(%rbp)
1000060e3: 48 8d 0d 06 e6 ff ff        	leaq	-6650(%rip), %rcx
1000060ea: 48 89 4d a8                 	movq	%rcx, -88(%rbp)
1000060ee: 4c 89 65 b0                 	movq	%r12, -80(%rbp)
1000060f2: 4c 89 6d b8                 	movq	%r13, -72(%rbp)
1000060f6: 4c 89 7d c0                 	movq	%r15, -64(%rbp)
1000060fa: 89 c0                       	movl	%eax, %eax
1000060fc: 89 df                       	movl	%ebx, %edi
1000060fe: 4c 89 f6                    	movq	%r14, %rsi
100006101: ff 54 c5 90                 	callq	*-112(%rbp,%rax,8)
100006105: 48 8b 05 04 1f 02 00        	movq	139012(%rip), %rax
10000610c: 48 8b 00                    	movq	(%rax), %rax
10000610f: 48 3b 45 d0                 	cmpq	-48(%rbp), %rax
100006113: 75 11                       	jne	17 <_key_hook+0x196>
100006115: 31 c0                       	xorl	%eax, %eax
100006117: 48 83 c4 48                 	addq	$72, %rsp
10000611b: 5b                          	popq	%rbx
10000611c: 41 5c                       	popq	%r12
10000611e: 41 5d                       	popq	%r13
100006120: 41 5e                       	popq	%r14
100006122: 41 5f                       	popq	%r15
100006124: 5d                          	popq	%rbp
100006125: c3                          	retq
100006126: e8 c5 80 00 00              	callq	32965 <dyld_stub_binder+0x10000e1f0>
10000612b: 0f 1f 44 00 00              	nopl	(%rax,%rax)

0000000100006130 _hooks_settings:
100006130: 55                          	pushq	%rbp
100006131: 48 89 e5                    	movq	%rsp, %rbp
100006134: 53                          	pushq	%rbx
100006135: 50                          	pushq	%rax
100006136: 48 89 fb                    	movq	%rdi, %rbx
100006139: 48 8b 87 30 01 00 00        	movq	304(%rdi), %rax
100006140: 48 8b 78 08                 	movq	8(%rax), %rdi
100006144: 48 8d 0d 45 fe ff ff        	leaq	-443(%rip), %rcx
10000614b: be 02 00 00 00              	movl	$2, %esi
100006150: ba 01 00 00 00              	movl	$1, %edx
100006155: 49 89 d8                    	movq	%rbx, %r8
100006158: e8 83 67 00 00              	callq	26499 <_mlx_hook>
10000615d: 48 8b 83 30 01 00 00        	movq	304(%rbx), %rax
100006164: 48 8b 78 08                 	movq	8(%rax), %rdi
100006168: 48 8d 0d 61 fd ff ff        	leaq	-671(%rip), %rcx
10000616f: be 11 00 00 00              	movl	$17, %esi
100006174: 31 d2                       	xorl	%edx, %edx
100006176: 49 89 d8                    	movq	%rbx, %r8
100006179: 48 83 c4 08                 	addq	$8, %rsp
10000617d: 5b                          	popq	%rbx
10000617e: 5d                          	popq	%rbp
10000617f: e9 5c 67 00 00              	jmp	26460 <_mlx_hook>
100006184: 90                          	nop
100006185: 90                          	nop
100006186: 90                          	nop
100006187: 90                          	nop
100006188: 90                          	nop
100006189: 90                          	nop
10000618a: 90                          	nop
10000618b: 90                          	nop
10000618c: 90                          	nop
10000618d: 90                          	nop
10000618e: 90                          	nop
10000618f: 90                          	nop

0000000100006190 _texture_init:
100006190: 55                          	pushq	%rbp
100006191: 48 89 e5                    	movq	%rsp, %rbp
100006194: 41 57                       	pushq	%r15
100006196: 41 56                       	pushq	%r14
100006198: 53                          	pushq	%rbx
100006199: 50                          	pushq	%rax
10000619a: 49 89 f6                    	movq	%rsi, %r14
10000619d: 49 89 ff                    	movq	%rdi, %r15
1000061a0: e8 db df ff ff              	callq	-8229 <_get_specular_add>
1000061a5: 48 85 c0                    	testq	%rax, %rax
1000061a8: 74 60                       	je	96 <_texture_init+0x7a>
1000061aa: 48 89 c3                    	movq	%rax, %rbx
1000061ad: 48 83 78 30 00              	cmpq	$0, 48(%rax)
1000061b2: 74 56                       	je	86 <_texture_init+0x7a>
1000061b4: bf 30 00 00 00              	movl	$48, %edi
1000061b9: e8 76 81 00 00              	callq	33142 <dyld_stub_binder+0x10000e334>
1000061be: 49 89 47 08                 	movq	%rax, 8(%r15)
1000061c2: 48 8b 73 30                 	movq	48(%rbx), %rsi
1000061c6: 48 85 c0                    	testq	%rax, %rax
1000061c9: 74 57                       	je	87 <_texture_init+0x92>
1000061cb: 48 89 70 08                 	movq	%rsi, 8(%rax)
1000061cf: 49 8b 3e                    	movq	(%r14), %rdi
1000061d2: 48 8d 50 24                 	leaq	36(%rax), %rdx
1000061d6: 48 83 c0 28                 	addq	$40, %rax
1000061da: 48 89 c1                    	movq	%rax, %rcx
1000061dd: e8 4e 7c 00 00              	callq	31822 <_mlx_xpm_file_to_image>
1000061e2: 49 8b 4f 08                 	movq	8(%r15), %rcx
1000061e6: 48 89 01                    	movq	%rax, (%rcx)
1000061e9: 48 85 c0                    	testq	%rax, %rax
1000061ec: 74 46                       	je	70 <_texture_init+0xa4>
1000061ee: 48 8d 71 18                 	leaq	24(%rcx), %rsi
1000061f2: 48 8d 51 1c                 	leaq	28(%rcx), %rdx
1000061f6: 48 83 c1 20                 	addq	$32, %rcx
1000061fa: 48 89 c7                    	movq	%rax, %rdi
1000061fd: e8 ae 71 00 00              	callq	29102 <_mlx_get_data_addr>
100006202: 49 8b 4f 08                 	movq	8(%r15), %rcx
100006206: 48 89 41 10                 	movq	%rax, 16(%rcx)
10000620a: 41 8a 07                    	movb	(%r15), %al
10000620d: b3 01                       	movb	$1, %bl
10000620f: 0c 02                       	orb	$2, %al
100006211: 3c 02                       	cmpb	$2, %al
100006213: 75 43                       	jne	67 <_texture_init+0xc8>
100006215: 4c 89 ff                    	movq	%r15, %rdi
100006218: 4c 89 f6                    	movq	%r14, %rsi
10000621b: e8 80 df ff ff              	callq	-8320 <_bump_texture>
100006220: eb 36                       	jmp	54 <_texture_init+0xc8>
100006222: 48 89 f7                    	movq	%rsi, %rdi
100006225: e8 08 80 00 00              	callq	32776 <dyld_stub_binder+0x10000e232>
10000622a: 48 c7 43 30 00 00 00 00     	movq	$0, 48(%rbx)
100006232: eb 22                       	jmp	34 <_texture_init+0xc6>
100006234: 48 8b 7b 30                 	movq	48(%rbx), %rdi
100006238: e8 f5 7f 00 00              	callq	32757 <dyld_stub_binder+0x10000e232>
10000623d: 48 c7 43 30 00 00 00 00     	movq	$0, 48(%rbx)
100006245: 49 8b 7f 08                 	movq	8(%r15), %rdi
100006249: e8 e4 7f 00 00              	callq	32740 <dyld_stub_binder+0x10000e232>
10000624e: 49 c7 47 08 00 00 00 00     	movq	$0, 8(%r15)
100006256: 31 db                       	xorl	%ebx, %ebx
100006258: 89 d8                       	movl	%ebx, %eax
10000625a: 48 83 c4 08                 	addq	$8, %rsp
10000625e: 5b                          	popq	%rbx
10000625f: 41 5e                       	popq	%r14
100006261: 41 5f                       	popq	%r15
100006263: 5d                          	popq	%rbp
100006264: c3                          	retq
100006265: 66 2e 0f 1f 84 00 00 00 00 00       	nopw	%cs:(%rax,%rax)
10000626f: 90                          	nop

0000000100006270 _get_cscale_texture:
100006270: 55                          	pushq	%rbp
100006271: 48 89 e5                    	movq	%rsp, %rbp
100006274: 0f af 77 18                 	imull	24(%rdi), %esi
100006278: 8d 46 07                    	leal	7(%rsi), %eax
10000627b: 85 f6                       	testl	%esi, %esi
10000627d: 0f 49 c6                    	cmovnsl	%esi, %eax
100006280: c1 f8 03                    	sarl	$3, %eax
100006283: 0f af 57 1c                 	imull	28(%rdi), %edx
100006287: 01 c2                       	addl	%eax, %edx
100006289: 89 d0                       	movl	%edx, %eax
10000628b: f7 d8                       	negl	%eax
10000628d: 0f 4c c2                    	cmovll	%edx, %eax
100006290: 48 8b 4f 10                 	movq	16(%rdi), %rcx
100006294: 0f b6 54 01 02              	movzbl	2(%rcx,%rax), %edx
100006299: f2 0f 2a ca                 	cvtsi2sd	%edx, %xmm1
10000629d: 0f b6 54 01 01              	movzbl	1(%rcx,%rax), %edx
1000062a2: f2 0f 2a d2                 	cvtsi2sd	%edx, %xmm2
1000062a6: 0f b6 04 01                 	movzbl	(%rcx,%rax), %eax
1000062aa: f2 0f 2a c0                 	cvtsi2sd	%eax, %xmm0
1000062ae: f2 0f 58 c1                 	addsd	%xmm1, %xmm0
1000062b2: f2 0f 59 05 fe ab 00 00     	mulsd	44030(%rip), %xmm0
1000062ba: f2 0f 58 c2                 	addsd	%xmm2, %xmm0
1000062be: 5d                          	popq	%rbp
1000062bf: c3                          	retq

00000001000062c0 _sphere_bump:
1000062c0: 55                          	pushq	%rbp
1000062c1: 48 89 e5                    	movq	%rsp, %rbp
1000062c4: 41 57                       	pushq	%r15
1000062c6: 41 56                       	pushq	%r14
1000062c8: 53                          	pushq	%rbx
1000062c9: 48 81 ec b8 00 00 00        	subq	$184, %rsp
1000062d0: 48 89 f3                    	movq	%rsi, %rbx
1000062d3: 49 89 fe                    	movq	%rdi, %r14
1000062d6: 48 8b 7e 18                 	movq	24(%rsi), %rdi
1000062da: 48 8d 95 78 ff ff ff        	leaq	-136(%rbp), %rdx
1000062e1: 48 8d 4d 80                 	leaq	-128(%rbp), %rcx
1000062e5: 4c 89 f6                    	movq	%r14, %rsi
1000062e8: e8 83 07 00 00              	callq	1923 <_get_uv_sphere>
1000062ed: 0f 57 c0                    	xorps	%xmm0, %xmm0
1000062f0: 0f 29 85 60 ff ff ff        	movaps	%xmm0, -160(%rbp)
1000062f7: 48 b8 00 00 00 00 00 00 f0 3f       	movabsq	$4607182418800017408, %rax
100006301: 48 89 85 70 ff ff ff        	movq	%rax, -144(%rbp)
100006308: 48 8b 53 10                 	movq	16(%rbx), %rdx
10000630c: 44 8b 7a 24                 	movl	36(%rdx), %r15d
100006310: 41 ff cf                    	decl	%r15d
100006313: 0f 57 c0                    	xorps	%xmm0, %xmm0
100006316: f2 41 0f 2a c7              	cvtsi2sd	%r15d, %xmm0
10000631b: f2 0f 59 85 78 ff ff ff     	mulsd	-136(%rbp), %xmm0
100006323: f2 0f 2c c0                 	cvttsd2si	%xmm0, %eax
100006327: 89 45 98                    	movl	%eax, -104(%rbp)
10000632a: f2 0f 10 05 36 ab 00 00     	movsd	43830(%rip), %xmm0
100006332: f2 0f 5c 45 80              	subsd	-128(%rbp), %xmm0
100006337: 44 8b 4a 28                 	movl	40(%rdx), %r9d
10000633b: 41 ff c9                    	decl	%r9d
10000633e: f2 41 0f 2a c9              	cvtsi2sd	%r9d, %xmm1
100006343: f2 0f 59 c8                 	mulsd	%xmm0, %xmm1
100006347: f2 44 0f 2c d9              	cvttsd2si	%xmm1, %r11d
10000634c: 44 89 5d 9c                 	movl	%r11d, -100(%rbp)
100006350: 44 8b 52 18                 	movl	24(%rdx), %r10d
100006354: 44 89 d1                    	movl	%r10d, %ecx
100006357: 0f af c8                    	imull	%eax, %ecx
10000635a: 8d 79 07                    	leal	7(%rcx), %edi
10000635d: 85 c9                       	testl	%ecx, %ecx
10000635f: 0f 49 f9                    	cmovnsl	%ecx, %edi
100006362: c1 ff 03                    	sarl	$3, %edi
100006365: 44 8b 42 1c                 	movl	28(%rdx), %r8d
100006369: 44 89 c1                    	movl	%r8d, %ecx
10000636c: 41 0f af cb                 	imull	%r11d, %ecx
100006370: 8d 1c 39                    	leal	(%rcx,%rdi), %ebx
100006373: 89 de                       	movl	%ebx, %esi
100006375: f7 de                       	negl	%esi
100006377: 0f 4c f3                    	cmovll	%ebx, %esi
10000637a: 48 8b 5a 10                 	movq	16(%rdx), %rbx
10000637e: 0f b6 54 33 02              	movzbl	2(%rbx,%rsi), %edx
100006383: 0f 57 c9                    	xorps	%xmm1, %xmm1
100006386: f2 0f 2a ca                 	cvtsi2sd	%edx, %xmm1
10000638a: 0f b6 54 33 01              	movzbl	1(%rbx,%rsi), %edx
10000638f: f2 0f 2a d2                 	cvtsi2sd	%edx, %xmm2
100006393: 0f b6 14 33                 	movzbl	(%rbx,%rsi), %edx
100006397: 0f 57 c0                    	xorps	%xmm0, %xmm0
10000639a: f2 0f 2a c2                 	cvtsi2sd	%edx, %xmm0
10000639e: f2 0f 58 c1                 	addsd	%xmm1, %xmm0
1000063a2: f2 0f 10 0d 0e ab 00 00     	movsd	43790(%rip), %xmm1
1000063aa: f2 0f 59 c1                 	mulsd	%xmm1, %xmm0
1000063ae: f2 0f 58 c2                 	addsd	%xmm2, %xmm0
1000063b2: f2 0f 11 85 78 ff ff ff     	movsd	%xmm0, -136(%rbp)
1000063ba: ff c0                       	incl	%eax
1000063bc: 99                          	cltd
1000063bd: 41 f7 ff                    	idivl	%r15d
1000063c0: 41 0f af d2                 	imull	%r10d, %edx
1000063c4: 8d 42 07                    	leal	7(%rdx), %eax
1000063c7: 85 d2                       	testl	%edx, %edx
1000063c9: 0f 49 c2                    	cmovnsl	%edx, %eax
1000063cc: c1 f8 03                    	sarl	$3, %eax
1000063cf: 01 c8                       	addl	%ecx, %eax
1000063d1: 89 c1                       	movl	%eax, %ecx
1000063d3: f7 d9                       	negl	%ecx
1000063d5: 0f 4c c8                    	cmovll	%eax, %ecx
1000063d8: 0f b6 44 0b 02              	movzbl	2(%rbx,%rcx), %eax
1000063dd: 0f 57 d2                    	xorps	%xmm2, %xmm2
1000063e0: f2 0f 2a d0                 	cvtsi2sd	%eax, %xmm2
1000063e4: 0f b6 44 0b 01              	movzbl	1(%rbx,%rcx), %eax
1000063e9: f2 0f 2a d8                 	cvtsi2sd	%eax, %xmm3
1000063ed: 0f b6 04 0b                 	movzbl	(%rbx,%rcx), %eax
1000063f1: f2 0f 2a e0                 	cvtsi2sd	%eax, %xmm4
1000063f5: f2 0f 58 e2                 	addsd	%xmm2, %xmm4
1000063f9: f2 0f 59 e1                 	mulsd	%xmm1, %xmm4
1000063fd: f2 0f 58 e3                 	addsd	%xmm3, %xmm4
100006401: f2 0f 11 65 80              	movsd	%xmm4, -128(%rbp)
100006406: 66 0f 28 d8                 	movapd	%xmm0, %xmm3
10000640a: f2 0f 5c dc                 	subsd	%xmm4, %xmm3
10000640e: f2 0f 10 15 12 ab 00 00     	movsd	43794(%rip), %xmm2
100006416: f2 0f 59 da                 	mulsd	%xmm2, %xmm3
10000641a: f2 0f 11 5d 88              	movsd	%xmm3, -120(%rbp)
10000641f: 41 ff c3                    	incl	%r11d
100006422: 44 89 d8                    	movl	%r11d, %eax
100006425: 99                          	cltd
100006426: 41 f7 f9                    	idivl	%r9d
100006429: 41 0f af d0                 	imull	%r8d, %edx
10000642d: 01 fa                       	addl	%edi, %edx
10000642f: 89 d0                       	movl	%edx, %eax
100006431: f7 d8                       	negl	%eax
100006433: 0f 4c c2                    	cmovll	%edx, %eax
100006436: 0f b6 4c 03 02              	movzbl	2(%rbx,%rax), %ecx
10000643b: 0f 57 db                    	xorps	%xmm3, %xmm3
10000643e: f2 0f 2a d9                 	cvtsi2sd	%ecx, %xmm3
100006442: 0f b6 4c 03 01              	movzbl	1(%rbx,%rax), %ecx
100006447: 0f 57 e4                    	xorps	%xmm4, %xmm4
10000644a: f2 0f 2a e1                 	cvtsi2sd	%ecx, %xmm4
10000644e: 0f b6 04 03                 	movzbl	(%rbx,%rax), %eax
100006452: f2 0f 2a e8                 	cvtsi2sd	%eax, %xmm5
100006456: f2 0f 58 eb                 	addsd	%xmm3, %xmm5
10000645a: f2 0f 59 e9                 	mulsd	%xmm1, %xmm5
10000645e: f2 0f 58 ec                 	addsd	%xmm4, %xmm5
100006462: f2 0f 11 6d 80              	movsd	%xmm5, -128(%rbp)
100006467: f2 0f 5c c5                 	subsd	%xmm5, %xmm0
10000646b: f2 0f 59 c2                 	mulsd	%xmm2, %xmm0
10000646f: f2 0f 11 45 90              	movsd	%xmm0, -112(%rbp)
100006474: 48 8b 85 70 ff ff ff        	movq	-144(%rbp), %rax
10000647b: 4c 8b 85 60 ff ff ff        	movq	-160(%rbp), %r8
100006482: 48 8b 95 68 ff ff ff        	movq	-152(%rbp), %rdx
100006489: 49 8b 76 30                 	movq	48(%r14), %rsi
10000648d: 49 8b 5e 20                 	movq	32(%r14), %rbx
100006491: 49 8b 4e 28                 	movq	40(%r14), %rcx
100006495: 48 8d 7d b8                 	leaq	-72(%rbp), %rdi
100006499: 50                          	pushq	%rax
10000649a: 52                          	pushq	%rdx
10000649b: 41 50                       	pushq	%r8
10000649d: 56                          	pushq	%rsi
10000649e: 51                          	pushq	%rcx
10000649f: 53                          	pushq	%rbx
1000064a0: e8 4b 2a 00 00              	callq	10827 <_cross_product>
1000064a5: 48 83 c4 30                 	addq	$48, %rsp
1000064a9: 48 8b 45 c8                 	movq	-56(%rbp), %rax
1000064ad: 48 89 45 b0                 	movq	%rax, -80(%rbp)
1000064b1: 48 8b 45 b8                 	movq	-72(%rbp), %rax
1000064b5: 48 8b 4d c0                 	movq	-64(%rbp), %rcx
1000064b9: 48 89 4d a8                 	movq	%rcx, -88(%rbp)
1000064bd: 48 89 45 a0                 	movq	%rax, -96(%rbp)
1000064c1: 48 8b 45 b0                 	movq	-80(%rbp), %rax
1000064c5: 4c 8b 45 a0                 	movq	-96(%rbp), %r8
1000064c9: 48 8b 55 a8                 	movq	-88(%rbp), %rdx
1000064cd: 49 8b 76 30                 	movq	48(%r14), %rsi
1000064d1: 49 8b 5e 20                 	movq	32(%r14), %rbx
1000064d5: 49 8b 4e 28                 	movq	40(%r14), %rcx
1000064d9: 48 8d 7d d0                 	leaq	-48(%rbp), %rdi
1000064dd: 50                          	pushq	%rax
1000064de: 52                          	pushq	%rdx
1000064df: 41 50                       	pushq	%r8
1000064e1: 56                          	pushq	%rsi
1000064e2: 51                          	pushq	%rcx
1000064e3: 53                          	pushq	%rbx
1000064e4: e8 07 2a 00 00              	callq	10759 <_cross_product>
1000064e9: 48 83 c4 30                 	addq	$48, %rsp
1000064ed: 48 8b 45 e0                 	movq	-32(%rbp), %rax
1000064f1: 48 89 45 c8                 	movq	%rax, -56(%rbp)
1000064f5: 48 8b 45 d0                 	movq	-48(%rbp), %rax
1000064f9: 48 8b 4d d8                 	movq	-40(%rbp), %rcx
1000064fd: 48 89 4d c0                 	movq	%rcx, -64(%rbp)
100006501: 48 89 45 b8                 	movq	%rax, -72(%rbp)
100006505: f2 0f 10 45 90              	movsd	-112(%rbp), %xmm0
10000650a: 48 83 ec 08                 	subq	$8, %rsp
10000650e: 48 8b 45 b0                 	movq	-80(%rbp), %rax
100006512: 48 8b 4d a0                 	movq	-96(%rbp), %rcx
100006516: 48 8b 55 a8                 	movq	-88(%rbp), %rdx
10000651a: 48 8d bd 30 ff ff ff        	leaq	-208(%rbp), %rdi
100006521: 50                          	pushq	%rax
100006522: 52                          	pushq	%rdx
100006523: 51                          	pushq	%rcx
100006524: e8 57 28 00 00              	callq	10327 <_scalar_mult>
100006529: 48 83 c4 20                 	addq	$32, %rsp
10000652d: 48 8b 85 40 ff ff ff        	movq	-192(%rbp), %rax
100006534: 4c 8b 85 30 ff ff ff        	movq	-208(%rbp), %r8
10000653b: 48 8b 95 38 ff ff ff        	movq	-200(%rbp), %rdx
100006542: 49 8b 76 30                 	movq	48(%r14), %rsi
100006546: 49 8b 5e 20                 	movq	32(%r14), %rbx
10000654a: 49 8b 4e 28                 	movq	40(%r14), %rcx
10000654e: 48 8d 7d d0                 	leaq	-48(%rbp), %rdi
100006552: 50                          	pushq	%rax
100006553: 52                          	pushq	%rdx
100006554: 41 50                       	pushq	%r8
100006556: 56                          	pushq	%rsi
100006557: 51                          	pushq	%rcx
100006558: 53                          	pushq	%rbx
100006559: e8 c2 27 00 00              	callq	10178 <_vec_addition>
10000655e: 48 83 c4 30                 	addq	$48, %rsp
100006562: 48 8b 45 e0                 	movq	-32(%rbp), %rax
100006566: 49 89 46 30                 	movq	%rax, 48(%r14)
10000656a: 48 8b 45 d0                 	movq	-48(%rbp), %rax
10000656e: 48 8b 4d d8                 	movq	-40(%rbp), %rcx
100006572: 49 89 4e 28                 	movq	%rcx, 40(%r14)
100006576: 49 89 46 20                 	movq	%rax, 32(%r14)
10000657a: f2 0f 10 45 88              	movsd	-120(%rbp), %xmm0
10000657f: 48 83 ec 08                 	subq	$8, %rsp
100006583: 48 8b 45 c8                 	movq	-56(%rbp), %rax
100006587: 48 8b 4d b8                 	movq	-72(%rbp), %rcx
10000658b: 48 8b 55 c0                 	movq	-64(%rbp), %rdx
10000658f: 48 8d bd 48 ff ff ff        	leaq	-184(%rbp), %rdi
100006596: 50                          	pushq	%rax
100006597: 52                          	pushq	%rdx
100006598: 51                          	pushq	%rcx
100006599: e8 e2 27 00 00              	callq	10210 <_scalar_mult>
10000659e: 48 83 c4 20                 	addq	$32, %rsp
1000065a2: 48 8b 85 58 ff ff ff        	movq	-168(%rbp), %rax
1000065a9: 4c 8b 85 48 ff ff ff        	movq	-184(%rbp), %r8
1000065b0: 48 8b 95 50 ff ff ff        	movq	-176(%rbp), %rdx
1000065b7: 49 8b 76 30                 	movq	48(%r14), %rsi
1000065bb: 49 8b 5e 20                 	movq	32(%r14), %rbx
1000065bf: 49 8b 4e 28                 	movq	40(%r14), %rcx
1000065c3: 48 8d 7d d0                 	leaq	-48(%rbp), %rdi
1000065c7: 50                          	pushq	%rax
1000065c8: 52                          	pushq	%rdx
1000065c9: 41 50                       	pushq	%r8
1000065cb: 56                          	pushq	%rsi
1000065cc: 51                          	pushq	%rcx
1000065cd: 53                          	pushq	%rbx
1000065ce: e8 4d 27 00 00              	callq	10061 <_vec_addition>
1000065d3: 48 83 c4 30                 	addq	$48, %rsp
1000065d7: 48 8b 45 e0                 	movq	-32(%rbp), %rax
1000065db: 49 89 46 30                 	movq	%rax, 48(%r14)
1000065df: 48 8b 45 d0                 	movq	-48(%rbp), %rax
1000065e3: 48 8b 4d d8                 	movq	-40(%rbp), %rcx
1000065e7: 49 89 4e 28                 	movq	%rcx, 40(%r14)
1000065eb: 49 89 46 20                 	movq	%rax, 32(%r14)
1000065ef: b0 01                       	movb	$1, %al
1000065f1: 48 81 c4 b8 00 00 00        	addq	$184, %rsp
1000065f8: 5b                          	popq	%rbx
1000065f9: 41 5e                       	popq	%r14
1000065fb: 41 5f                       	popq	%r15
1000065fd: 5d                          	popq	%rbp
1000065fe: c3                          	retq
1000065ff: 90                          	nop

0000000100006600 _plane_bump:
100006600: 55                          	pushq	%rbp
100006601: 48 89 e5                    	movq	%rsp, %rbp
100006604: 41 57                       	pushq	%r15
100006606: 41 56                       	pushq	%r14
100006608: 53                          	pushq	%rbx
100006609: 48 81 ec b8 00 00 00        	subq	$184, %rsp
100006610: 48 89 f3                    	movq	%rsi, %rbx
100006613: 49 89 fe                    	movq	%rdi, %r14
100006616: 48 8b 7e 18                 	movq	24(%rsi), %rdi
10000661a: 48 8d 95 78 ff ff ff        	leaq	-136(%rbp), %rdx
100006621: 48 8d 4d 80                 	leaq	-128(%rbp), %rcx
100006625: 4c 89 f6                    	movq	%r14, %rsi
100006628: e8 03 05 00 00              	callq	1283 <_get_uv_plane>
10000662d: 48 8b 43 18                 	movq	24(%rbx), %rax
100006631: 48 83 ec 08                 	subq	$8, %rsp
100006635: 48 8b 48 50                 	movq	80(%rax), %rcx
100006639: 48 8b 50 40                 	movq	64(%rax), %rdx
10000663d: 48 8b 40 48                 	movq	72(%rax), %rax
100006641: 48 8d 7d d0                 	leaq	-48(%rbp), %rdi
100006645: 51                          	pushq	%rcx
100006646: 50                          	pushq	%rax
100006647: 52                          	pushq	%rdx
100006648: e8 f3 27 00 00              	callq	10227 <_normalized>
10000664d: 48 83 c4 20                 	addq	$32, %rsp
100006651: 48 8b 45 e0                 	movq	-32(%rbp), %rax
100006655: 48 89 85 70 ff ff ff        	movq	%rax, -144(%rbp)
10000665c: 48 8b 45 d0                 	movq	-48(%rbp), %rax
100006660: 48 8b 4d d8                 	movq	-40(%rbp), %rcx
100006664: 48 89 8d 68 ff ff ff        	movq	%rcx, -152(%rbp)
10000666b: 48 89 85 60 ff ff ff        	movq	%rax, -160(%rbp)
100006672: 48 8b 7b 10                 	movq	16(%rbx), %rdi
100006676: 44 8b 5f 24                 	movl	36(%rdi), %r11d
10000667a: 41 8d 43 ff                 	leal	-1(%r11), %eax
10000667e: f2 0f 2a c0                 	cvtsi2sd	%eax, %xmm0
100006682: f2 0f 59 85 78 ff ff ff     	mulsd	-136(%rbp), %xmm0
10000668a: f2 0f 2c c0                 	cvttsd2si	%xmm0, %eax
10000668e: 99                          	cltd
10000668f: 41 f7 fb                    	idivl	%r11d
100006692: 89 d6                       	movl	%edx, %esi
100006694: 89 55 98                    	movl	%edx, -104(%rbp)
100006697: f2 0f 10 05 c9 a7 00 00     	movsd	42953(%rip), %xmm0
10000669f: f2 0f 5c 45 80              	subsd	-128(%rbp), %xmm0
1000066a4: 44 8b 47 28                 	movl	40(%rdi), %r8d
1000066a8: 41 8d 40 ff                 	leal	-1(%r8), %eax
1000066ac: f2 0f 2a c8                 	cvtsi2sd	%eax, %xmm1
1000066b0: f2 0f 59 c8                 	mulsd	%xmm0, %xmm1
1000066b4: f2 0f 2c c1                 	cvttsd2si	%xmm1, %eax
1000066b8: 99                          	cltd
1000066b9: 41 f7 f8                    	idivl	%r8d
1000066bc: 41 89 d2                    	movl	%edx, %r10d
1000066bf: 89 55 9c                    	movl	%edx, -100(%rbp)
1000066c2: 44 8b 7f 18                 	movl	24(%rdi), %r15d
1000066c6: 44 89 f8                    	movl	%r15d, %eax
1000066c9: 0f af c6                    	imull	%esi, %eax
1000066cc: 8d 58 07                    	leal	7(%rax), %ebx
1000066cf: 85 c0                       	testl	%eax, %eax
1000066d1: 0f 49 d8                    	cmovnsl	%eax, %ebx
1000066d4: c1 fb 03                    	sarl	$3, %ebx
1000066d7: 44 8b 4f 1c                 	movl	28(%rdi), %r9d
1000066db: 44 89 c9                    	movl	%r9d, %ecx
1000066de: 0f af ca                    	imull	%edx, %ecx
1000066e1: 8d 04 0b                    	leal	(%rbx,%rcx), %eax
1000066e4: 89 c2                       	movl	%eax, %edx
1000066e6: f7 da                       	negl	%edx
1000066e8: 0f 4c d0                    	cmovll	%eax, %edx
1000066eb: 48 8b 7f 10                 	movq	16(%rdi), %rdi
1000066ef: 0f b6 44 17 02              	movzbl	2(%rdi,%rdx), %eax
1000066f4: 0f 57 c9                    	xorps	%xmm1, %xmm1
1000066f7: f2 0f 2a c8                 	cvtsi2sd	%eax, %xmm1
1000066fb: 0f b6 44 17 01              	movzbl	1(%rdi,%rdx), %eax
100006700: f2 0f 2a d0                 	cvtsi2sd	%eax, %xmm2
100006704: 0f b6 04 17                 	movzbl	(%rdi,%rdx), %eax
100006708: 0f 57 c0                    	xorps	%xmm0, %xmm0
10000670b: f2 0f 2a c0                 	cvtsi2sd	%eax, %xmm0
10000670f: f2 0f 58 c1                 	addsd	%xmm1, %xmm0
100006713: f2 0f 10 0d 9d a7 00 00     	movsd	42909(%rip), %xmm1
10000671b: f2 0f 59 c1                 	mulsd	%xmm1, %xmm0
10000671f: f2 0f 58 c2                 	addsd	%xmm2, %xmm0
100006723: f2 0f 11 85 78 ff ff ff     	movsd	%xmm0, -136(%rbp)
10000672b: 8d 46 01                    	leal	1(%rsi), %eax
10000672e: 99                          	cltd
10000672f: 41 f7 fb                    	idivl	%r11d
100006732: 41 0f af d7                 	imull	%r15d, %edx
100006736: 8d 42 07                    	leal	7(%rdx), %eax
100006739: 85 d2                       	testl	%edx, %edx
10000673b: 0f 49 c2                    	cmovnsl	%edx, %eax
10000673e: c1 f8 03                    	sarl	$3, %eax
100006741: 01 c8                       	addl	%ecx, %eax
100006743: 89 c1                       	movl	%eax, %ecx
100006745: f7 d9                       	negl	%ecx
100006747: 0f 4c c8                    	cmovll	%eax, %ecx
10000674a: 0f b6 44 0f 02              	movzbl	2(%rdi,%rcx), %eax
10000674f: 0f 57 d2                    	xorps	%xmm2, %xmm2
100006752: f2 0f 2a d0                 	cvtsi2sd	%eax, %xmm2
100006756: 0f b6 44 0f 01              	movzbl	1(%rdi,%rcx), %eax
10000675b: f2 0f 2a d8                 	cvtsi2sd	%eax, %xmm3
10000675f: 0f b6 04 0f                 	movzbl	(%rdi,%rcx), %eax
100006763: f2 0f 2a e0                 	cvtsi2sd	%eax, %xmm4
100006767: f2 0f 58 e2                 	addsd	%xmm2, %xmm4
10000676b: f2 0f 59 e1                 	mulsd	%xmm1, %xmm4
10000676f: f2 0f 58 e3                 	addsd	%xmm3, %xmm4
100006773: f2 0f 11 65 80              	movsd	%xmm4, -128(%rbp)
100006778: 66 0f 28 d8                 	movapd	%xmm0, %xmm3
10000677c: f2 0f 5c dc                 	subsd	%xmm4, %xmm3
100006780: f2 0f 10 15 a8 a7 00 00     	movsd	42920(%rip), %xmm2
100006788: f2 0f 59 da                 	mulsd	%xmm2, %xmm3
10000678c: f2 0f 11 5d 88              	movsd	%xmm3, -120(%rbp)
100006791: 41 8d 42 01                 	leal	1(%r10), %eax
100006795: 99                          	cltd
100006796: 41 f7 f8                    	idivl	%r8d
100006799: 41 0f af d1                 	imull	%r9d, %edx
10000679d: 01 da                       	addl	%ebx, %edx
10000679f: 89 d0                       	movl	%edx, %eax
1000067a1: f7 d8                       	negl	%eax
1000067a3: 0f 4c c2                    	cmovll	%edx, %eax
1000067a6: 0f b6 4c 07 02              	movzbl	2(%rdi,%rax), %ecx
1000067ab: 0f 57 db                    	xorps	%xmm3, %xmm3
1000067ae: f2 0f 2a d9                 	cvtsi2sd	%ecx, %xmm3
1000067b2: 0f b6 4c 07 01              	movzbl	1(%rdi,%rax), %ecx
1000067b7: 0f 57 e4                    	xorps	%xmm4, %xmm4
1000067ba: f2 0f 2a e1                 	cvtsi2sd	%ecx, %xmm4
1000067be: 0f b6 04 07                 	movzbl	(%rdi,%rax), %eax
1000067c2: f2 0f 2a e8                 	cvtsi2sd	%eax, %xmm5
1000067c6: f2 0f 58 eb                 	addsd	%xmm3, %xmm5
1000067ca: f2 0f 59 e9                 	mulsd	%xmm1, %xmm5
1000067ce: f2 0f 58 ec                 	addsd	%xmm4, %xmm5
1000067d2: f2 0f 11 6d 80              	movsd	%xmm5, -128(%rbp)
1000067d7: f2 0f 5c c5                 	subsd	%xmm5, %xmm0
1000067db: f2 0f 59 c2                 	mulsd	%xmm2, %xmm0
1000067df: f2 0f 11 45 90              	movsd	%xmm0, -112(%rbp)
1000067e4: 48 8b 85 70 ff ff ff        	movq	-144(%rbp), %rax
1000067eb: 4c 8b 85 60 ff ff ff        	movq	-160(%rbp), %r8
1000067f2: 48 8b 95 68 ff ff ff        	movq	-152(%rbp), %rdx
1000067f9: 49 8b 76 30                 	movq	48(%r14), %rsi
1000067fd: 49 8b 5e 20                 	movq	32(%r14), %rbx
100006801: 49 8b 4e 28                 	movq	40(%r14), %rcx
100006805: 48 8d 7d a0                 	leaq	-96(%rbp), %rdi
100006809: 50                          	pushq	%rax
10000680a: 52                          	pushq	%rdx
10000680b: 41 50                       	pushq	%r8
10000680d: 56                          	pushq	%rsi
10000680e: 51                          	pushq	%rcx
10000680f: 53                          	pushq	%rbx
100006810: e8 db 26 00 00              	callq	9947 <_cross_product>
100006815: 48 83 c4 30                 	addq	$48, %rsp
100006819: 48 8b 45 b0                 	movq	-80(%rbp), %rax
10000681d: 48 89 45 e0                 	movq	%rax, -32(%rbp)
100006821: 48 8b 45 a0                 	movq	-96(%rbp), %rax
100006825: 48 8b 4d a8                 	movq	-88(%rbp), %rcx
100006829: 48 89 4d d8                 	movq	%rcx, -40(%rbp)
10000682d: 48 89 45 d0                 	movq	%rax, -48(%rbp)
100006831: 48 8b 45 e0                 	movq	-32(%rbp), %rax
100006835: 4c 8b 45 d0                 	movq	-48(%rbp), %r8
100006839: 48 8b 55 d8                 	movq	-40(%rbp), %rdx
10000683d: 49 8b 76 30                 	movq	48(%r14), %rsi
100006841: 49 8b 5e 20                 	movq	32(%r14), %rbx
100006845: 49 8b 4e 28                 	movq	40(%r14), %rcx
100006849: 48 8d 7d b8                 	leaq	-72(%rbp), %rdi
10000684d: 50                          	pushq	%rax
10000684e: 52                          	pushq	%rdx
10000684f: 41 50                       	pushq	%r8
100006851: 56                          	pushq	%rsi
100006852: 51                          	pushq	%rcx
100006853: 53                          	pushq	%rbx
100006854: e8 97 26 00 00              	callq	9879 <_cross_product>
100006859: 48 83 c4 30                 	addq	$48, %rsp
10000685d: 48 8b 45 c8                 	movq	-56(%rbp), %rax
100006861: 48 89 45 b0                 	movq	%rax, -80(%rbp)
100006865: 48 8b 45 b8                 	movq	-72(%rbp), %rax
100006869: 48 8b 4d c0                 	movq	-64(%rbp), %rcx
10000686d: 48 89 4d a8                 	movq	%rcx, -88(%rbp)
100006871: 48 89 45 a0                 	movq	%rax, -96(%rbp)
100006875: f2 0f 10 45 88              	movsd	-120(%rbp), %xmm0
10000687a: 48 83 ec 08                 	subq	$8, %rsp
10000687e: 48 8b 45 e0                 	movq	-32(%rbp), %rax
100006882: 48 8b 4d d0                 	movq	-48(%rbp), %rcx
100006886: 48 8b 55 d8                 	movq	-40(%rbp), %rdx
10000688a: 48 8d bd 30 ff ff ff        	leaq	-208(%rbp), %rdi
100006891: 50                          	pushq	%rax
100006892: 52                          	pushq	%rdx
100006893: 51                          	pushq	%rcx
100006894: e8 07 27 00 00              	callq	9991 <_create_vec_from_scalar>
100006899: 48 83 c4 20                 	addq	$32, %rsp
10000689d: 48 8b 85 40 ff ff ff        	movq	-192(%rbp), %rax
1000068a4: 4c 8b 85 30 ff ff ff        	movq	-208(%rbp), %r8
1000068ab: 48 8b 95 38 ff ff ff        	movq	-200(%rbp), %rdx
1000068b2: 49 8b 76 30                 	movq	48(%r14), %rsi
1000068b6: 49 8b 5e 20                 	movq	32(%r14), %rbx
1000068ba: 49 8b 4e 28                 	movq	40(%r14), %rcx
1000068be: 48 8d 7d b8                 	leaq	-72(%rbp), %rdi
1000068c2: 50                          	pushq	%rax
1000068c3: 52                          	pushq	%rdx
1000068c4: 41 50                       	pushq	%r8
1000068c6: 56                          	pushq	%rsi
1000068c7: 51                          	pushq	%rcx
1000068c8: 53                          	pushq	%rbx
1000068c9: e8 52 24 00 00              	callq	9298 <_vec_addition>
1000068ce: 48 83 c4 30                 	addq	$48, %rsp
1000068d2: 48 8b 45 c8                 	movq	-56(%rbp), %rax
1000068d6: 49 89 46 30                 	movq	%rax, 48(%r14)
1000068da: 48 8b 45 b8                 	movq	-72(%rbp), %rax
1000068de: 48 8b 4d c0                 	movq	-64(%rbp), %rcx
1000068e2: 49 89 4e 28                 	movq	%rcx, 40(%r14)
1000068e6: 49 89 46 20                 	movq	%rax, 32(%r14)
1000068ea: f2 0f 10 45 90              	movsd	-112(%rbp), %xmm0
1000068ef: 48 83 ec 08                 	subq	$8, %rsp
1000068f3: 48 8b 45 b0                 	movq	-80(%rbp), %rax
1000068f7: 48 8b 4d a0                 	movq	-96(%rbp), %rcx
1000068fb: 48 8b 55 a8                 	movq	-88(%rbp), %rdx
1000068ff: 48 8d bd 48 ff ff ff        	leaq	-184(%rbp), %rdi
100006906: 50                          	pushq	%rax
100006907: 52                          	pushq	%rdx
100006908: 51                          	pushq	%rcx
100006909: e8 92 26 00 00              	callq	9874 <_create_vec_from_scalar>
10000690e: 48 83 c4 20                 	addq	$32, %rsp
100006912: 48 8b 85 58 ff ff ff        	movq	-168(%rbp), %rax
100006919: 4c 8b 85 48 ff ff ff        	movq	-184(%rbp), %r8
100006920: 48 8b 95 50 ff ff ff        	movq	-176(%rbp), %rdx
100006927: 49 8b 76 30                 	movq	48(%r14), %rsi
10000692b: 49 8b 5e 20                 	movq	32(%r14), %rbx
10000692f: 49 8b 4e 28                 	movq	40(%r14), %rcx
100006933: 48 8d 7d b8                 	leaq	-72(%rbp), %rdi
100006937: 50                          	pushq	%rax
100006938: 52                          	pushq	%rdx
100006939: 41 50                       	pushq	%r8
10000693b: 56                          	pushq	%rsi
10000693c: 51                          	pushq	%rcx
10000693d: 53                          	pushq	%rbx
10000693e: e8 dd 23 00 00              	callq	9181 <_vec_addition>
100006943: 48 83 c4 30                 	addq	$48, %rsp
100006947: 48 8b 45 c8                 	movq	-56(%rbp), %rax
10000694b: 49 89 46 30                 	movq	%rax, 48(%r14)
10000694f: 48 8b 45 b8                 	movq	-72(%rbp), %rax
100006953: 48 8b 4d c0                 	movq	-64(%rbp), %rcx
100006957: 49 89 4e 28                 	movq	%rcx, 40(%r14)
10000695b: 49 89 46 20                 	movq	%rax, 32(%r14)
10000695f: b0 01                       	movb	$1, %al
100006961: 48 81 c4 b8 00 00 00        	addq	$184, %rsp
100006968: 5b                          	popq	%rbx
100006969: 41 5e                       	popq	%r14
10000696b: 41 5f                       	popq	%r15
10000696d: 5d                          	popq	%rbp
10000696e: c3                          	retq
10000696f: 90                          	nop

0000000100006970 _handle_bump:
100006970: 55                          	pushq	%rbp
100006971: 48 89 e5                    	movq	%rsp, %rbp
100006974: 53                          	pushq	%rbx
100006975: 48 83 ec 18                 	subq	$24, %rsp
100006979: 48 85 f6                    	testq	%rsi, %rsi
10000697c: 74 3d                       	je	61 <_handle_bump+0x4b>
10000697e: 48 89 fb                    	movq	%rdi, %rbx
100006981: 8a 06                       	movb	(%rsi), %al
100006983: 3c 02                       	cmpb	$2, %al
100006985: 74 15                       	je	21 <_handle_bump+0x2c>
100006987: 84 c0                       	testb	%al, %al
100006989: 75 30                       	jne	48 <_handle_bump+0x4b>
10000698b: 48 83 7e 10 00              	cmpq	$0, 16(%rsi)
100006990: 74 29                       	je	41 <_handle_bump+0x4b>
100006992: 48 89 df                    	movq	%rbx, %rdi
100006995: e8 26 f9 ff ff              	callq	-1754 <_sphere_bump>
10000699a: eb 0f                       	jmp	15 <_handle_bump+0x3b>
10000699c: 48 83 7e 10 00              	cmpq	$0, 16(%rsi)
1000069a1: 74 18                       	je	24 <_handle_bump+0x4b>
1000069a3: 48 89 df                    	movq	%rbx, %rdi
1000069a6: e8 55 fc ff ff              	callq	-939 <_plane_bump>
1000069ab: 48 83 c3 20                 	addq	$32, %rbx
1000069af: 48 8d 7d e0                 	leaq	-32(%rbp), %rdi
1000069b3: 48 89 de                    	movq	%rbx, %rsi
1000069b6: e8 15 24 00 00              	callq	9237 <_normalize>
1000069bb: 48 83 c4 18                 	addq	$24, %rsp
1000069bf: 5b                          	popq	%rbx
1000069c0: 5d                          	popq	%rbp
1000069c1: c3                          	retq
1000069c2: 66 2e 0f 1f 84 00 00 00 00 00       	nopw	%cs:(%rax,%rax)
1000069cc: 0f 1f 40 00                 	nopl	(%rax)

00000001000069d0 _textures_binding:
1000069d0: 55                          	pushq	%rbp
1000069d1: 48 89 e5                    	movq	%rsp, %rbp
1000069d4: 41 56                       	pushq	%r14
1000069d6: 53                          	pushq	%rbx
1000069d7: 48 85 ff                    	testq	%rdi, %rdi
1000069da: 74 33                       	je	51 <_textures_binding+0x3f>
1000069dc: 49 89 f6                    	movq	%rsi, %r14
1000069df: 48 89 fb                    	movq	%rdi, %rbx
1000069e2: eb 15                       	jmp	21 <_textures_binding+0x29>
1000069e4: 66 2e 0f 1f 84 00 00 00 00 00       	nopw	%cs:(%rax,%rax)
1000069ee: 66 90                       	nop
1000069f0: 48 8b 5b 28                 	movq	40(%rbx), %rbx
1000069f4: 48 85 db                    	testq	%rbx, %rbx
1000069f7: 74 16                       	je	22 <_textures_binding+0x3f>
1000069f9: 0f b6 03                    	movzbl	(%rbx), %eax
1000069fc: 04 fd                       	addb	$-3, %al
1000069fe: 3c 02                       	cmpb	$2, %al
100006a00: 72 ee                       	jb	-18 <_textures_binding+0x20>
100006a02: 48 89 df                    	movq	%rbx, %rdi
100006a05: 4c 89 f6                    	movq	%r14, %rsi
100006a08: e8 83 f7 ff ff              	callq	-2173 <_texture_init>
100006a0d: eb e1                       	jmp	-31 <_textures_binding+0x20>
100006a0f: 5b                          	popq	%rbx
100006a10: 41 5e                       	popq	%r14
100006a12: 5d                          	popq	%rbp
100006a13: c3                          	retq
100006a14: 90                          	nop
100006a15: 90                          	nop
100006a16: 90                          	nop
100006a17: 90                          	nop
100006a18: 90                          	nop
100006a19: 90                          	nop
100006a1a: 90                          	nop
100006a1b: 90                          	nop
100006a1c: 90                          	nop
100006a1d: 90                          	nop
100006a1e: 90                          	nop
100006a1f: 90                          	nop

0000000100006a20 _get_specular_addr:
100006a20: 55                          	pushq	%rbp
100006a21: 48 89 e5                    	movq	%rsp, %rbp
100006a24: 48 89 f8                    	movq	%rdi, %rax
100006a27: 48 8b 4e 18                 	movq	24(%rsi), %rcx
100006a2b: 48 8b 51 38                 	movq	56(%rcx), %rdx
100006a2f: 48 89 57 38                 	movq	%rdx, 56(%rdi)
100006a33: 48 8b 51 30                 	movq	48(%rcx), %rdx
100006a37: 48 89 57 30                 	movq	%rdx, 48(%rdi)
100006a3b: 48 8b 51 28                 	movq	40(%rcx), %rdx
100006a3f: 48 89 57 28                 	movq	%rdx, 40(%rdi)
100006a43: 48 8b 51 20                 	movq	32(%rcx), %rdx
100006a47: 48 89 57 20                 	movq	%rdx, 32(%rdi)
100006a4b: 48 8b 51 18                 	movq	24(%rcx), %rdx
100006a4f: 48 89 57 18                 	movq	%rdx, 24(%rdi)
100006a53: 48 8b 51 10                 	movq	16(%rcx), %rdx
100006a57: 48 89 57 10                 	movq	%rdx, 16(%rdi)
100006a5b: 48 8b 11                    	movq	(%rcx), %rdx
100006a5e: 48 8b 49 08                 	movq	8(%rcx), %rcx
100006a62: 48 89 4f 08                 	movq	%rcx, 8(%rdi)
100006a66: 48 89 17                    	movq	%rdx, (%rdi)
100006a69: 5d                          	popq	%rbp
100006a6a: c3                          	retq
100006a6b: 0f 1f 44 00 00              	nopl	(%rax,%rax)

0000000100006a70 _get_uv_sphere:
100006a70: 55                          	pushq	%rbp
100006a71: 48 89 e5                    	movq	%rsp, %rbp
100006a74: 41 57                       	pushq	%r15
100006a76: 41 56                       	pushq	%r14
100006a78: 53                          	pushq	%rbx
100006a79: 48 83 ec 38                 	subq	$56, %rsp
100006a7d: 49 89 ce                    	movq	%rcx, %r14
100006a80: 49 89 d7                    	movq	%rdx, %r15
100006a83: 48 89 fb                    	movq	%rdi, %rbx
100006a86: 48 8b 46 18                 	movq	24(%rsi), %rax
100006a8a: 4c 8b 4e 08                 	movq	8(%rsi), %r9
100006a8e: 48 8b 56 10                 	movq	16(%rsi), %rdx
100006a92: 48 8b 77 50                 	movq	80(%rdi), %rsi
100006a96: 4c 8b 47 40                 	movq	64(%rdi), %r8
100006a9a: 48 8b 4f 48                 	movq	72(%rdi), %rcx
100006a9e: 48 8d 7d b0                 	leaq	-80(%rbp), %rdi
100006aa2: 50                          	pushq	%rax
100006aa3: 52                          	pushq	%rdx
100006aa4: 41 51                       	pushq	%r9
100006aa6: 56                          	pushq	%rsi
100006aa7: 51                          	pushq	%rcx
100006aa8: 41 50                       	pushq	%r8
100006aaa: e8 a1 22 00 00              	callq	8865 <_vec_sub>
100006aaf: 48 83 c4 30                 	addq	$48, %rsp
100006ab3: 48 8b 45 c0                 	movq	-64(%rbp), %rax
100006ab7: 48 89 45 e0                 	movq	%rax, -32(%rbp)
100006abb: 48 8b 45 b0                 	movq	-80(%rbp), %rax
100006abf: 48 8b 4d b8                 	movq	-72(%rbp), %rcx
100006ac3: 48 89 4d d8                 	movq	%rcx, -40(%rbp)
100006ac7: 48 89 45 d0                 	movq	%rax, -48(%rbp)
100006acb: 48 8d 7d b0                 	leaq	-80(%rbp), %rdi
100006acf: 48 8d 75 d0                 	leaq	-48(%rbp), %rsi
100006ad3: e8 f8 22 00 00              	callq	8952 <_normalize>
100006ad8: f2 0f 10 45 d8              	movsd	-40(%rbp), %xmm0
100006add: e8 1a 77 00 00              	callq	30490 <dyld_stub_binder+0x10000e1fc>
100006ae2: f2 0f 11 45 c8              	movsd	%xmm0, -56(%rbp)
100006ae7: f2 0f 10 45 d0              	movsd	-48(%rbp), %xmm0
100006aec: f2 0f 10 4d e0              	movsd	-32(%rbp), %xmm1
100006af1: e8 0c 77 00 00              	callq	30476 <dyld_stub_binder+0x10000e202>
100006af6: f2 0f 59 05 3a a4 00 00     	mulsd	42042(%rip), %xmm0
100006afe: f2 0f 58 43 68              	addsd	104(%rbx), %xmm0
100006b03: f2 41 0f 11 07              	movsd	%xmm0, (%r15)
100006b08: f2 0f 10 45 c8              	movsd	-56(%rbp), %xmm0
100006b0d: f2 0f 59 05 2b a4 00 00     	mulsd	42027(%rip), %xmm0
100006b15: f2 41 0f 11 06              	movsd	%xmm0, (%r14)
100006b1a: 48 83 c4 38                 	addq	$56, %rsp
100006b1e: 5b                          	popq	%rbx
100006b1f: 41 5e                       	popq	%r14
100006b21: 41 5f                       	popq	%r15
100006b23: 5d                          	popq	%rbp
100006b24: c3                          	retq
100006b25: 66 2e 0f 1f 84 00 00 00 00 00       	nopw	%cs:(%rax,%rax)
100006b2f: 90                          	nop

0000000100006b30 _get_uv_plane:
100006b30: 55                          	pushq	%rbp
100006b31: 48 89 e5                    	movq	%rsp, %rbp
100006b34: 41 57                       	pushq	%r15
100006b36: 41 56                       	pushq	%r14
100006b38: 41 55                       	pushq	%r13
100006b3a: 41 54                       	pushq	%r12
100006b3c: 53                          	pushq	%rbx
100006b3d: 48 81 ec c8 00 00 00        	subq	$200, %rsp
100006b44: 48 89 4d a0                 	movq	%rcx, -96(%rbp)
100006b48: 49 89 d7                    	movq	%rdx, %r15
100006b4b: 49 89 f4                    	movq	%rsi, %r12
100006b4e: 49 bd 00 00 00 00 00 00 f0 3f       	movabsq	$4607182418800017408, %r13
100006b58: 4c 89 6d 88                 	movq	%r13, -120(%rbp)
100006b5c: 48 c7 45 90 00 00 00 00     	movq	$0, -112(%rbp)
100006b64: 48 c7 45 98 00 00 00 00     	movq	$0, -104(%rbp)
100006b6c: 48 8b 45 98                 	movq	-104(%rbp), %rax
100006b70: 4c 8b 45 88                 	movq	-120(%rbp), %r8
100006b74: 48 8b 55 90                 	movq	-112(%rbp), %rdx
100006b78: 48 8b 77 50                 	movq	80(%rdi), %rsi
100006b7c: 48 8b 5f 40                 	movq	64(%rdi), %rbx
100006b80: 48 8b 4f 48                 	movq	72(%rdi), %rcx
100006b84: 4c 8d 77 40                 	leaq	64(%rdi), %r14
100006b88: 48 8d bd 10 ff ff ff        	leaq	-240(%rbp), %rdi
100006b8f: 50                          	pushq	%rax
100006b90: 52                          	pushq	%rdx
100006b91: 41 50                       	pushq	%r8
100006b93: 56                          	pushq	%rsi
100006b94: 51                          	pushq	%rcx
100006b95: 53                          	pushq	%rbx
100006b96: e8 55 23 00 00              	callq	9045 <_cross_product>
100006b9b: 48 83 c4 28                 	addq	$40, %rsp
100006b9f: 48 8b 85 20 ff ff ff        	movq	-224(%rbp), %rax
100006ba6: 48 8b 8d 10 ff ff ff        	movq	-240(%rbp), %rcx
100006bad: 48 8b 95 18 ff ff ff        	movq	-232(%rbp), %rdx
100006bb4: 48 8d 7d a8                 	leaq	-88(%rbp), %rdi
100006bb8: 50                          	pushq	%rax
100006bb9: 52                          	pushq	%rdx
100006bba: 51                          	pushq	%rcx
100006bbb: e8 80 22 00 00              	callq	8832 <_normalized>
100006bc0: 48 83 c4 20                 	addq	$32, %rsp
100006bc4: 48 8b 45 b8                 	movq	-72(%rbp), %rax
100006bc8: 48 89 45 d0                 	movq	%rax, -48(%rbp)
100006bcc: 48 8b 45 a8                 	movq	-88(%rbp), %rax
100006bd0: 48 8b 4d b0                 	movq	-80(%rbp), %rcx
100006bd4: 48 89 4d c8                 	movq	%rcx, -56(%rbp)
100006bd8: 48 89 45 c0                 	movq	%rax, -64(%rbp)
100006bdc: 66 0f 57 c0                 	xorpd	%xmm0, %xmm0
100006be0: 66 0f 2e 45 c0              	ucomisd	-64(%rbp), %xmm0
100006be5: 0f 85 9b 00 00 00           	jne	155 <_get_uv_plane+0x156>
100006beb: 66 0f 2e 45 c8              	ucomisd	-56(%rbp), %xmm0
100006bf0: 0f 85 90 00 00 00           	jne	144 <_get_uv_plane+0x156>
100006bf6: 66 0f 57 c0                 	xorpd	%xmm0, %xmm0
100006bfa: 66 0f 2e 45 d0              	ucomisd	-48(%rbp), %xmm0
100006bff: 0f 85 81 00 00 00           	jne	129 <_get_uv_plane+0x156>
100006c05: 66 0f 57 c0                 	xorpd	%xmm0, %xmm0
100006c09: 66 0f 29 85 70 ff ff ff     	movapd	%xmm0, -144(%rbp)
100006c11: 4c 89 6d 80                 	movq	%r13, -128(%rbp)
100006c15: 48 8b 45 80                 	movq	-128(%rbp), %rax
100006c19: 4c 8b 85 70 ff ff ff        	movq	-144(%rbp), %r8
100006c20: 48 8b 95 78 ff ff ff        	movq	-136(%rbp), %rdx
100006c27: 49 8b 76 10                 	movq	16(%r14), %rsi
100006c2b: 49 8b 1e                    	movq	(%r14), %rbx
100006c2e: 49 8b 4e 08                 	movq	8(%r14), %rcx
100006c32: 48 8d bd 28 ff ff ff        	leaq	-216(%rbp), %rdi
100006c39: 50                          	pushq	%rax
100006c3a: 52                          	pushq	%rdx
100006c3b: 41 50                       	pushq	%r8
100006c3d: 56                          	pushq	%rsi
100006c3e: 51                          	pushq	%rcx
100006c3f: 53                          	pushq	%rbx
100006c40: e8 ab 22 00 00              	callq	8875 <_cross_product>
100006c45: 48 83 c4 28                 	addq	$40, %rsp
100006c49: 48 8b 85 38 ff ff ff        	movq	-200(%rbp), %rax
100006c50: 48 8b 8d 28 ff ff ff        	movq	-216(%rbp), %rcx
100006c57: 48 8b 95 30 ff ff ff        	movq	-208(%rbp), %rdx
100006c5e: 48 8d 7d a8                 	leaq	-88(%rbp), %rdi
100006c62: 50                          	pushq	%rax
100006c63: 52                          	pushq	%rdx
100006c64: 51                          	pushq	%rcx
100006c65: e8 d6 21 00 00              	callq	8662 <_normalized>
100006c6a: 48 83 c4 20                 	addq	$32, %rsp
100006c6e: 48 8b 45 b8                 	movq	-72(%rbp), %rax
100006c72: 48 89 45 d0                 	movq	%rax, -48(%rbp)
100006c76: 48 8b 45 a8                 	movq	-88(%rbp), %rax
100006c7a: 48 8b 4d b0                 	movq	-80(%rbp), %rcx
100006c7e: 48 89 4d c8                 	movq	%rcx, -56(%rbp)
100006c82: 48 89 45 c0                 	movq	%rax, -64(%rbp)
100006c86: 48 8b 45 d0                 	movq	-48(%rbp), %rax
100006c8a: 4c 8b 45 c0                 	movq	-64(%rbp), %r8
100006c8e: 48 8b 55 c8                 	movq	-56(%rbp), %rdx
100006c92: 49 8b 76 10                 	movq	16(%r14), %rsi
100006c96: 49 8b 1e                    	movq	(%r14), %rbx
100006c99: 49 8b 4e 08                 	movq	8(%r14), %rcx
100006c9d: 48 8d bd 58 ff ff ff        	leaq	-168(%rbp), %rdi
100006ca4: 50                          	pushq	%rax
100006ca5: 52                          	pushq	%rdx
100006ca6: 41 50                       	pushq	%r8
100006ca8: 56                          	pushq	%rsi
100006ca9: 51                          	pushq	%rcx
100006caa: 53                          	pushq	%rbx
100006cab: e8 40 22 00 00              	callq	8768 <_cross_product>
100006cb0: 48 83 c4 28                 	addq	$40, %rsp
100006cb4: 48 8b 85 68 ff ff ff        	movq	-152(%rbp), %rax
100006cbb: 48 8b 8d 58 ff ff ff        	movq	-168(%rbp), %rcx
100006cc2: 48 8b 95 60 ff ff ff        	movq	-160(%rbp), %rdx
100006cc9: 48 8d bd 40 ff ff ff        	leaq	-192(%rbp), %rdi
100006cd0: 50                          	pushq	%rax
100006cd1: 52                          	pushq	%rdx
100006cd2: 51                          	pushq	%rcx
100006cd3: e8 68 21 00 00              	callq	8552 <_normalized>
100006cd8: 48 83 c4 20                 	addq	$32, %rsp
100006cdc: 48 8b 85 50 ff ff ff        	movq	-176(%rbp), %rax
100006ce3: 48 89 45 b8                 	movq	%rax, -72(%rbp)
100006ce7: 48 8b 85 40 ff ff ff        	movq	-192(%rbp), %rax
100006cee: 48 8b 8d 48 ff ff ff        	movq	-184(%rbp), %rcx
100006cf5: 48 89 4d b0                 	movq	%rcx, -80(%rbp)
100006cf9: 48 89 45 a8                 	movq	%rax, -88(%rbp)
100006cfd: 49 8b 44 24 18              	movq	24(%r12), %rax
100006d02: 49 8b 4c 24 08              	movq	8(%r12), %rcx
100006d07: 49 8b 54 24 10              	movq	16(%r12), %rdx
100006d0c: 48 8b 75 d0                 	movq	-48(%rbp), %rsi
100006d10: 48 8b 7d c0                 	movq	-64(%rbp), %rdi
100006d14: 48 8b 5d c8                 	movq	-56(%rbp), %rbx
100006d18: 50                          	pushq	%rax
100006d19: 52                          	pushq	%rdx
100006d1a: 51                          	pushq	%rcx
100006d1b: 56                          	pushq	%rsi
100006d1c: 53                          	pushq	%rbx
100006d1d: 57                          	pushq	%rdi
100006d1e: e8 9d 21 00 00              	callq	8605 <_dot_product>
100006d23: 48 83 c4 30                 	addq	$48, %rsp
100006d27: f2 41 0f 11 07              	movsd	%xmm0, (%r15)
100006d2c: 49 8b 44 24 18              	movq	24(%r12), %rax
100006d31: 49 8b 4c 24 08              	movq	8(%r12), %rcx
100006d36: 49 8b 54 24 10              	movq	16(%r12), %rdx
100006d3b: 48 8b 75 b8                 	movq	-72(%rbp), %rsi
100006d3f: 48 8b 7d a8                 	movq	-88(%rbp), %rdi
100006d43: 48 8b 5d b0                 	movq	-80(%rbp), %rbx
100006d47: 50                          	pushq	%rax
100006d48: 52                          	pushq	%rdx
100006d49: 51                          	pushq	%rcx
100006d4a: 56                          	pushq	%rsi
100006d4b: 53                          	pushq	%rbx
100006d4c: 57                          	pushq	%rdi
100006d4d: e8 6e 21 00 00              	callq	8558 <_dot_product>
100006d52: 48 83 c4 30                 	addq	$48, %rsp
100006d56: 48 8b 45 a0                 	movq	-96(%rbp), %rax
100006d5a: f2 0f 11 00                 	movsd	%xmm0, (%rax)
100006d5e: 48 81 c4 c8 00 00 00        	addq	$200, %rsp
100006d65: 5b                          	popq	%rbx
100006d66: 41 5c                       	popq	%r12
100006d68: 41 5d                       	popq	%r13
100006d6a: 41 5e                       	popq	%r14
100006d6c: 41 5f                       	popq	%r15
100006d6e: 5d                          	popq	%rbp
100006d6f: c3                          	retq

0000000100006d70 _get_uv_cylinder:
100006d70: 55                          	pushq	%rbp
100006d71: 48 89 e5                    	movq	%rsp, %rbp
100006d74: 41 57                       	pushq	%r15
100006d76: 41 56                       	pushq	%r14
100006d78: 41 54                       	pushq	%r12
100006d7a: 53                          	pushq	%rbx
100006d7b: 49 89 ce                    	movq	%rcx, %r14
100006d7e: 49 89 d7                    	movq	%rdx, %r15
100006d81: 48 89 f3                    	movq	%rsi, %rbx
100006d84: 49 89 fc                    	movq	%rdi, %r12
100006d87: f2 0f 10 4e 08              	movsd	8(%rsi), %xmm1
100006d8c: f2 0f 10 46 18              	movsd	24(%rsi), %xmm0
100006d91: e8 6c 74 00 00              	callq	29804 <dyld_stub_binder+0x10000e202>
100006d96: f2 0f 10 4b 10              	movsd	16(%rbx), %xmm1
100006d9b: f2 0f 59 05 a5 a1 00 00     	mulsd	41381(%rip), %xmm0
100006da3: f2 41 0f 11 07              	movsd	%xmm0, (%r15)
100006da8: f2 41 0f 5e 8c 24 88 00 00 00       	divsd	136(%r12), %xmm1
100006db2: f2 41 0f 11 0e              	movsd	%xmm1, (%r14)
100006db7: 5b                          	popq	%rbx
100006db8: 41 5c                       	popq	%r12
100006dba: 41 5e                       	popq	%r14
100006dbc: 41 5f                       	popq	%r15
100006dbe: 5d                          	popq	%rbp
100006dbf: c3                          	retq

0000000100006dc0 _skip:
100006dc0: 55                          	pushq	%rbp
100006dc1: 48 89 e5                    	movq	%rsp, %rbp
100006dc4: 5d                          	popq	%rbp
100006dc5: c3                          	retq
100006dc6: 90                          	nop
100006dc7: 90                          	nop
100006dc8: 90                          	nop
100006dc9: 90                          	nop
100006dca: 90                          	nop
100006dcb: 90                          	nop
100006dcc: 90                          	nop
100006dcd: 90                          	nop
100006dce: 90                          	nop
100006dcf: 90                          	nop

0000000100006dd0 _my_mlx_put:
100006dd0: 81 fe 7f 07 00 00           	cmpl	$1919, %esi
100006dd6: 77 3f                       	ja	63 <_my_mlx_put+0x47>
100006dd8: 81 fa 37 04 00 00           	cmpl	$1079, %edx
100006dde: 77 37                       	ja	55 <_my_mlx_put+0x47>
100006de0: 55                          	pushq	%rbp
100006de1: 48 89 e5                    	movq	%rsp, %rbp
100006de4: 0f af 77 20                 	imull	32(%rdi), %esi
100006de8: 8d 46 07                    	leal	7(%rsi), %eax
100006deb: 85 f6                       	testl	%esi, %esi
100006ded: 0f 49 c6                    	cmovnsl	%esi, %eax
100006df0: c1 f8 03                    	sarl	$3, %eax
100006df3: 0f af 57 24                 	imull	36(%rdi), %edx
100006df7: 01 c2                       	addl	%eax, %edx
100006df9: 48 8b 47 18                 	movq	24(%rdi), %rax
100006dfd: 48 63 d2                    	movslq	%edx, %rdx
100006e00: 88 0c 10                    	movb	%cl, (%rax,%rdx)
100006e03: 48 8b 47 18                 	movq	24(%rdi), %rax
100006e07: 88 6c 02 01                 	movb	%ch, 1(%rdx,%rax)
100006e0b: c1 e9 10                    	shrl	$16, %ecx
100006e0e: 48 8b 47 18                 	movq	24(%rdi), %rax
100006e12: 88 4c 02 02                 	movb	%cl, 2(%rdx,%rax)
100006e16: 5d                          	popq	%rbp
100006e17: c3                          	retq
100006e18: 0f 1f 84 00 00 00 00 00     	nopl	(%rax,%rax)

0000000100006e20 _loading_bar:
100006e20: 55                          	pushq	%rbp
100006e21: 48 89 e5                    	movq	%rsp, %rbp
100006e24: 41 56                       	pushq	%r14
100006e26: 53                          	pushq	%rbx
100006e27: f2 0f 10 0d 21 a1 00 00     	movsd	41249(%rip), %xmm1
100006e2f: f2 0f 59 c8                 	mulsd	%xmm0, %xmm1
100006e33: f2 44 0f 2c f1              	cvttsd2si	%xmm1, %r14d
100006e38: bb 28 00 00 00              	movl	$40, %ebx
100006e3d: 44 29 f3                    	subl	%r14d, %ebx
100006e40: f2 0f 59 05 10 a1 00 00     	mulsd	41232(%rip), %xmm0
100006e48: f2 0f 5a c0                 	cvtsd2ss	%xmm0, %xmm0
100006e4c: e8 3d 75 00 00              	callq	30013 <dyld_stub_binder+0x10000e38e>
100006e51: f3 0f 5a c0                 	cvtss2sd	%xmm0, %xmm0
100006e55: 48 8d 3d 88 7b 00 00        	leaq	31624(%rip), %rdi
100006e5c: 48 8d 15 9e 7b 00 00        	leaq	31646(%rip), %rdx
100006e63: 4c 8d 05 c0 7b 00 00        	leaq	31680(%rip), %r8
100006e6a: 44 89 f6                    	movl	%r14d, %esi
100006e6d: 89 d9                       	movl	%ebx, %ecx
100006e6f: b0 01                       	movb	$1, %al
100006e71: e8 ee 74 00 00              	callq	29934 <dyld_stub_binder+0x10000e364>
100006e76: 48 8b 05 a3 11 02 00        	movq	135587(%rip), %rax
100006e7d: 48 8b 38                    	movq	(%rax), %rdi
100006e80: 5b                          	popq	%rbx
100006e81: 41 5e                       	popq	%r14
100006e83: 5d                          	popq	%rbp
100006e84: e9 9d 73 00 00              	jmp	29597 <dyld_stub_binder+0x10000e226>
100006e89: 0f 1f 80 00 00 00 00        	nopl	(%rax)

0000000100006e90 _draw:
100006e90: 55                          	pushq	%rbp
100006e91: 48 89 e5                    	movq	%rsp, %rbp
100006e94: 41 57                       	pushq	%r15
100006e96: 41 56                       	pushq	%r14
100006e98: 41 55                       	pushq	%r13
100006e9a: 41 54                       	pushq	%r12
100006e9c: 53                          	pushq	%rbx
100006e9d: 48 81 ec f8 00 00 00        	subq	$248, %rsp
100006ea4: 49 89 fe                    	movq	%rdi, %r14
100006ea7: 48 8d bd 30 ff ff ff        	leaq	-208(%rbp), %rdi
100006eae: ba 68 00 00 00              	movl	$104, %edx
100006eb3: 31 f6                       	xorl	%esi, %esi
100006eb5: e8 96 28 00 00              	callq	10390 <_ft_memset>
100006eba: 41 8b 9e 94 01 00 00        	movl	404(%r14), %ebx
100006ec1: 4c 89 75 d0                 	movq	%r14, -48(%rbp)
100006ec5: 41 3b 9e 9c 01 00 00        	cmpl	412(%r14), %ebx
100006ecc: 0f 8d 78 02 00 00           	jge	632 <_draw+0x2ba>
100006ed2: 48 8b 45 d0                 	movq	-48(%rbp), %rax
100006ed6: 48 8d 48 08                 	leaq	8(%rax), %rcx
100006eda: 48 89 4d c0                 	movq	%rcx, -64(%rbp)
100006ede: 48 8d 48 30                 	leaq	48(%rax), %rcx
100006ee2: 48 8d 85 30 ff ff ff        	leaq	-208(%rbp), %rax
100006ee9: 48 89 4d a0                 	movq	%rcx, -96(%rbp)
100006eed: e9 d2 00 00 00              	jmp	210 <_draw+0x134>
100006ef2: 66 2e 0f 1f 84 00 00 00 00 00       	nopw	%cs:(%rax,%rax)
100006efc: 0f 1f 40 00                 	nopl	(%rax)
100006f00: ff c3                       	incl	%ebx
100006f02: 4c 8b 6d d0                 	movq	-48(%rbp), %r13
100006f06: 49 8b bd 88 01 00 00        	movq	392(%r13), %rdi
100006f0d: b8 40 01 00 00              	movl	$320, %eax
100006f12: 48 01 c7                    	addq	%rax, %rdi
100006f15: 49 89 cc                    	movq	%rcx, %r12
100006f18: e8 5f 74 00 00              	callq	29791 <dyld_stub_binder+0x10000e37c>
100006f1d: 49 8b 85 88 01 00 00        	movq	392(%r13), %rax
100006f24: 8b 88 38 01 00 00           	movl	312(%rax), %ecx
100006f2a: ff c1                       	incl	%ecx
100006f2c: 89 88 38 01 00 00           	movl	%ecx, 312(%rax)
100006f32: 0f 57 c0                    	xorps	%xmm0, %xmm0
100006f35: f2 0f 2a c1                 	cvtsi2sd	%ecx, %xmm0
100006f39: 66 0f 28 c8                 	movapd	%xmm0, %xmm1
100006f3d: f2 0f 59 0d 1b a0 00 00     	mulsd	40987(%rip), %xmm1
100006f45: f2 44 0f 2c f1              	cvttsd2si	%xmm1, %r14d
100006f4a: 41 bf 28 00 00 00           	movl	$40, %r15d
100006f50: 45 29 f7                    	subl	%r14d, %r15d
100006f53: f2 0f 59 05 0d a0 00 00     	mulsd	40973(%rip), %xmm0
100006f5b: f2 0f 5a c0                 	cvtsd2ss	%xmm0, %xmm0
100006f5f: e8 2a 74 00 00              	callq	29738 <dyld_stub_binder+0x10000e38e>
100006f64: f3 0f 5a c0                 	cvtss2sd	%xmm0, %xmm0
100006f68: 48 8d 3d 75 7a 00 00        	leaq	31349(%rip), %rdi
100006f6f: 44 89 f6                    	movl	%r14d, %esi
100006f72: 48 8d 15 88 7a 00 00        	leaq	31368(%rip), %rdx
100006f79: 44 89 f9                    	movl	%r15d, %ecx
100006f7c: 4c 8d 05 a7 7a 00 00        	leaq	31399(%rip), %r8
100006f83: b0 01                       	movb	$1, %al
100006f85: e8 da 73 00 00              	callq	29658 <dyld_stub_binder+0x10000e364>
100006f8a: 48 8b 05 8f 10 02 00        	movq	135311(%rip), %rax
100006f91: 48 8b 38                    	movq	(%rax), %rdi
100006f94: e8 8d 72 00 00              	callq	29325 <dyld_stub_binder+0x10000e226>
100006f99: 49 8b bd 88 01 00 00        	movq	392(%r13), %rdi
100006fa0: b8 40 01 00 00              	movl	$320, %eax
100006fa5: 48 01 c7                    	addq	%rax, %rdi
100006fa8: e8 d5 73 00 00              	callq	29653 <dyld_stub_binder+0x10000e382>
100006fad: 4c 89 e1                    	movq	%r12, %rcx
100006fb0: 48 8d 85 30 ff ff ff        	leaq	-208(%rbp), %rax
100006fb7: 41 3b 9d 9c 01 00 00        	cmpl	412(%r13), %ebx
100006fbe: 0f 8d 86 01 00 00           	jge	390 <_draw+0x2ba>
100006fc4: 48 8b 55 d0                 	movq	-48(%rbp), %rdx
100006fc8: 44 8b ba 90 01 00 00        	movl	400(%rdx), %r15d
100006fcf: 44 3b ba 98 01 00 00        	cmpl	408(%rdx), %r15d
100006fd6: 0f 8d 24 ff ff ff           	jge	-220 <_draw+0x70>
100006fdc: 81 fb 38 04 00 00           	cmpl	$1080, %ebx
100006fe2: 0f 83 e8 00 00 00           	jae	232 <_draw+0x240>
100006fe8: 4c 8d 6d a8                 	leaq	-88(%rbp), %r13
100006fec: 4c 8d b5 e0 fe ff ff        	leaq	-288(%rbp), %r14
100006ff3: 4c 8b 65 c0                 	movq	-64(%rbp), %r12
100006ff7: 89 5d cc                    	movl	%ebx, -52(%rbp)
100006ffa: eb 32                       	jmp	50 <_draw+0x19e>
100006ffc: 0f 1f 40 00                 	nopl	(%rax)
100007000: 41 ff c7                    	incl	%r15d
100007003: 45 3b bc 24 98 01 00 00     	cmpl	408(%r12), %r15d
10000700b: 4c 8b 65 c0                 	movq	-64(%rbp), %r12
10000700f: 48 8b 4d a0                 	movq	-96(%rbp), %rcx
100007013: 8b 5d cc                    	movl	-52(%rbp), %ebx
100007016: 48 8d 85 30 ff ff ff        	leaq	-208(%rbp), %rax
10000701d: 4c 8d 6d a8                 	leaq	-88(%rbp), %r13
100007021: 4c 8d b5 e0 fe ff ff        	leaq	-288(%rbp), %r14
100007028: 0f 8d d2 fe ff ff           	jge	-302 <_draw+0x70>
10000702e: 44 89 ff                    	movl	%r15d, %edi
100007031: 89 de                       	movl	%ebx, %esi
100007033: 48 89 c3                    	movq	%rax, %rbx
100007036: 48 89 c2                    	movq	%rax, %rdx
100007039: e8 32 e9 ff ff              	callq	-5838 <_prime_ray>
10000703e: 4c 89 e6                    	movq	%r12, %rsi
100007041: 4c 8b 65 d0                 	movq	-48(%rbp), %r12
100007045: 49 8b 04 24                 	movq	(%r12), %rax
100007049: 48 89 45 98                 	movq	%rax, -104(%rbp)
10000704d: 4c 89 ef                    	movq	%r13, %rdi
100007050: 48 89 da                    	movq	%rbx, %rdx
100007053: 4c 89 f1                    	movq	%r14, %rcx
100007056: 41 b8 08 00 00 00           	movl	$8, %r8d
10000705c: e8 0f eb ff ff              	callq	-5361 <_raytrace>
100007061: 48 83 ec 08                 	subq	$8, %rsp
100007065: 48 8b 45 b8                 	movq	-72(%rbp), %rax
100007069: 48 8b 4d a8                 	movq	-88(%rbp), %rcx
10000706d: 48 8b 55 b0                 	movq	-80(%rbp), %rdx
100007071: 50                          	pushq	%rax
100007072: 52                          	pushq	%rdx
100007073: 51                          	pushq	%rcx
100007074: e8 07 e6 ff ff              	callq	-6649 <_rgb_to_int>
100007079: 48 83 c4 20                 	addq	$32, %rsp
10000707d: 41 81 ff 7f 07 00 00        	cmpl	$1919, %r15d
100007084: 0f 87 76 ff ff ff           	ja	-138 <_draw+0x170>
10000708a: 48 8b 7d 98                 	movq	-104(%rbp), %rdi
10000708e: 8b 4f 20                    	movl	32(%rdi), %ecx
100007091: 41 0f af cf                 	imull	%r15d, %ecx
100007095: 8d 51 07                    	leal	7(%rcx), %edx
100007098: 85 c9                       	testl	%ecx, %ecx
10000709a: 0f 49 d1                    	cmovnsl	%ecx, %edx
10000709d: c1 fa 03                    	sarl	$3, %edx
1000070a0: 8b 4f 24                    	movl	36(%rdi), %ecx
1000070a3: 0f af 4d cc                 	imull	-52(%rbp), %ecx
1000070a7: 01 d1                       	addl	%edx, %ecx
1000070a9: 48 8b 57 18                 	movq	24(%rdi), %rdx
1000070ad: 48 63 c9                    	movslq	%ecx, %rcx
1000070b0: 88 04 0a                    	movb	%al, (%rdx,%rcx)
1000070b3: 48 8b 57 18                 	movq	24(%rdi), %rdx
1000070b7: 88 64 11 01                 	movb	%ah, 1(%rcx,%rdx)
1000070bb: c1 e8 10                    	shrl	$16, %eax
1000070be: 48 8b 57 18                 	movq	24(%rdi), %rdx
1000070c2: 88 44 11 02                 	movb	%al, 2(%rcx,%rdx)
1000070c6: e9 35 ff ff ff              	jmp	-203 <_draw+0x170>
1000070cb: 0f 1f 44 00 00              	nopl	(%rax,%rax)
1000070d0: 4c 8d ad e0 fe ff ff        	leaq	-288(%rbp), %r13
1000070d7: 4c 8b 65 c0                 	movq	-64(%rbp), %r12
1000070db: 0f 1f 44 00 00              	nopl	(%rax,%rax)
1000070e0: 44 89 ff                    	movl	%r15d, %edi
1000070e3: 89 de                       	movl	%ebx, %esi
1000070e5: 48 8d 95 30 ff ff ff        	leaq	-208(%rbp), %rdx
1000070ec: 41 89 de                    	movl	%ebx, %r14d
1000070ef: 48 89 cb                    	movq	%rcx, %rbx
1000070f2: e8 79 e8 ff ff              	callq	-6023 <_prime_ray>
1000070f7: 48 8d 7d a8                 	leaq	-88(%rbp), %rdi
1000070fb: 4c 89 e6                    	movq	%r12, %rsi
1000070fe: 48 8d 95 30 ff ff ff        	leaq	-208(%rbp), %rdx
100007105: 4c 89 e9                    	movq	%r13, %rcx
100007108: 41 b8 08 00 00 00           	movl	$8, %r8d
10000710e: e8 5d ea ff ff              	callq	-5539 <_raytrace>
100007113: 48 83 ec 08                 	subq	$8, %rsp
100007117: 48 8b 45 b8                 	movq	-72(%rbp), %rax
10000711b: 48 8b 4d a8                 	movq	-88(%rbp), %rcx
10000711f: 48 8b 55 b0                 	movq	-80(%rbp), %rdx
100007123: 50                          	pushq	%rax
100007124: 52                          	pushq	%rdx
100007125: 51                          	pushq	%rcx
100007126: e8 55 e5 ff ff              	callq	-6827 <_rgb_to_int>
10000712b: 48 89 d9                    	movq	%rbx, %rcx
10000712e: 44 89 f3                    	movl	%r14d, %ebx
100007131: 48 83 c4 20                 	addq	$32, %rsp
100007135: 41 ff c7                    	incl	%r15d
100007138: 48 8b 45 d0                 	movq	-48(%rbp), %rax
10000713c: 44 3b b8 98 01 00 00        	cmpl	408(%rax), %r15d
100007143: 7c 9b                       	jl	-101 <_draw+0x250>
100007145: e9 b6 fd ff ff              	jmp	-586 <_draw+0x70>
10000714a: 31 c0                       	xorl	%eax, %eax
10000714c: 48 81 c4 f8 00 00 00        	addq	$248, %rsp
100007153: 5b                          	popq	%rbx
100007154: 41 5c                       	popq	%r12
100007156: 41 5d                       	popq	%r13
100007158: 41 5e                       	popq	%r14
10000715a: 41 5f                       	popq	%r15
10000715c: 5d                          	popq	%rbp
10000715d: c3                          	retq
10000715e: 90                          	nop
10000715f: 90                          	nop

0000000100007160 _cone_quadratic_calculs:
100007160: 55                          	pushq	%rbp
100007161: 48 89 e5                    	movq	%rsp, %rbp
100007164: 41 57                       	pushq	%r15
100007166: 41 56                       	pushq	%r14
100007168: 53                          	pushq	%rbx
100007169: 48 83 ec 68                 	subq	$104, %rsp
10000716d: 49 89 d6                    	movq	%rdx, %r14
100007170: 49 89 ff                    	movq	%rdi, %r15
100007173: 48 8b 5e 18                 	movq	24(%rsi), %rbx
100007177: f2 0f 10 43 78              	movsd	120(%rbx), %xmm0
10000717c: e8 99 70 00 00              	callq	28825 <dyld_stub_binder+0x10000e21a>
100007181: f2 0f 59 c0                 	mulsd	%xmm0, %xmm0
100007185: 66 0f 29 45 a0              	movapd	%xmm0, -96(%rbp)
10000718a: 48 8b 43 68                 	movq	104(%rbx), %rax
10000718e: 4c 8b 4b 58                 	movq	88(%rbx), %r9
100007192: 48 8b 53 60                 	movq	96(%rbx), %rdx
100007196: 49 8b 77 10                 	movq	16(%r15), %rsi
10000719a: 4d 8b 07                    	movq	(%r15), %r8
10000719d: 49 8b 4f 08                 	movq	8(%r15), %rcx
1000071a1: 48 8d 7d 88                 	leaq	-120(%rbp), %rdi
1000071a5: 50                          	pushq	%rax
1000071a6: 52                          	pushq	%rdx
1000071a7: 41 51                       	pushq	%r9
1000071a9: 56                          	pushq	%rsi
1000071aa: 51                          	pushq	%rcx
1000071ab: 41 50                       	pushq	%r8
1000071ad: e8 9e 1b 00 00              	callq	7070 <_vec_sub>
1000071b2: 48 83 c4 30                 	addq	$48, %rsp
1000071b6: 48 8b 45 98                 	movq	-104(%rbp), %rax
1000071ba: 48 89 45 e0                 	movq	%rax, -32(%rbp)
1000071be: 48 8b 45 88                 	movq	-120(%rbp), %rax
1000071c2: 48 8b 4d 90                 	movq	-112(%rbp), %rcx
1000071c6: 48 89 4d d8                 	movq	%rcx, -40(%rbp)
1000071ca: 48 89 45 d0                 	movq	%rax, -48(%rbp)
1000071ce: 48 8b 43 50                 	movq	80(%rbx), %rax
1000071d2: 4c 8b 43 40                 	movq	64(%rbx), %r8
1000071d6: 48 8b 53 48                 	movq	72(%rbx), %rdx
1000071da: 49 8b 77 28                 	movq	40(%r15), %rsi
1000071de: 49 8b 7f 18                 	movq	24(%r15), %rdi
1000071e2: 49 8b 4f 20                 	movq	32(%r15), %rcx
1000071e6: 50                          	pushq	%rax
1000071e7: 52                          	pushq	%rdx
1000071e8: 41 50                       	pushq	%r8
1000071ea: 56                          	pushq	%rsi
1000071eb: 51                          	pushq	%rcx
1000071ec: 57                          	pushq	%rdi
1000071ed: e8 ce 1c 00 00              	callq	7374 <_dot_product>
1000071f2: 48 83 c4 30                 	addq	$48, %rsp
1000071f6: 66 0f 29 45 b0              	movapd	%xmm0, -80(%rbp)
1000071fb: 48 8b 43 50                 	movq	80(%rbx), %rax
1000071ff: 4c 8b 43 40                 	movq	64(%rbx), %r8
100007203: 48 8b 53 48                 	movq	72(%rbx), %rdx
100007207: 49 8b 77 28                 	movq	40(%r15), %rsi
10000720b: 49 8b 7f 18                 	movq	24(%r15), %rdi
10000720f: 49 8b 4f 20                 	movq	32(%r15), %rcx
100007213: 50                          	pushq	%rax
100007214: 52                          	pushq	%rdx
100007215: 41 50                       	pushq	%r8
100007217: 56                          	pushq	%rsi
100007218: 51                          	pushq	%rcx
100007219: 57                          	pushq	%rdi
10000721a: e8 a1 1c 00 00              	callq	7329 <_dot_product>
10000721f: 48 83 c4 30                 	addq	$48, %rsp
100007223: 66 0f 29 45 c0              	movapd	%xmm0, -64(%rbp)
100007228: 48 8b 43 50                 	movq	80(%rbx), %rax
10000722c: 4c 8b 43 40                 	movq	64(%rbx), %r8
100007230: 48 8b 53 48                 	movq	72(%rbx), %rdx
100007234: 48 8b 75 e0                 	movq	-32(%rbp), %rsi
100007238: 48 8b 7d d0                 	movq	-48(%rbp), %rdi
10000723c: 48 8b 4d d8                 	movq	-40(%rbp), %rcx
100007240: 50                          	pushq	%rax
100007241: 52                          	pushq	%rdx
100007242: 41 50                       	pushq	%r8
100007244: 56                          	pushq	%rsi
100007245: 51                          	pushq	%rcx
100007246: 57                          	pushq	%rdi
100007247: e8 74 1c 00 00              	callq	7284 <_dot_product>
10000724c: 48 83 c4 30                 	addq	$48, %rsp
100007250: 66 0f 28 55 b0              	movapd	-80(%rbp), %xmm2
100007255: 66 0f 14 c2                 	unpcklpd	%xmm2, %xmm0
100007259: 66 0f 28 4d c0              	movapd	-64(%rbp), %xmm1
10000725e: 66 0f 14 ca                 	unpcklpd	%xmm2, %xmm1
100007262: 66 0f 59 c8                 	mulpd	%xmm0, %xmm1
100007266: 66 0f 29 4d c0              	movapd	%xmm1, -64(%rbp)
10000726b: 48 8b 45 e0                 	movq	-32(%rbp), %rax
10000726f: 4c 8b 45 d0                 	movq	-48(%rbp), %r8
100007273: 48 8b 55 d8                 	movq	-40(%rbp), %rdx
100007277: 49 8b 77 28                 	movq	40(%r15), %rsi
10000727b: 49 8b 7f 18                 	movq	24(%r15), %rdi
10000727f: 49 8b 4f 20                 	movq	32(%r15), %rcx
100007283: 50                          	pushq	%rax
100007284: 52                          	pushq	%rdx
100007285: 41 50                       	pushq	%r8
100007287: 56                          	pushq	%rsi
100007288: 51                          	pushq	%rcx
100007289: 57                          	pushq	%rdi
10000728a: e8 31 1c 00 00              	callq	7217 <_dot_product>
10000728f: 48 83 c4 30                 	addq	$48, %rsp
100007293: 66 0f 28 4d a0              	movapd	-96(%rbp), %xmm1
100007298: f2 0f 59 c1                 	mulsd	%xmm1, %xmm0
10000729c: 66 0f 14 c1                 	unpcklpd	%xmm1, %xmm0
1000072a0: 66 0f 28 4d c0              	movapd	-64(%rbp), %xmm1
1000072a5: 66 0f 5c c8                 	subpd	%xmm0, %xmm1
1000072a9: 66 0f 29 4d c0              	movapd	%xmm1, -64(%rbp)
1000072ae: 48 8b 43 50                 	movq	80(%rbx), %rax
1000072b2: 48 8b 4b 40                 	movq	64(%rbx), %rcx
1000072b6: 48 8b 53 48                 	movq	72(%rbx), %rdx
1000072ba: 48 8b 75 e0                 	movq	-32(%rbp), %rsi
1000072be: 48 8b 7d d0                 	movq	-48(%rbp), %rdi
1000072c2: 48 8b 5d d8                 	movq	-40(%rbp), %rbx
1000072c6: 50                          	pushq	%rax
1000072c7: 52                          	pushq	%rdx
1000072c8: 51                          	pushq	%rcx
1000072c9: 56                          	pushq	%rsi
1000072ca: 53                          	pushq	%rbx
1000072cb: 57                          	pushq	%rdi
1000072cc: e8 ef 1b 00 00              	callq	7151 <_dot_product>
1000072d1: 48 83 c4 30                 	addq	$48, %rsp
1000072d5: f2 0f 59 c0                 	mulsd	%xmm0, %xmm0
1000072d9: 66 0f 29 45 b0              	movapd	%xmm0, -80(%rbp)
1000072de: 48 8b 45 e0                 	movq	-32(%rbp), %rax
1000072e2: 48 8b 4d d0                 	movq	-48(%rbp), %rcx
1000072e6: 48 8b 55 d8                 	movq	-40(%rbp), %rdx
1000072ea: 50                          	pushq	%rax
1000072eb: 52                          	pushq	%rdx
1000072ec: 51                          	pushq	%rcx
1000072ed: 50                          	pushq	%rax
1000072ee: 52                          	pushq	%rdx
1000072ef: 51                          	pushq	%rcx
1000072f0: e8 cb 1b 00 00              	callq	7115 <_dot_product>
1000072f5: 66 0f 28 5d c0              	movapd	-64(%rbp), %xmm3
1000072fa: 48 83 c4 30                 	addq	$48, %rsp
1000072fe: f2 0f 59 45 a0              	mulsd	-96(%rbp), %xmm0
100007303: 66 0f 28 55 b0              	movapd	-80(%rbp), %xmm2
100007308: f2 0f 5c d0                 	subsd	%xmm0, %xmm2
10000730c: 66 0f 28 05 5c 9c 00 00     	movapd	40028(%rip), %xmm0
100007314: 66 0f 59 c3                 	mulpd	%xmm3, %xmm0
100007318: 66 0f 28 c8                 	movapd	%xmm0, %xmm1
10000731c: 66 0f 14 ca                 	unpcklpd	%xmm2, %xmm1
100007320: 66 0f 59 c8                 	mulpd	%xmm0, %xmm1
100007324: 66 0f 28 d1                 	movapd	%xmm1, %xmm2
100007328: 66 0f 15 d1                 	unpckhpd	%xmm1, %xmm2
10000732c: f2 0f 5c ca                 	subsd	%xmm2, %xmm1
100007330: 66 0f 2e 0d 90 9b 00 00     	ucomisd	39824(%rip), %xmm1
100007338: 72 42                       	jb	66 <_cone_quadratic_calculs+0x21c>
10000733a: 66 0f 28 15 3e 9c 00 00     	movapd	39998(%rip), %xmm2
100007342: 66 0f 57 d0                 	xorpd	%xmm0, %xmm2
100007346: f2 0f 51 c9                 	sqrtsd	%xmm1, %xmm1
10000734a: f2 0f 5c d1                 	subsd	%xmm1, %xmm2
10000734e: f2 0f 5c c8                 	subsd	%xmm0, %xmm1
100007352: 66 0f 15 db                 	unpckhpd	%xmm3, %xmm3
100007356: f2 0f 58 db                 	addsd	%xmm3, %xmm3
10000735a: f2 0f 10 05 06 9b 00 00     	movsd	39686(%rip), %xmm0
100007362: f2 0f 5e c3                 	divsd	%xmm3, %xmm0
100007366: f2 0f 59 c8                 	mulsd	%xmm0, %xmm1
10000736a: f2 0f 59 c2                 	mulsd	%xmm2, %xmm0
10000736e: f2 0f 5d c1                 	minsd	%xmm1, %xmm0
100007372: 66 0f 57 c9                 	xorpd	%xmm1, %xmm1
100007376: 66 0f 2e c1                 	ucomisd	%xmm1, %xmm0
10000737a: 73 08                       	jae	8 <_cone_quadratic_calculs+0x224>
10000737c: 41 c6 06 00                 	movb	$0, (%r14)
100007380: 66 0f 57 c0                 	xorpd	%xmm0, %xmm0
100007384: 48 83 c4 68                 	addq	$104, %rsp
100007388: 5b                          	popq	%rbx
100007389: 41 5e                       	popq	%r14
10000738b: 41 5f                       	popq	%r15
10000738d: 5d                          	popq	%rbp
10000738e: c3                          	retq
10000738f: 90                          	nop

0000000100007390 _cone_hit:
100007390: 55                          	pushq	%rbp
100007391: 48 89 e5                    	movq	%rsp, %rbp
100007394: 41 57                       	pushq	%r15
100007396: 41 56                       	pushq	%r14
100007398: 41 55                       	pushq	%r13
10000739a: 41 54                       	pushq	%r12
10000739c: 53                          	pushq	%rbx
10000739d: 48 81 ec 88 00 00 00        	subq	$136, %rsp
1000073a4: 49 89 d6                    	movq	%rdx, %r14
1000073a7: 49 89 fd                    	movq	%rdi, %r13
1000073aa: 4c 8b 7e 18                 	movq	24(%rsi), %r15
1000073ae: c6 45 d7 01                 	movb	$1, -41(%rbp)
1000073b2: 48 8d 55 d7                 	leaq	-41(%rbp), %rdx
1000073b6: e8 a5 fd ff ff              	callq	-603 <_cone_quadratic_calculs>
1000073bb: 80 7d d7 00                 	cmpb	$0, -41(%rbp)
1000073bf: 0f 84 ee 00 00 00           	je	238 <_cone_hit+0x123>
1000073c5: f2 41 0f 11 06              	movsd	%xmm0, (%r14)
1000073ca: 49 8b 45 28                 	movq	40(%r13), %rax
1000073ce: 49 8b 4d 20                 	movq	32(%r13), %rcx
1000073d2: 49 8b 55 18                 	movq	24(%r13), %rdx
1000073d6: 49 8b 75 10                 	movq	16(%r13), %rsi
1000073da: 4d 8b 45 00                 	movq	(%r13), %r8
1000073de: 49 8b 5d 08                 	movq	8(%r13), %rbx
1000073e2: 48 8d 7d a0                 	leaq	-96(%rbp), %rdi
1000073e6: 50                          	pushq	%rax
1000073e7: 51                          	pushq	%rcx
1000073e8: 52                          	pushq	%rdx
1000073e9: 56                          	pushq	%rsi
1000073ea: 53                          	pushq	%rbx
1000073eb: 41 50                       	pushq	%r8
1000073ed: e8 ce 1b 00 00              	callq	7118 <_at>
1000073f2: 48 83 c4 30                 	addq	$48, %rsp
1000073f6: 48 8b 45 b0                 	movq	-80(%rbp), %rax
1000073fa: 49 89 46 18                 	movq	%rax, 24(%r14)
1000073fe: 48 8b 45 a0                 	movq	-96(%rbp), %rax
100007402: 48 8b 4d a8                 	movq	-88(%rbp), %rcx
100007406: 49 89 4e 10                 	movq	%rcx, 16(%r14)
10000740a: 49 89 46 08                 	movq	%rax, 8(%r14)
10000740e: 49 8b 47 68                 	movq	104(%r15), %rax
100007412: 4d 8b 47 58                 	movq	88(%r15), %r8
100007416: 49 8b 57 60                 	movq	96(%r15), %rdx
10000741a: 49 8b 76 18                 	movq	24(%r14), %rsi
10000741e: 49 8b 5e 08                 	movq	8(%r14), %rbx
100007422: 49 8b 4e 10                 	movq	16(%r14), %rcx
100007426: 48 8d bd 50 ff ff ff        	leaq	-176(%rbp), %rdi
10000742d: 50                          	pushq	%rax
10000742e: 52                          	pushq	%rdx
10000742f: 41 50                       	pushq	%r8
100007431: 56                          	pushq	%rsi
100007432: 51                          	pushq	%rcx
100007433: 53                          	pushq	%rbx
100007434: e8 17 19 00 00              	callq	6423 <_vec_sub>
100007439: 48 83 c4 30                 	addq	$48, %rsp
10000743d: 49 8b 47 50                 	movq	80(%r15), %rax
100007441: 49 8b 4f 40                 	movq	64(%r15), %rcx
100007445: 49 8b 57 48                 	movq	72(%r15), %rdx
100007449: 48 8b b5 60 ff ff ff        	movq	-160(%rbp), %rsi
100007450: 48 8b bd 50 ff ff ff        	movq	-176(%rbp), %rdi
100007457: 48 8b 9d 58 ff ff ff        	movq	-168(%rbp), %rbx
10000745e: 50                          	pushq	%rax
10000745f: 52                          	pushq	%rdx
100007460: 51                          	pushq	%rcx
100007461: 56                          	pushq	%rsi
100007462: 53                          	pushq	%rbx
100007463: 57                          	pushq	%rdi
100007464: e8 57 1a 00 00              	callq	6743 <_dot_product>
100007469: 48 83 c4 30                 	addq	$48, %rsp
10000746d: 66 0f 2e 05 53 9a 00 00     	ucomisd	39507(%rip), %xmm0
100007475: 77 3c                       	ja	60 <_cone_hit+0x123>
100007477: 49 8d 5e 08                 	leaq	8(%r14), %rbx
10000747b: 4d 8d 67 58                 	leaq	88(%r15), %r12
10000747f: 48 8b 43 10                 	movq	16(%rbx), %rax
100007483: 4c 8b 03                    	movq	(%rbx), %r8
100007486: 48 8b 53 08                 	movq	8(%rbx), %rdx
10000748a: 49 8b 74 24 10              	movq	16(%r12), %rsi
10000748f: 49 8b 3c 24                 	movq	(%r12), %rdi
100007493: 49 8b 4c 24 08              	movq	8(%r12), %rcx
100007498: 50                          	pushq	%rax
100007499: 52                          	pushq	%rdx
10000749a: 41 50                       	pushq	%r8
10000749c: 56                          	pushq	%rsi
10000749d: 51                          	pushq	%rcx
10000749e: 57                          	pushq	%rdi
10000749f: e8 8c 1b 00 00              	callq	7052 <_distance>
1000074a4: 48 83 c4 30                 	addq	$48, %rsp
1000074a8: 66 41 0f 2e 87 80 00 00 00  	ucomisd	128(%r15), %xmm0
1000074b1: 76 14                       	jbe	20 <_cone_hit+0x137>
1000074b3: 31 c0                       	xorl	%eax, %eax
1000074b5: 48 81 c4 88 00 00 00        	addq	$136, %rsp
1000074bc: 5b                          	popq	%rbx
1000074bd: 41 5c                       	popq	%r12
1000074bf: 41 5d                       	popq	%r13
1000074c1: 41 5e                       	popq	%r14
1000074c3: 41 5f                       	popq	%r15
1000074c5: 5d                          	popq	%rbp
1000074c6: c3                          	retq
1000074c7: 49 8d 47 40                 	leaq	64(%r15), %rax
1000074cb: 48 89 45 98                 	movq	%rax, -104(%rbp)
1000074cf: 49 8b 44 24 10              	movq	16(%r12), %rax
1000074d4: 49 8b 0c 24                 	movq	(%r12), %rcx
1000074d8: 49 8b 54 24 08              	movq	8(%r12), %rdx
1000074dd: 48 8b 73 10                 	movq	16(%rbx), %rsi
1000074e1: 4c 8b 03                    	movq	(%rbx), %r8
1000074e4: 48 8b 5b 08                 	movq	8(%rbx), %rbx
1000074e8: 48 8d 7d b8                 	leaq	-72(%rbp), %rdi
1000074ec: 50                          	pushq	%rax
1000074ed: 52                          	pushq	%rdx
1000074ee: 51                          	pushq	%rcx
1000074ef: 56                          	pushq	%rsi
1000074f0: 53                          	pushq	%rbx
1000074f1: 41 50                       	pushq	%r8
1000074f3: e8 58 18 00 00              	callq	6232 <_vec_sub>
1000074f8: 48 83 c4 30                 	addq	$48, %rsp
1000074fc: 48 8b 45 c8                 	movq	-56(%rbp), %rax
100007500: 48 89 45 b0                 	movq	%rax, -80(%rbp)
100007504: 48 8b 45 b8                 	movq	-72(%rbp), %rax
100007508: 48 8b 4d c0                 	movq	-64(%rbp), %rcx
10000750c: 48 89 4d a8                 	movq	%rcx, -88(%rbp)
100007510: 48 89 45 a0                 	movq	%rax, -96(%rbp)
100007514: 48 8b 4d 98                 	movq	-104(%rbp), %rcx
100007518: 48 8b 41 10                 	movq	16(%rcx), %rax
10000751c: 4c 8b 01                    	movq	(%rcx), %r8
10000751f: 48 8b 51 08                 	movq	8(%rcx), %rdx
100007523: 48 89 cb                    	movq	%rcx, %rbx
100007526: 48 8b 75 b0                 	movq	-80(%rbp), %rsi
10000752a: 4c 8b 4d a0                 	movq	-96(%rbp), %r9
10000752e: 48 8b 4d a8                 	movq	-88(%rbp), %rcx
100007532: 48 8d 7d 80                 	leaq	-128(%rbp), %rdi
100007536: 50                          	pushq	%rax
100007537: 52                          	pushq	%rdx
100007538: 41 50                       	pushq	%r8
10000753a: 56                          	pushq	%rsi
10000753b: 51                          	pushq	%rcx
10000753c: 41 51                       	pushq	%r9
10000753e: e8 ad 19 00 00              	callq	6573 <_cross_product>
100007543: 48 83 c4 30                 	addq	$48, %rsp
100007547: 48 8b 43 10                 	movq	16(%rbx), %rax
10000754b: 4c 8b 03                    	movq	(%rbx), %r8
10000754e: 48 8b 53 08                 	movq	8(%rbx), %rdx
100007552: 48 8b 75 90                 	movq	-112(%rbp), %rsi
100007556: 48 8b 5d 80                 	movq	-128(%rbp), %rbx
10000755a: 48 8b 4d 88                 	movq	-120(%rbp), %rcx
10000755e: 48 8d bd 68 ff ff ff        	leaq	-152(%rbp), %rdi
100007565: 50                          	pushq	%rax
100007566: 52                          	pushq	%rdx
100007567: 41 50                       	pushq	%r8
100007569: 56                          	pushq	%rsi
10000756a: 51                          	pushq	%rcx
10000756b: 53                          	pushq	%rbx
10000756c: e8 7f 19 00 00              	callq	6527 <_cross_product>
100007571: 48 83 c4 28                 	addq	$40, %rsp
100007575: 48 8b 85 78 ff ff ff        	movq	-136(%rbp), %rax
10000757c: 48 8b 8d 68 ff ff ff        	movq	-152(%rbp), %rcx
100007583: 48 8b 95 70 ff ff ff        	movq	-144(%rbp), %rdx
10000758a: 48 8d 7d b8                 	leaq	-72(%rbp), %rdi
10000758e: 50                          	pushq	%rax
10000758f: 52                          	pushq	%rdx
100007590: 51                          	pushq	%rcx
100007591: e8 aa 18 00 00              	callq	6314 <_normalized>
100007596: 48 83 c4 20                 	addq	$32, %rsp
10000759a: 48 8b 45 c8                 	movq	-56(%rbp), %rax
10000759e: 49 89 46 30                 	movq	%rax, 48(%r14)
1000075a2: 48 8b 45 b8                 	movq	-72(%rbp), %rax
1000075a6: 48 8b 4d c0                 	movq	-64(%rbp), %rcx
1000075aa: 49 89 4e 28                 	movq	%rcx, 40(%r14)
1000075ae: 49 89 46 20                 	movq	%rax, 32(%r14)
1000075b2: 49 8b 45 28                 	movq	40(%r13), %rax
1000075b6: 49 8b 4d 18                 	movq	24(%r13), %rcx
1000075ba: 49 8b 55 20                 	movq	32(%r13), %rdx
1000075be: 49 8b 76 30                 	movq	48(%r14), %rsi
1000075c2: 49 8b 7e 20                 	movq	32(%r14), %rdi
1000075c6: 49 8b 5e 28                 	movq	40(%r14), %rbx
1000075ca: 50                          	pushq	%rax
1000075cb: 52                          	pushq	%rdx
1000075cc: 51                          	pushq	%rcx
1000075cd: 56                          	pushq	%rsi
1000075ce: 53                          	pushq	%rbx
1000075cf: 57                          	pushq	%rdi
1000075d0: e8 eb 18 00 00              	callq	6379 <_dot_product>
1000075d5: 48 83 c4 30                 	addq	$48, %rsp
1000075d9: 66 0f 57 c9                 	xorpd	%xmm1, %xmm1
1000075dd: 66 0f 2e c1                 	ucomisd	%xmm1, %xmm0
1000075e1: 76 3a                       	jbe	58 <_cone_hit+0x28d>
1000075e3: 49 8d 5e 20                 	leaq	32(%r14), %rbx
1000075e7: 48 83 ec 08                 	subq	$8, %rsp
1000075eb: 48 8b 43 10                 	movq	16(%rbx), %rax
1000075ef: 48 8b 0b                    	movq	(%rbx), %rcx
1000075f2: 48 8b 53 08                 	movq	8(%rbx), %rdx
1000075f6: 48 8d 7d b8                 	leaq	-72(%rbp), %rdi
1000075fa: 50                          	pushq	%rax
1000075fb: 52                          	pushq	%rdx
1000075fc: 51                          	pushq	%rcx
1000075fd: e8 6e 19 00 00              	callq	6510 <_vec_nega>
100007602: 48 83 c4 20                 	addq	$32, %rsp
100007606: 48 8b 45 c8                 	movq	-56(%rbp), %rax
10000760a: 48 89 43 10                 	movq	%rax, 16(%rbx)
10000760e: 48 8b 45 b8                 	movq	-72(%rbp), %rax
100007612: 48 8b 4d c0                 	movq	-64(%rbp), %rcx
100007616: 48 89 4b 08                 	movq	%rcx, 8(%rbx)
10000761a: 48 89 03                    	movq	%rax, (%rbx)
10000761d: 41 0f b6 47 70              	movzbl	112(%r15), %eax
100007622: f2 0f 2a c0                 	cvtsi2sd	%eax, %xmm0
100007626: f2 0f 10 1d 8a 98 00 00     	movsd	39050(%rip), %xmm3
10000762e: f2 0f 59 c3                 	mulsd	%xmm3, %xmm0
100007632: 41 0f b6 47 71              	movzbl	113(%r15), %eax
100007637: 0f 57 c9                    	xorps	%xmm1, %xmm1
10000763a: f2 0f 2a c8                 	cvtsi2sd	%eax, %xmm1
10000763e: f2 0f 59 cb                 	mulsd	%xmm3, %xmm1
100007642: 41 0f b6 47 72              	movzbl	114(%r15), %eax
100007647: f2 0f 2a d0                 	cvtsi2sd	%eax, %xmm2
10000764b: f2 0f 59 d3                 	mulsd	%xmm3, %xmm2
10000764f: 48 8d 7d b8                 	leaq	-72(%rbp), %rdi
100007653: e8 f8 18 00 00              	callq	6392 <_create_vec>
100007658: 48 8b 45 c8                 	movq	-56(%rbp), %rax
10000765c: 49 89 46 48                 	movq	%rax, 72(%r14)
100007660: 48 8b 45 b8                 	movq	-72(%rbp), %rax
100007664: 48 8b 4d c0                 	movq	-64(%rbp), %rcx
100007668: 49 89 4e 40                 	movq	%rcx, 64(%r14)
10000766c: 49 89 46 38                 	movq	%rax, 56(%r14)
100007670: b0 01                       	movb	$1, %al
100007672: e9 3e fe ff ff              	jmp	-450 <_cone_hit+0x125>
100007677: 90                          	nop
100007678: 90                          	nop
100007679: 90                          	nop
10000767a: 90                          	nop
10000767b: 90                          	nop
10000767c: 90                          	nop
10000767d: 90                          	nop
10000767e: 90                          	nop
10000767f: 90                          	nop

0000000100007680 _f_cylinder_render:
100007680: 55                          	pushq	%rbp
100007681: 48 89 e5                    	movq	%rsp, %rbp
100007684: 41 57                       	pushq	%r15
100007686: 41 56                       	pushq	%r14
100007688: 41 55                       	pushq	%r13
10000768a: 41 54                       	pushq	%r12
10000768c: 53                          	pushq	%rbx
10000768d: 48 81 ec 18 01 00 00        	subq	$280, %rsp
100007694: 49 89 d5                    	movq	%rdx, %r13
100007697: 49 89 ff                    	movq	%rdi, %r15
10000769a: 48 b8 ae 82 ca 57 fc ff ef 7f       	movabsq	$9218868421520425646, %rax
1000076a4: 48 89 02                    	movq	%rax, (%rdx)
1000076a7: 4c 8b 76 18                 	movq	24(%rsi), %r14
1000076ab: 49 8b 46 78                 	movq	120(%r14), %rax
1000076af: 48 8b 58 18                 	movq	24(%rax), %rbx
1000076b3: 4d 8d 66 70                 	leaq	112(%r14), %r12
1000076b7: 41 8a 46 72                 	movb	114(%r14), %al
1000076bb: 88 43 5a                    	movb	%al, 90(%rbx)
1000076be: 41 0f b7 46 70              	movzwl	112(%r14), %eax
1000076c3: 66 89 43 58                 	movw	%ax, 88(%rbx)
1000076c7: bf 02 00 00 00              	movl	$2, %edi
1000076cc: e8 bf 07 00 00              	callq	1983 <_intersect>
1000076d1: 49 8b 76 78                 	movq	120(%r14), %rsi
1000076d5: 48 8d 95 70 ff ff ff        	leaq	-144(%rbp), %rdx
1000076dc: 4c 89 ff                    	movq	%r15, %rdi
1000076df: ff d0                       	callq	*%rax
1000076e1: 84 c0                       	testb	%al, %al
1000076e3: 74 63                       	je	99 <_f_cylinder_render+0xc8>
1000076e5: 48 8b 43 70                 	movq	112(%rbx), %rax
1000076e9: 48 8b 4b 60                 	movq	96(%rbx), %rcx
1000076ed: 48 8b 53 68                 	movq	104(%rbx), %rdx
1000076f1: 48 8b 75 88                 	movq	-120(%rbp), %rsi
1000076f5: 48 8b bd 78 ff ff ff        	movq	-136(%rbp), %rdi
1000076fc: 48 8b 5d 80                 	movq	-128(%rbp), %rbx
100007700: 50                          	pushq	%rax
100007701: 52                          	pushq	%rdx
100007702: 51                          	pushq	%rcx
100007703: 56                          	pushq	%rsi
100007704: 53                          	pushq	%rbx
100007705: 57                          	pushq	%rdi
100007706: e8 25 19 00 00              	callq	6437 <_distance>
10000770b: 48 83 c4 30                 	addq	$48, %rsp
10000770f: f2 41 0f 10 8e 80 00 00 00  	movsd	128(%r14), %xmm1
100007718: f2 0f 59 0d 40 97 00 00     	mulsd	38720(%rip), %xmm1
100007720: 66 0f 2e c1                 	ucomisd	%xmm1, %xmm0
100007724: 77 22                       	ja	34 <_f_cylinder_render+0xc8>
100007726: f2 41 0f 10 45 00           	movsd	(%r13), %xmm0
10000772c: 66 0f 2e 85 70 ff ff ff     	ucomisd	-144(%rbp), %xmm0
100007734: 76 12                       	jbe	18 <_f_cylinder_render+0xc8>
100007736: 48 8d b5 70 ff ff ff        	leaq	-144(%rbp), %rsi
10000773d: b9 0a 00 00 00              	movl	$10, %ecx
100007742: 4c 89 ef                    	movq	%r13, %rdi
100007745: f3 48 a5                    	rep		movsq	(%rsi), %es:(%rdi)
100007748: 49 8b 46 78                 	movq	120(%r14), %rax
10000774c: 48 8b 40 28                 	movq	40(%rax), %rax
100007750: 48 8b 58 18                 	movq	24(%rax), %rbx
100007754: 41 8a 44 24 02              	movb	2(%r12), %al
100007759: 88 43 5a                    	movb	%al, 90(%rbx)
10000775c: 41 0f b7 04 24              	movzwl	(%r12), %eax
100007761: 66 89 43 58                 	movw	%ax, 88(%rbx)
100007765: bf 02 00 00 00              	movl	$2, %edi
10000776a: e8 21 07 00 00              	callq	1825 <_intersect>
10000776f: 49 8b 4e 78                 	movq	120(%r14), %rcx
100007773: 48 8b 71 28                 	movq	40(%rcx), %rsi
100007777: 48 8d 95 70 ff ff ff        	leaq	-144(%rbp), %rdx
10000777e: 4c 89 ff                    	movq	%r15, %rdi
100007781: ff d0                       	callq	*%rax
100007783: 84 c0                       	testb	%al, %al
100007785: 74 63                       	je	99 <_f_cylinder_render+0x16a>
100007787: 48 8b 43 70                 	movq	112(%rbx), %rax
10000778b: 48 8b 4b 60                 	movq	96(%rbx), %rcx
10000778f: 48 8b 53 68                 	movq	104(%rbx), %rdx
100007793: 48 8b 75 88                 	movq	-120(%rbp), %rsi
100007797: 48 8b bd 78 ff ff ff        	movq	-136(%rbp), %rdi
10000779e: 48 8b 5d 80                 	movq	-128(%rbp), %rbx
1000077a2: 50                          	pushq	%rax
1000077a3: 52                          	pushq	%rdx
1000077a4: 51                          	pushq	%rcx
1000077a5: 56                          	pushq	%rsi
1000077a6: 53                          	pushq	%rbx
1000077a7: 57                          	pushq	%rdi
1000077a8: e8 83 18 00 00              	callq	6275 <_distance>
1000077ad: 48 83 c4 30                 	addq	$48, %rsp
1000077b1: f2 41 0f 10 8e 80 00 00 00  	movsd	128(%r14), %xmm1
1000077ba: f2 0f 59 0d 9e 96 00 00     	mulsd	38558(%rip), %xmm1
1000077c2: 66 0f 2e c1                 	ucomisd	%xmm1, %xmm0
1000077c6: 77 22                       	ja	34 <_f_cylinder_render+0x16a>
1000077c8: f2 41 0f 10 45 00           	movsd	(%r13), %xmm0
1000077ce: 66 0f 2e 85 70 ff ff ff     	ucomisd	-144(%rbp), %xmm0
1000077d6: 76 12                       	jbe	18 <_f_cylinder_render+0x16a>
1000077d8: 48 8d b5 70 ff ff ff        	leaq	-144(%rbp), %rsi
1000077df: b9 0a 00 00 00              	movl	$10, %ecx
1000077e4: 4c 89 ef                    	movq	%r13, %rdi
1000077e7: f3 48 a5                    	rep		movsq	(%rsi), %es:(%rdi)
1000077ea: 49 8b 46 50                 	movq	80(%r14), %rax
1000077ee: 4d 8b 46 40                 	movq	64(%r14), %r8
1000077f2: 49 8b 56 48                 	movq	72(%r14), %rdx
1000077f6: 49 8b 77 28                 	movq	40(%r15), %rsi
1000077fa: 49 8b 5f 18                 	movq	24(%r15), %rbx
1000077fe: 49 8b 4f 20                 	movq	32(%r15), %rcx
100007802: 48 8d bd 40 ff ff ff        	leaq	-192(%rbp), %rdi
100007809: 50                          	pushq	%rax
10000780a: 52                          	pushq	%rdx
10000780b: 41 50                       	pushq	%r8
10000780d: 56                          	pushq	%rsi
10000780e: 51                          	pushq	%rcx
10000780f: 53                          	pushq	%rbx
100007810: e8 db 16 00 00              	callq	5851 <_cross_product>
100007815: 48 83 c4 30                 	addq	$48, %rsp
100007819: 48 8b 85 50 ff ff ff        	movq	-176(%rbp), %rax
100007820: 48 89 45 d0                 	movq	%rax, -48(%rbp)
100007824: 48 8b 85 40 ff ff ff        	movq	-192(%rbp), %rax
10000782b: 48 8b 8d 48 ff ff ff        	movq	-184(%rbp), %rcx
100007832: 48 89 4d c8                 	movq	%rcx, -56(%rbp)
100007836: 48 89 45 c0                 	movq	%rax, -64(%rbp)
10000783a: 49 8b 46 68                 	movq	104(%r14), %rax
10000783e: 4d 8b 46 58                 	movq	88(%r14), %r8
100007842: 49 8b 56 60                 	movq	96(%r14), %rdx
100007846: 49 8b 77 10                 	movq	16(%r15), %rsi
10000784a: 49 8b 1f                    	movq	(%r15), %rbx
10000784d: 49 8b 4f 08                 	movq	8(%r15), %rcx
100007851: 48 8d bd c0 fe ff ff        	leaq	-320(%rbp), %rdi
100007858: 50                          	pushq	%rax
100007859: 52                          	pushq	%rdx
10000785a: 41 50                       	pushq	%r8
10000785c: 56                          	pushq	%rsi
10000785d: 51                          	pushq	%rcx
10000785e: 53                          	pushq	%rbx
10000785f: e8 ec 14 00 00              	callq	5356 <_vec_sub>
100007864: 48 83 c4 30                 	addq	$48, %rsp
100007868: 49 8b 46 50                 	movq	80(%r14), %rax
10000786c: 4d 8b 46 40                 	movq	64(%r14), %r8
100007870: 49 8b 56 48                 	movq	72(%r14), %rdx
100007874: 48 8b b5 d0 fe ff ff        	movq	-304(%rbp), %rsi
10000787b: 48 8b 9d c0 fe ff ff        	movq	-320(%rbp), %rbx
100007882: 48 8b 8d c8 fe ff ff        	movq	-312(%rbp), %rcx
100007889: 48 8d bd 40 ff ff ff        	leaq	-192(%rbp), %rdi
100007890: 50                          	pushq	%rax
100007891: 52                          	pushq	%rdx
100007892: 41 50                       	pushq	%r8
100007894: 56                          	pushq	%rsi
100007895: 51                          	pushq	%rcx
100007896: 53                          	pushq	%rbx
100007897: e8 54 16 00 00              	callq	5716 <_cross_product>
10000789c: 48 83 c4 30                 	addq	$48, %rsp
1000078a0: 48 8b 85 50 ff ff ff        	movq	-176(%rbp), %rax
1000078a7: 48 89 85 68 ff ff ff        	movq	%rax, -152(%rbp)
1000078ae: 48 8b 85 40 ff ff ff        	movq	-192(%rbp), %rax
1000078b5: 48 8b 8d 48 ff ff ff        	movq	-184(%rbp), %rcx
1000078bc: 48 89 8d 60 ff ff ff        	movq	%rcx, -160(%rbp)
1000078c3: 48 89 85 58 ff ff ff        	movq	%rax, -168(%rbp)
1000078ca: 48 8b 45 d0                 	movq	-48(%rbp), %rax
1000078ce: 48 8b 4d c0                 	movq	-64(%rbp), %rcx
1000078d2: 48 8b 55 c8                 	movq	-56(%rbp), %rdx
1000078d6: 50                          	pushq	%rax
1000078d7: 52                          	pushq	%rdx
1000078d8: 51                          	pushq	%rcx
1000078d9: 50                          	pushq	%rax
1000078da: 52                          	pushq	%rdx
1000078db: 51                          	pushq	%rcx
1000078dc: e8 df 15 00 00              	callq	5599 <_dot_product>
1000078e1: 48 83 c4 30                 	addq	$48, %rsp
1000078e5: 66 0f 29 85 20 ff ff ff     	movapd	%xmm0, -224(%rbp)
1000078ed: 48 8b 85 68 ff ff ff        	movq	-152(%rbp), %rax
1000078f4: 48 8b 8d 58 ff ff ff        	movq	-168(%rbp), %rcx
1000078fb: 48 8b 95 60 ff ff ff        	movq	-160(%rbp), %rdx
100007902: 48 8b 75 d0                 	movq	-48(%rbp), %rsi
100007906: 48 8b 7d c0                 	movq	-64(%rbp), %rdi
10000790a: 48 8b 5d c8                 	movq	-56(%rbp), %rbx
10000790e: 50                          	pushq	%rax
10000790f: 52                          	pushq	%rdx
100007910: 51                          	pushq	%rcx
100007911: 56                          	pushq	%rsi
100007912: 53                          	pushq	%rbx
100007913: 57                          	pushq	%rdi
100007914: e8 a7 15 00 00              	callq	5543 <_dot_product>
100007919: 48 83 c4 30                 	addq	$48, %rsp
10000791d: 66 0f 29 85 30 ff ff ff     	movapd	%xmm0, -208(%rbp)
100007925: 48 8b 85 68 ff ff ff        	movq	-152(%rbp), %rax
10000792c: 48 8b 8d 58 ff ff ff        	movq	-168(%rbp), %rcx
100007933: 48 8b 95 60 ff ff ff        	movq	-160(%rbp), %rdx
10000793a: 50                          	pushq	%rax
10000793b: 52                          	pushq	%rdx
10000793c: 51                          	pushq	%rcx
10000793d: 50                          	pushq	%rax
10000793e: 52                          	pushq	%rdx
10000793f: 51                          	pushq	%rcx
100007940: e8 7b 15 00 00              	callq	5499 <_dot_product>
100007945: 66 0f 28 a5 30 ff ff ff     	movapd	-208(%rbp), %xmm4
10000794d: 66 0f 28 9d 20 ff ff ff     	movapd	-224(%rbp), %xmm3
100007955: 48 83 c4 30                 	addq	$48, %rsp
100007959: f2 41 0f 10 8e 80 00 00 00  	movsd	128(%r14), %xmm1
100007962: f2 0f 59 0d f6 94 00 00     	mulsd	38134(%rip), %xmm1
10000796a: f2 0f 59 c9                 	mulsd	%xmm1, %xmm1
10000796e: 66 0f 14 e3                 	unpcklpd	%xmm3, %xmm4
100007972: 66 0f 59 25 f6 95 00 00     	mulpd	38390(%rip), %xmm4
10000797a: f2 0f 5c c1                 	subsd	%xmm1, %xmm0
10000797e: 66 0f 28 cc                 	movapd	%xmm4, %xmm1
100007982: 66 0f 14 c8                 	unpcklpd	%xmm0, %xmm1
100007986: 66 0f 59 cc                 	mulpd	%xmm4, %xmm1
10000798a: 66 0f 28 c1                 	movapd	%xmm1, %xmm0
10000798e: 66 0f 15 c1                 	unpckhpd	%xmm1, %xmm0
100007992: f2 0f 5c c8                 	subsd	%xmm0, %xmm1
100007996: 66 0f 2e 0d 2a 95 00 00     	ucomisd	38186(%rip), %xmm1
10000799e: 0f 86 7d 03 00 00           	jbe	893 <_f_cylinder_render+0x6a1>
1000079a4: 66 0f 28 05 d4 95 00 00     	movapd	38356(%rip), %xmm0
1000079ac: 66 0f 57 c4                 	xorpd	%xmm4, %xmm0
1000079b0: f2 0f 51 d1                 	sqrtsd	%xmm1, %xmm2
1000079b4: f2 0f 58 db                 	addsd	%xmm3, %xmm3
1000079b8: 66 0f 14 e2                 	unpcklpd	%xmm2, %xmm4
1000079bc: 66 0f 14 d0                 	unpcklpd	%xmm0, %xmm2
1000079c0: 66 0f 5c d4                 	subpd	%xmm4, %xmm2
1000079c4: f2 0f 10 05 9c 94 00 00     	movsd	38044(%rip), %xmm0
1000079cc: f2 0f 5e c3                 	divsd	%xmm3, %xmm0
1000079d0: f2 0f 12 c8                 	movddup	%xmm0, %xmm1
1000079d4: 66 0f 59 ca                 	mulpd	%xmm2, %xmm1
1000079d8: 66 0f 28 c1                 	movapd	%xmm1, %xmm0
1000079dc: 66 0f 15 c1                 	unpckhpd	%xmm1, %xmm0
1000079e0: 66 0f 2e 0d e0 94 00 00     	ucomisd	38112(%rip), %xmm1
1000079e8: 77 0e                       	ja	14 <_f_cylinder_render+0x378>
1000079ea: 66 0f 2e 05 d6 94 00 00     	ucomisd	38102(%rip), %xmm0
1000079f2: 0f 86 29 03 00 00           	jbe	809 <_f_cylinder_render+0x6a1>
1000079f8: 4c 89 ad 20 ff ff ff        	movq	%r13, -224(%rbp)
1000079ff: 49 8d 47 18                 	leaq	24(%r15), %rax
100007a03: 4d 8d 6e 40                 	leaq	64(%r14), %r13
100007a07: 4d 8d 66 58                 	leaq	88(%r14), %r12
100007a0b: 66 0f 2e 05 b5 94 00 00     	ucomisd	38069(%rip), %xmm0
100007a13: 48 89 85 30 ff ff ff        	movq	%rax, -208(%rbp)
100007a1a: 76 1d                       	jbe	29 <_f_cylinder_render+0x3b9>
100007a1c: f2 0f 10 15 a4 94 00 00     	movsd	38052(%rip), %xmm2
100007a24: 66 0f 14 d1                 	unpcklpd	%xmm1, %xmm2
100007a28: 66 0f c2 d1 01              	cmpltpd	%xmm1, %xmm2
100007a2d: 66 0f 50 c2                 	movmskpd	%xmm2, %eax
100007a31: a8 01                       	testb	$1, %al
100007a33: 74 08                       	je	8 <_f_cylinder_render+0x3bd>
100007a35: d0 e8                       	shrb	%al
100007a37: 74 04                       	je	4 <_f_cylinder_render+0x3bd>
100007a39: 66 0f 28 c1                 	movapd	%xmm1, %xmm0
100007a3d: f2 0f 11 85 70 ff ff ff     	movsd	%xmm0, -144(%rbp)
100007a45: 49 8b 47 28                 	movq	40(%r15), %rax
100007a49: 49 8b 4f 20                 	movq	32(%r15), %rcx
100007a4d: 49 8b 57 18                 	movq	24(%r15), %rdx
100007a51: 49 8b 77 10                 	movq	16(%r15), %rsi
100007a55: 4d 8b 07                    	movq	(%r15), %r8
100007a58: 49 8b 5f 08                 	movq	8(%r15), %rbx
100007a5c: 48 8d 7d c0                 	leaq	-64(%rbp), %rdi
100007a60: 50                          	pushq	%rax
100007a61: 51                          	pushq	%rcx
100007a62: 52                          	pushq	%rdx
100007a63: 56                          	pushq	%rsi
100007a64: 53                          	pushq	%rbx
100007a65: 41 50                       	pushq	%r8
100007a67: e8 54 15 00 00              	callq	5460 <_at>
100007a6c: 48 83 c4 30                 	addq	$48, %rsp
100007a70: 48 8b 45 d0                 	movq	-48(%rbp), %rax
100007a74: 48 89 45 88                 	movq	%rax, -120(%rbp)
100007a78: 48 8b 45 c0                 	movq	-64(%rbp), %rax
100007a7c: 48 8b 4d c8                 	movq	-56(%rbp), %rcx
100007a80: 48 89 4d 80                 	movq	%rcx, -128(%rbp)
100007a84: 48 89 85 78 ff ff ff        	movq	%rax, -136(%rbp)
100007a8b: 49 8b 44 24 10              	movq	16(%r12), %rax
100007a90: 4d 8b 04 24                 	movq	(%r12), %r8
100007a94: 49 8b 54 24 08              	movq	8(%r12), %rdx
100007a99: 48 8b 75 88                 	movq	-120(%rbp), %rsi
100007a9d: 48 8b 9d 78 ff ff ff        	movq	-136(%rbp), %rbx
100007aa4: 48 8b 4d 80                 	movq	-128(%rbp), %rcx
100007aa8: 48 8d 7d c0                 	leaq	-64(%rbp), %rdi
100007aac: 50                          	pushq	%rax
100007aad: 52                          	pushq	%rdx
100007aae: 41 50                       	pushq	%r8
100007ab0: 56                          	pushq	%rsi
100007ab1: 51                          	pushq	%rcx
100007ab2: 53                          	pushq	%rbx
100007ab3: e8 98 12 00 00              	callq	4760 <_vec_sub>
100007ab8: 48 83 c4 30                 	addq	$48, %rsp
100007abc: 48 8b 45 d0                 	movq	-48(%rbp), %rax
100007ac0: 48 89 85 18 ff ff ff        	movq	%rax, -232(%rbp)
100007ac7: 48 8b 45 c0                 	movq	-64(%rbp), %rax
100007acb: 48 8b 4d c8                 	movq	-56(%rbp), %rcx
100007acf: 48 89 8d 10 ff ff ff        	movq	%rcx, -240(%rbp)
100007ad6: 48 89 85 08 ff ff ff        	movq	%rax, -248(%rbp)
100007add: 49 8b 45 10                 	movq	16(%r13), %rax
100007ae1: 4d 8b 45 00                 	movq	(%r13), %r8
100007ae5: 49 8b 55 08                 	movq	8(%r13), %rdx
100007ae9: 48 8b b5 18 ff ff ff        	movq	-232(%rbp), %rsi
100007af0: 48 8b 9d 08 ff ff ff        	movq	-248(%rbp), %rbx
100007af7: 48 8b 8d 10 ff ff ff        	movq	-240(%rbp), %rcx
100007afe: 48 8d bd f0 fe ff ff        	leaq	-272(%rbp), %rdi
100007b05: 50                          	pushq	%rax
100007b06: 52                          	pushq	%rdx
100007b07: 41 50                       	pushq	%r8
100007b09: 56                          	pushq	%rsi
100007b0a: 51                          	pushq	%rcx
100007b0b: 53                          	pushq	%rbx
100007b0c: e8 df 13 00 00              	callq	5087 <_cross_product>
100007b11: 48 83 c4 30                 	addq	$48, %rsp
100007b15: 49 8b 45 10                 	movq	16(%r13), %rax
100007b19: 4d 8b 45 00                 	movq	(%r13), %r8
100007b1d: 49 8b 55 08                 	movq	8(%r13), %rdx
100007b21: 48 8b b5 00 ff ff ff        	movq	-256(%rbp), %rsi
100007b28: 48 8b 9d f0 fe ff ff        	movq	-272(%rbp), %rbx
100007b2f: 48 8b 8d f8 fe ff ff        	movq	-264(%rbp), %rcx
100007b36: 48 8d bd d8 fe ff ff        	leaq	-296(%rbp), %rdi
100007b3d: 50                          	pushq	%rax
100007b3e: 52                          	pushq	%rdx
100007b3f: 41 50                       	pushq	%r8
100007b41: 56                          	pushq	%rsi
100007b42: 51                          	pushq	%rcx
100007b43: 53                          	pushq	%rbx
100007b44: e8 a7 13 00 00              	callq	5031 <_cross_product>
100007b49: 48 83 c4 28                 	addq	$40, %rsp
100007b4d: 48 8b 85 e8 fe ff ff        	movq	-280(%rbp), %rax
100007b54: 48 8b 8d d8 fe ff ff        	movq	-296(%rbp), %rcx
100007b5b: 48 8b 95 e0 fe ff ff        	movq	-288(%rbp), %rdx
100007b62: 48 8d 7d c0                 	leaq	-64(%rbp), %rdi
100007b66: 50                          	pushq	%rax
100007b67: 52                          	pushq	%rdx
100007b68: 51                          	pushq	%rcx
100007b69: e8 d2 12 00 00              	callq	4818 <_normalized>
100007b6e: 48 83 c4 20                 	addq	$32, %rsp
100007b72: 48 8b 45 d0                 	movq	-48(%rbp), %rax
100007b76: 48 89 45 a0                 	movq	%rax, -96(%rbp)
100007b7a: 48 8b 45 c0                 	movq	-64(%rbp), %rax
100007b7e: 48 8b 4d c8                 	movq	-56(%rbp), %rcx
100007b82: 48 89 4d 98                 	movq	%rcx, -104(%rbp)
100007b86: 48 89 45 90                 	movq	%rax, -112(%rbp)
100007b8a: 48 8b 95 30 ff ff ff        	movq	-208(%rbp), %rdx
100007b91: 48 8b 42 10                 	movq	16(%rdx), %rax
100007b95: 48 8b 0a                    	movq	(%rdx), %rcx
100007b98: 48 8b 52 08                 	movq	8(%rdx), %rdx
100007b9c: 48 8b 75 a0                 	movq	-96(%rbp), %rsi
100007ba0: 48 8b 7d 90                 	movq	-112(%rbp), %rdi
100007ba4: 48 8b 5d 98                 	movq	-104(%rbp), %rbx
100007ba8: 50                          	pushq	%rax
100007ba9: 52                          	pushq	%rdx
100007baa: 51                          	pushq	%rcx
100007bab: 56                          	pushq	%rsi
100007bac: 53                          	pushq	%rbx
100007bad: 57                          	pushq	%rdi
100007bae: e8 0d 13 00 00              	callq	4877 <_dot_product>
100007bb3: 48 83 c4 30                 	addq	$48, %rsp
100007bb7: 66 0f 57 c9                 	xorpd	%xmm1, %xmm1
100007bbb: 66 0f 2e c1                 	ucomisd	%xmm1, %xmm0
100007bbf: 76 3a                       	jbe	58 <_f_cylinder_render+0x57b>
100007bc1: 48 8d 5d 90                 	leaq	-112(%rbp), %rbx
100007bc5: 48 83 ec 08                 	subq	$8, %rsp
100007bc9: 48 8b 43 10                 	movq	16(%rbx), %rax
100007bcd: 48 8b 0b                    	movq	(%rbx), %rcx
100007bd0: 48 8b 53 08                 	movq	8(%rbx), %rdx
100007bd4: 48 8d 7d c0                 	leaq	-64(%rbp), %rdi
100007bd8: 50                          	pushq	%rax
100007bd9: 52                          	pushq	%rdx
100007bda: 51                          	pushq	%rcx
100007bdb: e8 90 13 00 00              	callq	5008 <_vec_nega>
100007be0: 48 83 c4 20                 	addq	$32, %rsp
100007be4: 48 8b 45 d0                 	movq	-48(%rbp), %rax
100007be8: 48 89 43 10                 	movq	%rax, 16(%rbx)
100007bec: 48 8b 45 c0                 	movq	-64(%rbp), %rax
100007bf0: 48 8b 4d c8                 	movq	-56(%rbp), %rcx
100007bf4: 48 89 4b 08                 	movq	%rcx, 8(%rbx)
100007bf8: 48 89 03                    	movq	%rax, (%rbx)
100007bfb: 4c 8d bd 78 ff ff ff        	leaq	-136(%rbp), %r15
100007c02: 49 8b 47 10                 	movq	16(%r15), %rax
100007c06: 49 8b 0f                    	movq	(%r15), %rcx
100007c09: 49 8b 57 08                 	movq	8(%r15), %rdx
100007c0d: 49 8b 74 24 10              	movq	16(%r12), %rsi
100007c12: 49 8b 3c 24                 	movq	(%r12), %rdi
100007c16: 49 8b 5c 24 08              	movq	8(%r12), %rbx
100007c1b: 50                          	pushq	%rax
100007c1c: 52                          	pushq	%rdx
100007c1d: 51                          	pushq	%rcx
100007c1e: 56                          	pushq	%rsi
100007c1f: 53                          	pushq	%rbx
100007c20: 57                          	pushq	%rdi
100007c21: e8 0a 14 00 00              	callq	5130 <_distance>
100007c26: 48 83 c4 30                 	addq	$48, %rsp
100007c2a: f2 0f 59 c0                 	mulsd	%xmm0, %xmm0
100007c2e: 66 41 0f 10 8e 80 00 00 00  	movupd	128(%r14), %xmm1
100007c37: 66 0f 59 0d 61 93 00 00     	mulpd	37729(%rip), %xmm1
100007c3f: 66 0f 59 c9                 	mulpd	%xmm1, %xmm1
100007c43: 66 0f 28 d1                 	movapd	%xmm1, %xmm2
100007c47: 66 0f 15 d1                 	unpckhpd	%xmm1, %xmm2
100007c4b: f2 0f 58 d1                 	addsd	%xmm1, %xmm2
100007c4f: 66 0f 2e c2                 	ucomisd	%xmm2, %xmm0
100007c53: 4c 8b ad 20 ff ff ff        	movq	-224(%rbp), %r13
100007c5a: 0f 87 c1 00 00 00           	ja	193 <_f_cylinder_render+0x6a1>
100007c60: 4c 89 fb                    	movq	%r15, %rbx
100007c63: 41 0f b6 46 70              	movzbl	112(%r14), %eax
100007c68: 0f 57 c0                    	xorps	%xmm0, %xmm0
100007c6b: f2 0f 2a c0                 	cvtsi2sd	%eax, %xmm0
100007c6f: f2 0f 10 1d 41 92 00 00     	movsd	37441(%rip), %xmm3
100007c77: f2 0f 59 c3                 	mulsd	%xmm3, %xmm0
100007c7b: 41 0f b6 46 71              	movzbl	113(%r14), %eax
100007c80: 0f 57 c9                    	xorps	%xmm1, %xmm1
100007c83: f2 0f 2a c8                 	cvtsi2sd	%eax, %xmm1
100007c87: f2 0f 59 cb                 	mulsd	%xmm3, %xmm1
100007c8b: 41 0f b6 46 72              	movzbl	114(%r14), %eax
100007c90: 0f 57 d2                    	xorps	%xmm2, %xmm2
100007c93: f2 0f 2a d0                 	cvtsi2sd	%eax, %xmm2
100007c97: f2 0f 59 d3                 	mulsd	%xmm3, %xmm2
100007c9b: 48 8d 7d c0                 	leaq	-64(%rbp), %rdi
100007c9f: e8 ac 12 00 00              	callq	4780 <_create_vec>
100007ca4: 48 8b 45 d0                 	movq	-48(%rbp), %rax
100007ca8: 48 89 45 b8                 	movq	%rax, -72(%rbp)
100007cac: 48 8b 45 c0                 	movq	-64(%rbp), %rax
100007cb0: 48 8b 4d c8                 	movq	-56(%rbp), %rcx
100007cb4: 48 89 4d b0                 	movq	%rcx, -80(%rbp)
100007cb8: 48 89 45 a8                 	movq	%rax, -88(%rbp)
100007cbc: 49 8b 47 10                 	movq	16(%r15), %rax
100007cc0: 49 8b 0f                    	movq	(%r15), %rcx
100007cc3: 49 8b 57 08                 	movq	8(%r15), %rdx
100007cc7: 49 8b 74 24 10              	movq	16(%r12), %rsi
100007ccc: 49 8b 3c 24                 	movq	(%r12), %rdi
100007cd0: 49 8b 5c 24 08              	movq	8(%r12), %rbx
100007cd5: 50                          	pushq	%rax
100007cd6: 52                          	pushq	%rdx
100007cd7: 51                          	pushq	%rcx
100007cd8: 56                          	pushq	%rsi
100007cd9: 53                          	pushq	%rbx
100007cda: 57                          	pushq	%rdi
100007cdb: e8 50 13 00 00              	callq	4944 <_distance>
100007ce0: 48 83 c4 30                 	addq	$48, %rsp
100007ce4: f2 0f 59 c0                 	mulsd	%xmm0, %xmm0
100007ce8: 66 41 0f 10 8e 80 00 00 00  	movupd	128(%r14), %xmm1
100007cf1: 66 0f 59 0d a7 92 00 00     	mulpd	37543(%rip), %xmm1
100007cf9: 66 0f 59 c9                 	mulpd	%xmm1, %xmm1
100007cfd: 66 0f 28 d1                 	movapd	%xmm1, %xmm2
100007d01: 66 0f 15 d1                 	unpckhpd	%xmm1, %xmm2
100007d05: f2 0f 58 d1                 	addsd	%xmm1, %xmm2
100007d09: 66 0f 2e c2                 	ucomisd	%xmm2, %xmm0
100007d0d: 77 12                       	ja	18 <_f_cylinder_render+0x6a1>
100007d0f: 48 8d b5 70 ff ff ff        	leaq	-144(%rbp), %rsi
100007d16: b9 0a 00 00 00              	movl	$10, %ecx
100007d1b: 4c 89 ef                    	movq	%r13, %rdi
100007d1e: f3 48 a5                    	rep		movsq	(%rsi), %es:(%rdi)
100007d21: f2 41 0f 10 45 00           	movsd	(%r13), %xmm0
100007d27: f2 0f 10 0d 61 92 00 00     	movsd	37473(%rip), %xmm1
100007d2f: 66 0f 2e c8                 	ucomisd	%xmm0, %xmm1
100007d33: 0f 97 c1                    	seta	%cl
100007d36: f2 0f 10 0d 8a 91 00 00     	movsd	37258(%rip), %xmm1
100007d3e: 66 0f 2e c8                 	ucomisd	%xmm0, %xmm1
100007d42: 0f 92 c0                    	setb	%al
100007d45: 20 c8                       	andb	%cl, %al
100007d47: 48 81 c4 18 01 00 00        	addq	$280, %rsp
100007d4e: 5b                          	popq	%rbx
100007d4f: 41 5c                       	popq	%r12
100007d51: 41 5d                       	popq	%r13
100007d53: 41 5e                       	popq	%r14
100007d55: 41 5f                       	popq	%r15
100007d57: 5d                          	popq	%rbp
100007d58: c3                          	retq
100007d59: 90                          	nop
100007d5a: 90                          	nop
100007d5b: 90                          	nop
100007d5c: 90                          	nop
100007d5d: 90                          	nop
100007d5e: 90                          	nop
100007d5f: 90                          	nop

0000000100007d60 _get_closes_object:
100007d60: 55                          	pushq	%rbp
100007d61: 48 89 e5                    	movq	%rsp, %rbp
100007d64: 41 57                       	pushq	%r15
100007d66: 41 56                       	pushq	%r14
100007d68: 41 55                       	pushq	%r13
100007d6a: 41 54                       	pushq	%r12
100007d6c: 53                          	pushq	%rbx
100007d6d: 48 83 ec 68                 	subq	$104, %rsp
100007d71: 48 89 55 d0                 	movq	%rdx, -48(%rbp)
100007d75: 48 85 f6                    	testq	%rsi, %rsi
100007d78: 0f 84 ea 00 00 00           	je	234 <_get_closes_object+0x108>
100007d7e: 48 89 f3                    	movq	%rsi, %rbx
100007d81: 49 89 fc                    	movq	%rdi, %r12
100007d84: f2 0f 10 05 04 92 00 00     	movsd	37380(%rip), %xmm0
100007d8c: f2 0f 11 45 c8              	movsd	%xmm0, -56(%rbp)
100007d91: 45 31 ff                    	xorl	%r15d, %r15d
100007d94: 4c 8d 35 d5 7e 02 00        	leaq	163541(%rip), %r14
100007d9b: 4c 8d ad 78 ff ff ff        	leaq	-136(%rbp), %r13
100007da2: eb 19                       	jmp	25 <_get_closes_object+0x5d>
100007da4: 66 2e 0f 1f 84 00 00 00 00 00       	nopw	%cs:(%rax,%rax)
100007dae: 66 90                       	nop
100007db0: 48 8b 5b 28                 	movq	40(%rbx), %rbx
100007db4: 48 85 db                    	testq	%rbx, %rbx
100007db7: 0f 84 ae 00 00 00           	je	174 <_get_closes_object+0x10b>
100007dbd: 0f b6 03                    	movzbl	(%rbx), %eax
100007dc0: 80 3d d1 7e 02 00 00        	cmpb	$0, 163537(%rip)
100007dc7: 75 4d                       	jne	77 <_get_closes_object+0xb6>
100007dc9: c6 05 c8 7e 02 00 01        	movb	$1, 163528(%rip)
100007dd0: 48 8d 0d 79 05 00 00        	leaq	1401(%rip), %rcx
100007dd7: 48 89 0d 92 7e 02 00        	movq	%rcx, 163474(%rip)
100007dde: 48 8d 0d 1b 01 00 00        	leaq	283(%rip), %rcx
100007de5: 48 89 0d 94 7e 02 00        	movq	%rcx, 163476(%rip)
100007dec: 48 8d 0d 8d f8 ff ff        	leaq	-1907(%rip), %rcx
100007df3: 48 89 0d 7e 7e 02 00        	movq	%rcx, 163454(%rip)
100007dfa: 48 8d 0d ff 0b 00 00        	leaq	3071(%rip), %rcx
100007e01: 48 89 0d 80 7e 02 00        	movq	%rcx, 163456(%rip)
100007e08: 48 8d 0d 81 f5 ff ff        	leaq	-2687(%rip), %rcx
100007e0f: 48 89 0d 7a 7e 02 00        	movq	%rcx, 163450(%rip)
100007e16: 4c 89 e7                    	movq	%r12, %rdi
100007e19: 48 89 de                    	movq	%rbx, %rsi
100007e1c: 4c 89 ea                    	movq	%r13, %rdx
100007e1f: 41 ff 14 c6                 	callq	*(%r14,%rax,8)
100007e23: 84 c0                       	testb	%al, %al
100007e25: 74 89                       	je	-119 <_get_closes_object+0x50>
100007e27: f2 0f 10 85 78 ff ff ff     	movsd	-136(%rbp), %xmm0
100007e2f: f2 0f 10 0d 91 90 00 00     	movsd	37009(%rip), %xmm1
100007e37: 66 0f 2e c8                 	ucomisd	%xmm0, %xmm1
100007e3b: 0f 83 6f ff ff ff           	jae	-145 <_get_closes_object+0x50>
100007e41: 66 0f 2e 45 c8              	ucomisd	-56(%rbp), %xmm0
100007e46: 0f 83 64 ff ff ff           	jae	-156 <_get_closes_object+0x50>
100007e4c: b9 0a 00 00 00              	movl	$10, %ecx
100007e51: 48 8b 7d d0                 	movq	-48(%rbp), %rdi
100007e55: 4c 89 ee                    	movq	%r13, %rsi
100007e58: f3 48 a5                    	rep		movsq	(%rsi), %es:(%rdi)
100007e5b: 49 89 df                    	movq	%rbx, %r15
100007e5e: f2 0f 11 45 c8              	movsd	%xmm0, -56(%rbp)
100007e63: e9 48 ff ff ff              	jmp	-184 <_get_closes_object+0x50>
100007e68: 45 31 ff                    	xorl	%r15d, %r15d
100007e6b: 4c 89 ff                    	movq	%r15, %rdi
100007e6e: 48 8b 75 d0                 	movq	-48(%rbp), %rsi
100007e72: e8 49 d9 ff ff              	callq	-9911 <_check_color>
100007e77: 4c 89 f8                    	movq	%r15, %rax
100007e7a: 48 83 c4 68                 	addq	$104, %rsp
100007e7e: 5b                          	popq	%rbx
100007e7f: 41 5c                       	popq	%r12
100007e81: 41 5d                       	popq	%r13
100007e83: 41 5e                       	popq	%r14
100007e85: 41 5f                       	popq	%r15
100007e87: 5d                          	popq	%rbp
100007e88: c3                          	retq
100007e89: 0f 1f 80 00 00 00 00        	nopl	(%rax)

0000000100007e90 _intersect:
100007e90: 55                          	pushq	%rbp
100007e91: 48 89 e5                    	movq	%rsp, %rbp
100007e94: 80 3d fd 7d 02 00 00        	cmpb	$0, 163325(%rip)
100007e9b: 75 4d                       	jne	77 <_intersect+0x5a>
100007e9d: c6 05 f4 7d 02 00 01        	movb	$1, 163316(%rip)
100007ea4: 48 8d 05 a5 04 00 00        	leaq	1189(%rip), %rax
100007eab: 48 89 05 be 7d 02 00        	movq	%rax, 163262(%rip)
100007eb2: 48 8d 05 47 00 00 00        	leaq	71(%rip), %rax
100007eb9: 48 89 05 c0 7d 02 00        	movq	%rax, 163264(%rip)
100007ec0: 48 8d 05 b9 f7 ff ff        	leaq	-2119(%rip), %rax
100007ec7: 48 89 05 aa 7d 02 00        	movq	%rax, 163242(%rip)
100007ece: 48 8d 05 2b 0b 00 00        	leaq	2859(%rip), %rax
100007ed5: 48 89 05 ac 7d 02 00        	movq	%rax, 163244(%rip)
100007edc: 48 8d 05 ad f4 ff ff        	leaq	-2899(%rip), %rax
100007ee3: 48 89 05 a6 7d 02 00        	movq	%rax, 163238(%rip)
100007eea: 48 63 c7                    	movslq	%edi, %rax
100007eed: 48 8d 0d 7c 7d 02 00        	leaq	163196(%rip), %rcx
100007ef4: 48 8b 04 c1                 	movq	(%rcx,%rax,8), %rax
100007ef8: 5d                          	popq	%rbp
100007ef9: c3                          	retq
100007efa: 90                          	nop
100007efb: 90                          	nop
100007efc: 90                          	nop
100007efd: 90                          	nop
100007efe: 90                          	nop
100007eff: 90                          	nop

0000000100007f00 _plan_hit:
100007f00: 55                          	pushq	%rbp
100007f01: 48 89 e5                    	movq	%rsp, %rbp
100007f04: 41 57                       	pushq	%r15
100007f06: 41 56                       	pushq	%r14
100007f08: 41 54                       	pushq	%r12
100007f0a: 53                          	pushq	%rbx
100007f0b: 48 83 ec 40                 	subq	$64, %rsp
100007f0f: 49 89 d6                    	movq	%rdx, %r14
100007f12: 48 89 fb                    	movq	%rdi, %rbx
100007f15: 4c 8b 7e 18                 	movq	24(%rsi), %r15
100007f19: 48 8b 47 28                 	movq	40(%rdi), %rax
100007f1d: 4c 8b 47 18                 	movq	24(%rdi), %r8
100007f21: 48 8b 57 20                 	movq	32(%rdi), %rdx
100007f25: 49 8b 77 50                 	movq	80(%r15), %rsi
100007f29: 49 8b 7f 40                 	movq	64(%r15), %rdi
100007f2d: 49 8b 4f 48                 	movq	72(%r15), %rcx
100007f31: 50                          	pushq	%rax
100007f32: 52                          	pushq	%rdx
100007f33: 41 50                       	pushq	%r8
100007f35: 56                          	pushq	%rsi
100007f36: 51                          	pushq	%rcx
100007f37: 57                          	pushq	%rdi
100007f38: e8 83 0f 00 00              	callq	3971 <_dot_product>
100007f3d: 48 83 c4 30                 	addq	$48, %rsp
100007f41: 66 0f 28 0d 67 90 00 00     	movapd	36967(%rip), %xmm1
100007f49: 66 0f 54 c8                 	andpd	%xmm0, %xmm1
100007f4d: 66 0f 2e 0d 73 8f 00 00     	ucomisd	36723(%rip), %xmm1
100007f55: 0f 86 b7 01 00 00           	jbe	439 <_plan_hit+0x212>
100007f5b: 4d 8d 67 40                 	leaq	64(%r15), %r12
100007f5f: 48 8b 43 10                 	movq	16(%rbx), %rax
100007f63: 4c 8b 0b                    	movq	(%rbx), %r9
100007f66: 48 8b 53 08                 	movq	8(%rbx), %rdx
100007f6a: 49 8b 77 70                 	movq	112(%r15), %rsi
100007f6e: 4d 8b 47 60                 	movq	96(%r15), %r8
100007f72: 49 8b 4f 68                 	movq	104(%r15), %rcx
100007f76: 48 8d 7d c8                 	leaq	-56(%rbp), %rdi
100007f7a: 50                          	pushq	%rax
100007f7b: 52                          	pushq	%rdx
100007f7c: 41 51                       	pushq	%r9
100007f7e: 56                          	pushq	%rsi
100007f7f: 51                          	pushq	%rcx
100007f80: 41 50                       	pushq	%r8
100007f82: 66 0f 29 45 a0              	movapd	%xmm0, -96(%rbp)
100007f87: e8 c4 0d 00 00              	callq	3524 <_vec_sub>
100007f8c: 48 83 c4 30                 	addq	$48, %rsp
100007f90: 48 8b 45 d8                 	movq	-40(%rbp), %rax
100007f94: 48 89 45 c0                 	movq	%rax, -64(%rbp)
100007f98: 48 8b 45 c8                 	movq	-56(%rbp), %rax
100007f9c: 48 8b 4d d0                 	movq	-48(%rbp), %rcx
100007fa0: 48 89 4d b8                 	movq	%rcx, -72(%rbp)
100007fa4: 48 89 45 b0                 	movq	%rax, -80(%rbp)
100007fa8: 49 8b 44 24 10              	movq	16(%r12), %rax
100007fad: 4d 8b 04 24                 	movq	(%r12), %r8
100007fb1: 49 8b 54 24 08              	movq	8(%r12), %rdx
100007fb6: 48 8b 75 c0                 	movq	-64(%rbp), %rsi
100007fba: 48 8b 7d b0                 	movq	-80(%rbp), %rdi
100007fbe: 48 8b 4d b8                 	movq	-72(%rbp), %rcx
100007fc2: 50                          	pushq	%rax
100007fc3: 52                          	pushq	%rdx
100007fc4: 41 50                       	pushq	%r8
100007fc6: 56                          	pushq	%rsi
100007fc7: 51                          	pushq	%rcx
100007fc8: 57                          	pushq	%rdi
100007fc9: e8 f2 0e 00 00              	callq	3826 <_dot_product>
100007fce: 48 83 c4 30                 	addq	$48, %rsp
100007fd2: f2 0f 5e 45 a0              	divsd	-96(%rbp), %xmm0
100007fd7: 66 0f 2e 05 e9 8e 00 00     	ucomisd	36585(%rip), %xmm0
100007fdf: 0f 86 2d 01 00 00           	jbe	301 <_plan_hit+0x212>
100007fe5: f2 41 0f 11 06              	movsd	%xmm0, (%r14)
100007fea: 4c 8b 4b 28                 	movq	40(%rbx), %r9
100007fee: 48 8b 4b 20                 	movq	32(%rbx), %rcx
100007ff2: 48 8b 53 18                 	movq	24(%rbx), %rdx
100007ff6: 48 8b 73 10                 	movq	16(%rbx), %rsi
100007ffa: 4c 8b 03                    	movq	(%rbx), %r8
100007ffd: 48 8b 43 08                 	movq	8(%rbx), %rax
100008001: 48 8d 5b 18                 	leaq	24(%rbx), %rbx
100008005: 48 8d 7d c8                 	leaq	-56(%rbp), %rdi
100008009: 41 51                       	pushq	%r9
10000800b: 51                          	pushq	%rcx
10000800c: 52                          	pushq	%rdx
10000800d: 56                          	pushq	%rsi
10000800e: 50                          	pushq	%rax
10000800f: 41 50                       	pushq	%r8
100008011: e8 aa 0f 00 00              	callq	4010 <_at>
100008016: 48 83 c4 30                 	addq	$48, %rsp
10000801a: 48 8b 45 d8                 	movq	-40(%rbp), %rax
10000801e: 49 89 46 18                 	movq	%rax, 24(%r14)
100008022: 48 8b 45 c8                 	movq	-56(%rbp), %rax
100008026: 48 8b 4d d0                 	movq	-48(%rbp), %rcx
10000802a: 49 89 4e 10                 	movq	%rcx, 16(%r14)
10000802e: 49 89 46 08                 	movq	%rax, 8(%r14)
100008032: 49 8b 44 24 10              	movq	16(%r12), %rax
100008037: 49 89 46 30                 	movq	%rax, 48(%r14)
10000803b: 49 8b 04 24                 	movq	(%r12), %rax
10000803f: 49 8b 4c 24 08              	movq	8(%r12), %rcx
100008044: 49 89 4e 28                 	movq	%rcx, 40(%r14)
100008048: 49 89 46 20                 	movq	%rax, 32(%r14)
10000804c: 48 8b 43 10                 	movq	16(%rbx), %rax
100008050: 48 8b 0b                    	movq	(%rbx), %rcx
100008053: 48 8b 53 08                 	movq	8(%rbx), %rdx
100008057: 49 8b 74 24 10              	movq	16(%r12), %rsi
10000805c: 49 8b 3c 24                 	movq	(%r12), %rdi
100008060: 49 8b 5c 24 08              	movq	8(%r12), %rbx
100008065: 50                          	pushq	%rax
100008066: 52                          	pushq	%rdx
100008067: 51                          	pushq	%rcx
100008068: 56                          	pushq	%rsi
100008069: 53                          	pushq	%rbx
10000806a: 57                          	pushq	%rdi
10000806b: e8 50 0e 00 00              	callq	3664 <_dot_product>
100008070: 48 83 c4 30                 	addq	$48, %rsp
100008074: 66 0f 57 c9                 	xorpd	%xmm1, %xmm1
100008078: 66 0f 2e c1                 	ucomisd	%xmm1, %xmm0
10000807c: 76 3a                       	jbe	58 <_plan_hit+0x1b8>
10000807e: 49 8d 5e 20                 	leaq	32(%r14), %rbx
100008082: 48 83 ec 08                 	subq	$8, %rsp
100008086: 48 8b 43 10                 	movq	16(%rbx), %rax
10000808a: 48 8b 0b                    	movq	(%rbx), %rcx
10000808d: 48 8b 53 08                 	movq	8(%rbx), %rdx
100008091: 48 8d 7d c8                 	leaq	-56(%rbp), %rdi
100008095: 50                          	pushq	%rax
100008096: 52                          	pushq	%rdx
100008097: 51                          	pushq	%rcx
100008098: e8 d3 0e 00 00              	callq	3795 <_vec_nega>
10000809d: 48 83 c4 20                 	addq	$32, %rsp
1000080a1: 48 8b 45 d8                 	movq	-40(%rbp), %rax
1000080a5: 48 89 43 10                 	movq	%rax, 16(%rbx)
1000080a9: 48 8b 45 c8                 	movq	-56(%rbp), %rax
1000080ad: 48 8b 4d d0                 	movq	-48(%rbp), %rcx
1000080b1: 48 89 4b 08                 	movq	%rcx, 8(%rbx)
1000080b5: 48 89 03                    	movq	%rax, (%rbx)
1000080b8: 41 0f b6 47 58              	movzbl	88(%r15), %eax
1000080bd: 0f 57 c0                    	xorps	%xmm0, %xmm0
1000080c0: f2 0f 2a c0                 	cvtsi2sd	%eax, %xmm0
1000080c4: f2 0f 10 1d ec 8d 00 00     	movsd	36332(%rip), %xmm3
1000080cc: f2 0f 59 c3                 	mulsd	%xmm3, %xmm0
1000080d0: 41 0f b6 47 59              	movzbl	89(%r15), %eax
1000080d5: 0f 57 c9                    	xorps	%xmm1, %xmm1
1000080d8: f2 0f 2a c8                 	cvtsi2sd	%eax, %xmm1
1000080dc: f2 0f 59 cb                 	mulsd	%xmm3, %xmm1
1000080e0: 41 0f b6 47 5a              	movzbl	90(%r15), %eax
1000080e5: f2 0f 2a d0                 	cvtsi2sd	%eax, %xmm2
1000080e9: f2 0f 59 d3                 	mulsd	%xmm3, %xmm2
1000080ed: 48 8d 7d c8                 	leaq	-56(%rbp), %rdi
1000080f1: e8 5a 0e 00 00              	callq	3674 <_create_vec>
1000080f6: 48 8b 45 d8                 	movq	-40(%rbp), %rax
1000080fa: 49 89 46 48                 	movq	%rax, 72(%r14)
1000080fe: 48 8b 45 c8                 	movq	-56(%rbp), %rax
100008102: 48 8b 4d d0                 	movq	-48(%rbp), %rcx
100008106: 49 89 4e 40                 	movq	%rcx, 64(%r14)
10000810a: 49 89 46 38                 	movq	%rax, 56(%r14)
10000810e: b0 01                       	movb	$1, %al
100008110: eb 02                       	jmp	2 <_plan_hit+0x214>
100008112: 31 c0                       	xorl	%eax, %eax
100008114: 48 83 c4 40                 	addq	$64, %rsp
100008118: 5b                          	popq	%rbx
100008119: 41 5c                       	popq	%r12
10000811b: 41 5e                       	popq	%r14
10000811d: 41 5f                       	popq	%r15
10000811f: 5d                          	popq	%rbp
100008120: c3                          	retq
100008121: 90                          	nop
100008122: 90                          	nop
100008123: 90                          	nop
100008124: 90                          	nop
100008125: 90                          	nop
100008126: 90                          	nop
100008127: 90                          	nop
100008128: 90                          	nop
100008129: 90                          	nop
10000812a: 90                          	nop
10000812b: 90                          	nop
10000812c: 90                          	nop
10000812d: 90                          	nop
10000812e: 90                          	nop
10000812f: 90                          	nop

0000000100008130 _sphere_quad:
100008130: 55                          	pushq	%rbp
100008131: 48 89 e5                    	movq	%rsp, %rbp
100008134: 41 57                       	pushq	%r15
100008136: 41 56                       	pushq	%r14
100008138: 53                          	pushq	%rbx
100008139: 48 83 ec 38                 	subq	$56, %rsp
10000813d: 48 89 d3                    	movq	%rdx, %rbx
100008140: 49 89 fe                    	movq	%rdi, %r14
100008143: 4c 8b 7e 18                 	movq	24(%rsi), %r15
100008147: 49 8b 47 50                 	movq	80(%r15), %rax
10000814b: 4d 8b 4f 40                 	movq	64(%r15), %r9
10000814f: 49 8b 57 48                 	movq	72(%r15), %rdx
100008153: 48 8b 73 10                 	movq	16(%rbx), %rsi
100008157: 4c 8b 03                    	movq	(%rbx), %r8
10000815a: 48 8b 4b 08                 	movq	8(%rbx), %rcx
10000815e: 48 8d 7d b8                 	leaq	-72(%rbp), %rdi
100008162: 50                          	pushq	%rax
100008163: 52                          	pushq	%rdx
100008164: 41 51                       	pushq	%r9
100008166: 56                          	pushq	%rsi
100008167: 51                          	pushq	%rcx
100008168: 41 50                       	pushq	%r8
10000816a: e8 e1 0b 00 00              	callq	3041 <_vec_sub>
10000816f: 48 83 c4 30                 	addq	$48, %rsp
100008173: 48 8b 45 c8                 	movq	-56(%rbp), %rax
100008177: 48 89 45 e0                 	movq	%rax, -32(%rbp)
10000817b: 48 8b 45 b8                 	movq	-72(%rbp), %rax
10000817f: 48 8b 4d c0                 	movq	-64(%rbp), %rcx
100008183: 48 89 4d d8                 	movq	%rcx, -40(%rbp)
100008187: 48 89 45 d0                 	movq	%rax, -48(%rbp)
10000818b: 48 8b 43 28                 	movq	40(%rbx), %rax
10000818f: 48 8b 4b 18                 	movq	24(%rbx), %rcx
100008193: 48 8b 53 20                 	movq	32(%rbx), %rdx
100008197: 50                          	pushq	%rax
100008198: 52                          	pushq	%rdx
100008199: 51                          	pushq	%rcx
10000819a: 50                          	pushq	%rax
10000819b: 52                          	pushq	%rdx
10000819c: 51                          	pushq	%rcx
10000819d: e8 1e 0d 00 00              	callq	3358 <_dot_product>
1000081a2: 48 83 c4 30                 	addq	$48, %rsp
1000081a6: f2 41 0f 11 06              	movsd	%xmm0, (%r14)
1000081ab: 48 8b 43 28                 	movq	40(%rbx), %rax
1000081af: 48 8b 4b 18                 	movq	24(%rbx), %rcx
1000081b3: 48 8b 53 20                 	movq	32(%rbx), %rdx
1000081b7: 48 8b 75 e0                 	movq	-32(%rbp), %rsi
1000081bb: 48 8b 7d d0                 	movq	-48(%rbp), %rdi
1000081bf: 48 8b 5d d8                 	movq	-40(%rbp), %rbx
1000081c3: 50                          	pushq	%rax
1000081c4: 52                          	pushq	%rdx
1000081c5: 51                          	pushq	%rcx
1000081c6: 56                          	pushq	%rsi
1000081c7: 53                          	pushq	%rbx
1000081c8: 57                          	pushq	%rdi
1000081c9: e8 f2 0c 00 00              	callq	3314 <_dot_product>
1000081ce: 48 83 c4 30                 	addq	$48, %rsp
1000081d2: f2 41 0f 11 46 08           	movsd	%xmm0, 8(%r14)
1000081d8: 48 8b 45 e0                 	movq	-32(%rbp), %rax
1000081dc: 48 8b 4d d0                 	movq	-48(%rbp), %rcx
1000081e0: 48 8b 55 d8                 	movq	-40(%rbp), %rdx
1000081e4: 50                          	pushq	%rax
1000081e5: 52                          	pushq	%rdx
1000081e6: 51                          	pushq	%rcx
1000081e7: 50                          	pushq	%rax
1000081e8: 52                          	pushq	%rdx
1000081e9: 51                          	pushq	%rcx
1000081ea: e8 d1 0c 00 00              	callq	3281 <_dot_product>
1000081ef: 48 83 c4 30                 	addq	$48, %rsp
1000081f3: f2 41 0f 10 4f 60           	movsd	96(%r15), %xmm1
1000081f9: f2 0f 59 0d 5f 8c 00 00     	mulsd	35935(%rip), %xmm1
100008201: f2 0f 59 c9                 	mulsd	%xmm1, %xmm1
100008205: f2 0f 5c c1                 	subsd	%xmm1, %xmm0
100008209: f2 41 0f 11 46 10           	movsd	%xmm0, 16(%r14)
10000820f: 66 41 0f 10 0e              	movupd	(%r14), %xmm1
100008214: 66 0f 3a 0d c1 02           	blendpd	$2, %xmm1, %xmm0
10000821a: 66 0f 59 c1                 	mulpd	%xmm1, %xmm0
10000821e: 66 0f 28 c8                 	movapd	%xmm0, %xmm1
100008222: 66 0f 15 c8                 	unpckhpd	%xmm0, %xmm1
100008226: f2 0f 5c c8                 	subsd	%xmm0, %xmm1
10000822a: 66 0f 28 c1                 	movapd	%xmm1, %xmm0
10000822e: 48 83 c4 38                 	addq	$56, %rsp
100008232: 5b                          	popq	%rbx
100008233: 41 5e                       	popq	%r14
100008235: 41 5f                       	popq	%r15
100008237: 5d                          	popq	%rbp
100008238: c3                          	retq
100008239: 0f 1f 80 00 00 00 00        	nopl	(%rax)

0000000100008240 _update_record:
100008240: 55                          	pushq	%rbp
100008241: 48 89 e5                    	movq	%rsp, %rbp
100008244: 41 57                       	pushq	%r15
100008246: 41 56                       	pushq	%r14
100008248: 53                          	pushq	%rbx
100008249: 48 83 ec 18                 	subq	$24, %rsp
10000824d: 49 89 f6                    	movq	%rsi, %r14
100008250: 48 89 fb                    	movq	%rdi, %rbx
100008253: f2 0f 11 07                 	movsd	%xmm0, (%rdi)
100008257: 48 8b 42 28                 	movq	40(%rdx), %rax
10000825b: 48 8b 4a 20                 	movq	32(%rdx), %rcx
10000825f: 48 8b 72 18                 	movq	24(%rdx), %rsi
100008263: 4c 8b 42 10                 	movq	16(%rdx), %r8
100008267: 4c 8b 0a                    	movq	(%rdx), %r9
10000826a: 48 8b 52 08                 	movq	8(%rdx), %rdx
10000826e: 48 8d 7d d0                 	leaq	-48(%rbp), %rdi
100008272: 50                          	pushq	%rax
100008273: 51                          	pushq	%rcx
100008274: 56                          	pushq	%rsi
100008275: 41 50                       	pushq	%r8
100008277: 52                          	pushq	%rdx
100008278: 41 51                       	pushq	%r9
10000827a: e8 41 0d 00 00              	callq	3393 <_at>
10000827f: 48 83 c4 30                 	addq	$48, %rsp
100008283: 48 8b 45 e0                 	movq	-32(%rbp), %rax
100008287: 48 89 43 18                 	movq	%rax, 24(%rbx)
10000828b: 48 8b 45 d0                 	movq	-48(%rbp), %rax
10000828f: 48 8b 4d d8                 	movq	-40(%rbp), %rcx
100008293: 48 89 4b 10                 	movq	%rcx, 16(%rbx)
100008297: 48 89 43 08                 	movq	%rax, 8(%rbx)
10000829b: 4c 8d 7b 20                 	leaq	32(%rbx), %r15
10000829f: 49 8b 46 50                 	movq	80(%r14), %rax
1000082a3: 4d 8b 4e 40                 	movq	64(%r14), %r9
1000082a7: 49 8b 56 48                 	movq	72(%r14), %rdx
1000082ab: 48 8b 73 18                 	movq	24(%rbx), %rsi
1000082af: 4c 8b 43 08                 	movq	8(%rbx), %r8
1000082b3: 48 8b 4b 10                 	movq	16(%rbx), %rcx
1000082b7: 48 8d 7d d0                 	leaq	-48(%rbp), %rdi
1000082bb: 50                          	pushq	%rax
1000082bc: 52                          	pushq	%rdx
1000082bd: 41 51                       	pushq	%r9
1000082bf: 56                          	pushq	%rsi
1000082c0: 51                          	pushq	%rcx
1000082c1: 41 50                       	pushq	%r8
1000082c3: e8 88 0a 00 00              	callq	2696 <_vec_sub>
1000082c8: 48 83 c4 30                 	addq	$48, %rsp
1000082cc: 48 8b 45 e0                 	movq	-32(%rbp), %rax
1000082d0: 48 89 43 30                 	movq	%rax, 48(%rbx)
1000082d4: 48 8b 45 d0                 	movq	-48(%rbp), %rax
1000082d8: 48 8b 4d d8                 	movq	-40(%rbp), %rcx
1000082dc: 48 89 4b 28                 	movq	%rcx, 40(%rbx)
1000082e0: 48 89 43 20                 	movq	%rax, 32(%rbx)
1000082e4: 48 8d 7d d0                 	leaq	-48(%rbp), %rdi
1000082e8: 4c 89 fe                    	movq	%r15, %rsi
1000082eb: e8 e0 0a 00 00              	callq	2784 <_normalize>
1000082f0: 41 0f b6 46 58              	movzbl	88(%r14), %eax
1000082f5: 0f 57 c0                    	xorps	%xmm0, %xmm0
1000082f8: f2 0f 2a c0                 	cvtsi2sd	%eax, %xmm0
1000082fc: f2 0f 10 1d b4 8b 00 00     	movsd	35764(%rip), %xmm3
100008304: f2 0f 59 c3                 	mulsd	%xmm3, %xmm0
100008308: 41 0f b6 46 59              	movzbl	89(%r14), %eax
10000830d: f2 0f 2a c8                 	cvtsi2sd	%eax, %xmm1
100008311: f2 0f 59 cb                 	mulsd	%xmm3, %xmm1
100008315: 41 0f b6 46 5a              	movzbl	90(%r14), %eax
10000831a: f2 0f 2a d0                 	cvtsi2sd	%eax, %xmm2
10000831e: f2 0f 59 d3                 	mulsd	%xmm3, %xmm2
100008322: 48 8d 7d d0                 	leaq	-48(%rbp), %rdi
100008326: e8 25 0c 00 00              	callq	3109 <_create_vec>
10000832b: 48 8b 45 e0                 	movq	-32(%rbp), %rax
10000832f: 48 89 43 48                 	movq	%rax, 72(%rbx)
100008333: 48 8b 45 d0                 	movq	-48(%rbp), %rax
100008337: 48 8b 4d d8                 	movq	-40(%rbp), %rcx
10000833b: 48 89 4b 40                 	movq	%rcx, 64(%rbx)
10000833f: 48 89 43 38                 	movq	%rax, 56(%rbx)
100008343: 48 83 c4 18                 	addq	$24, %rsp
100008347: 5b                          	popq	%rbx
100008348: 41 5e                       	popq	%r14
10000834a: 41 5f                       	popq	%r15
10000834c: 5d                          	popq	%rbp
10000834d: c3                          	retq
10000834e: 66 90                       	nop

0000000100008350 _sphere_hit:
100008350: 55                          	pushq	%rbp
100008351: 48 89 e5                    	movq	%rsp, %rbp
100008354: 41 57                       	pushq	%r15
100008356: 41 56                       	pushq	%r14
100008358: 41 54                       	pushq	%r12
10000835a: 53                          	pushq	%rbx
10000835b: 48 83 ec 50                 	subq	$80, %rsp
10000835f: 49 89 d6                    	movq	%rdx, %r14
100008362: 49 89 f7                    	movq	%rsi, %r15
100008365: 48 89 fb                    	movq	%rdi, %rbx
100008368: 4c 8b 66 18                 	movq	24(%rsi), %r12
10000836c: 49 8b 44 24 50              	movq	80(%r12), %rax
100008371: 4d 8b 4c 24 40              	movq	64(%r12), %r9
100008376: 49 8b 54 24 48              	movq	72(%r12), %rdx
10000837b: 48 8b 77 10                 	movq	16(%rdi), %rsi
10000837f: 4c 8b 07                    	movq	(%rdi), %r8
100008382: 48 8b 4f 08                 	movq	8(%rdi), %rcx
100008386: 48 8d 7d a8                 	leaq	-88(%rbp), %rdi
10000838a: 50                          	pushq	%rax
10000838b: 52                          	pushq	%rdx
10000838c: 41 51                       	pushq	%r9
10000838e: 56                          	pushq	%rsi
10000838f: 51                          	pushq	%rcx
100008390: 41 50                       	pushq	%r8
100008392: e8 b9 09 00 00              	callq	2489 <_vec_sub>
100008397: 48 83 c4 30                 	addq	$48, %rsp
10000839b: 48 8b 45 b8                 	movq	-72(%rbp), %rax
10000839f: 48 89 45 d8                 	movq	%rax, -40(%rbp)
1000083a3: 48 8b 45 a8                 	movq	-88(%rbp), %rax
1000083a7: 48 8b 4d b0                 	movq	-80(%rbp), %rcx
1000083ab: 48 89 4d d0                 	movq	%rcx, -48(%rbp)
1000083af: 48 89 45 c8                 	movq	%rax, -56(%rbp)
1000083b3: 48 8b 43 28                 	movq	40(%rbx), %rax
1000083b7: 48 8b 4b 18                 	movq	24(%rbx), %rcx
1000083bb: 48 8b 53 20                 	movq	32(%rbx), %rdx
1000083bf: 50                          	pushq	%rax
1000083c0: 52                          	pushq	%rdx
1000083c1: 51                          	pushq	%rcx
1000083c2: 50                          	pushq	%rax
1000083c3: 52                          	pushq	%rdx
1000083c4: 51                          	pushq	%rcx
1000083c5: e8 f6 0a 00 00              	callq	2806 <_dot_product>
1000083ca: 48 83 c4 30                 	addq	$48, %rsp
1000083ce: f2 0f 11 45 c0              	movsd	%xmm0, -64(%rbp)
1000083d3: 48 8b 43 28                 	movq	40(%rbx), %rax
1000083d7: 4c 8b 43 18                 	movq	24(%rbx), %r8
1000083db: 48 8b 53 20                 	movq	32(%rbx), %rdx
1000083df: 48 8b 75 d8                 	movq	-40(%rbp), %rsi
1000083e3: 48 8b 7d c8                 	movq	-56(%rbp), %rdi
1000083e7: 48 8b 4d d0                 	movq	-48(%rbp), %rcx
1000083eb: 50                          	pushq	%rax
1000083ec: 52                          	pushq	%rdx
1000083ed: 41 50                       	pushq	%r8
1000083ef: 56                          	pushq	%rsi
1000083f0: 51                          	pushq	%rcx
1000083f1: 57                          	pushq	%rdi
1000083f2: e8 c9 0a 00 00              	callq	2761 <_dot_product>
1000083f7: 48 83 c4 30                 	addq	$48, %rsp
1000083fb: 66 0f 29 45 90              	movapd	%xmm0, -112(%rbp)
100008400: 48 8b 45 d8                 	movq	-40(%rbp), %rax
100008404: 48 8b 4d c8                 	movq	-56(%rbp), %rcx
100008408: 48 8b 55 d0                 	movq	-48(%rbp), %rdx
10000840c: 50                          	pushq	%rax
10000840d: 52                          	pushq	%rdx
10000840e: 51                          	pushq	%rcx
10000840f: 50                          	pushq	%rax
100008410: 52                          	pushq	%rdx
100008411: 51                          	pushq	%rcx
100008412: e8 a9 0a 00 00              	callq	2729 <_dot_product>
100008417: 66 0f 28 5d 90              	movapd	-112(%rbp), %xmm3
10000841c: f2 0f 10 55 c0              	movsd	-64(%rbp), %xmm2
100008421: 48 83 c4 30                 	addq	$48, %rsp
100008425: f2 41 0f 10 4c 24 60        	movsd	96(%r12), %xmm1
10000842c: f2 0f 59 0d 2c 8a 00 00     	mulsd	35372(%rip), %xmm1
100008434: f2 0f 59 c9                 	mulsd	%xmm1, %xmm1
100008438: f2 0f 5c c8                 	subsd	%xmm0, %xmm1
10000843c: 66 0f 28 c3                 	movapd	%xmm3, %xmm0
100008440: f2 0f 59 c3                 	mulsd	%xmm3, %xmm0
100008444: f2 0f 59 ca                 	mulsd	%xmm2, %xmm1
100008448: f2 0f 58 c8                 	addsd	%xmm0, %xmm1
10000844c: 66 0f 2e 0d 74 8a 00 00     	ucomisd	35444(%rip), %xmm1
100008454: 73 07                       	jae	7 <_sphere_hit+0x10d>
100008456: 31 c0                       	xorl	%eax, %eax
100008458: e9 50 01 00 00              	jmp	336 <_sphere_hit+0x25d>
10000845d: 66 0f 28 05 1b 8b 00 00     	movapd	35611(%rip), %xmm0
100008465: 66 0f 57 c3                 	xorpd	%xmm3, %xmm0
100008469: 76 28                       	jbe	40 <_sphere_hit+0x143>
10000846b: f2 0f 51 c9                 	sqrtsd	%xmm1, %xmm1
10000846f: f2 0f 5c c1                 	subsd	%xmm1, %xmm0
100008473: f2 0f 5e c2                 	divsd	%xmm2, %xmm0
100008477: 66 0f 2e 05 49 8a 00 00     	ucomisd	35401(%rip), %xmm0
10000847f: 76 0a                       	jbe	10 <_sphere_hit+0x13b>
100008481: 66 0f 2e 05 07 8b 00 00     	ucomisd	35591(%rip), %xmm0
100008489: 72 2a                       	jb	42 <_sphere_hit+0x165>
10000848b: f2 0f 5c cb                 	subsd	%xmm3, %xmm1
10000848f: 66 0f 28 c1                 	movapd	%xmm1, %xmm0
100008493: f2 0f 5e c2                 	divsd	%xmm2, %xmm0
100008497: 31 c0                       	xorl	%eax, %eax
100008499: 66 0f 2e 05 27 8a 00 00     	ucomisd	35367(%rip), %xmm0
1000084a1: 0f 86 06 01 00 00           	jbe	262 <_sphere_hit+0x25d>
1000084a7: 66 0f 2e 05 e1 8a 00 00     	ucomisd	35553(%rip), %xmm0
1000084af: 0f 83 f8 00 00 00           	jae	248 <_sphere_hit+0x25d>
1000084b5: 4d 8b 7f 18                 	movq	24(%r15), %r15
1000084b9: f2 41 0f 11 06              	movsd	%xmm0, (%r14)
1000084be: 48 8b 43 28                 	movq	40(%rbx), %rax
1000084c2: 48 8b 4b 20                 	movq	32(%rbx), %rcx
1000084c6: 48 8b 53 18                 	movq	24(%rbx), %rdx
1000084ca: 48 8b 73 10                 	movq	16(%rbx), %rsi
1000084ce: 4c 8b 03                    	movq	(%rbx), %r8
1000084d1: 48 8b 5b 08                 	movq	8(%rbx), %rbx
1000084d5: 48 8d 7d c8                 	leaq	-56(%rbp), %rdi
1000084d9: 50                          	pushq	%rax
1000084da: 51                          	pushq	%rcx
1000084db: 52                          	pushq	%rdx
1000084dc: 56                          	pushq	%rsi
1000084dd: 53                          	pushq	%rbx
1000084de: 41 50                       	pushq	%r8
1000084e0: e8 db 0a 00 00              	callq	2779 <_at>
1000084e5: 48 83 c4 30                 	addq	$48, %rsp
1000084e9: 48 8b 45 d8                 	movq	-40(%rbp), %rax
1000084ed: 49 89 46 18                 	movq	%rax, 24(%r14)
1000084f1: 48 8b 45 c8                 	movq	-56(%rbp), %rax
1000084f5: 48 8b 4d d0                 	movq	-48(%rbp), %rcx
1000084f9: 49 89 4e 10                 	movq	%rcx, 16(%r14)
1000084fd: 49 89 46 08                 	movq	%rax, 8(%r14)
100008501: 4d 8d 66 20                 	leaq	32(%r14), %r12
100008505: 49 8b 47 50                 	movq	80(%r15), %rax
100008509: 4d 8b 47 40                 	movq	64(%r15), %r8
10000850d: 49 8b 57 48                 	movq	72(%r15), %rdx
100008511: 49 8b 76 18                 	movq	24(%r14), %rsi
100008515: 49 8b 5e 08                 	movq	8(%r14), %rbx
100008519: 49 8b 4e 10                 	movq	16(%r14), %rcx
10000851d: 48 8d 7d c8                 	leaq	-56(%rbp), %rdi
100008521: 50                          	pushq	%rax
100008522: 52                          	pushq	%rdx
100008523: 41 50                       	pushq	%r8
100008525: 56                          	pushq	%rsi
100008526: 51                          	pushq	%rcx
100008527: 53                          	pushq	%rbx
100008528: e8 23 08 00 00              	callq	2083 <_vec_sub>
10000852d: 48 83 c4 30                 	addq	$48, %rsp
100008531: 48 8b 45 d8                 	movq	-40(%rbp), %rax
100008535: 49 89 46 30                 	movq	%rax, 48(%r14)
100008539: 48 8b 45 c8                 	movq	-56(%rbp), %rax
10000853d: 48 8b 4d d0                 	movq	-48(%rbp), %rcx
100008541: 49 89 4e 28                 	movq	%rcx, 40(%r14)
100008545: 49 89 46 20                 	movq	%rax, 32(%r14)
100008549: 48 8d 7d c8                 	leaq	-56(%rbp), %rdi
10000854d: 4c 89 e6                    	movq	%r12, %rsi
100008550: e8 7b 08 00 00              	callq	2171 <_normalize>
100008555: 41 0f b6 47 58              	movzbl	88(%r15), %eax
10000855a: 0f 57 c0                    	xorps	%xmm0, %xmm0
10000855d: f2 0f 2a c0                 	cvtsi2sd	%eax, %xmm0
100008561: f2 0f 10 1d 4f 89 00 00     	movsd	35151(%rip), %xmm3
100008569: f2 0f 59 c3                 	mulsd	%xmm3, %xmm0
10000856d: 41 0f b6 47 59              	movzbl	89(%r15), %eax
100008572: 0f 57 c9                    	xorps	%xmm1, %xmm1
100008575: f2 0f 2a c8                 	cvtsi2sd	%eax, %xmm1
100008579: f2 0f 59 cb                 	mulsd	%xmm3, %xmm1
10000857d: 41 0f b6 47 5a              	movzbl	90(%r15), %eax
100008582: f2 0f 2a d0                 	cvtsi2sd	%eax, %xmm2
100008586: f2 0f 59 d3                 	mulsd	%xmm3, %xmm2
10000858a: 48 8d 7d c8                 	leaq	-56(%rbp), %rdi
10000858e: e8 bd 09 00 00              	callq	2493 <_create_vec>
100008593: 48 8b 45 d8                 	movq	-40(%rbp), %rax
100008597: 49 89 46 48                 	movq	%rax, 72(%r14)
10000859b: 48 8b 45 c8                 	movq	-56(%rbp), %rax
10000859f: 48 8b 4d d0                 	movq	-48(%rbp), %rcx
1000085a3: 49 89 4e 40                 	movq	%rcx, 64(%r14)
1000085a7: 49 89 46 38                 	movq	%rax, 56(%r14)
1000085ab: b0 01                       	movb	$1, %al
1000085ad: 48 83 c4 50                 	addq	$80, %rsp
1000085b1: 5b                          	popq	%rbx
1000085b2: 41 5c                       	popq	%r12
1000085b4: 41 5e                       	popq	%r14
1000085b6: 41 5f                       	popq	%r15
1000085b8: 5d                          	popq	%rbp
1000085b9: c3                          	retq
1000085ba: 90                          	nop
1000085bb: 90                          	nop
1000085bc: 90                          	nop
1000085bd: 90                          	nop
1000085be: 90                          	nop
1000085bf: 90                          	nop

00000001000085c0 _tri_properties:
1000085c0: 55                          	pushq	%rbp
1000085c1: 48 89 e5                    	movq	%rsp, %rbp
1000085c4: 53                          	pushq	%rbx
1000085c5: 48 83 ec 18                 	subq	$24, %rsp
1000085c9: 48 89 fb                    	movq	%rdi, %rbx
1000085cc: 48 8b 47 70                 	movq	112(%rdi), %rax
1000085d0: 4c 8b 47 60                 	movq	96(%rdi), %r8
1000085d4: 48 8b 57 68                 	movq	104(%rdi), %rdx
1000085d8: 48 8b b7 88 00 00 00        	movq	136(%rdi), %rsi
1000085df: 48 8b 8f 80 00 00 00        	movq	128(%rdi), %rcx
1000085e6: 4c 8b 4f 78                 	movq	120(%rdi), %r9
1000085ea: 48 8d 7d e0                 	leaq	-32(%rbp), %rdi
1000085ee: 50                          	pushq	%rax
1000085ef: 52                          	pushq	%rdx
1000085f0: 41 50                       	pushq	%r8
1000085f2: 56                          	pushq	%rsi
1000085f3: 51                          	pushq	%rcx
1000085f4: 41 51                       	pushq	%r9
1000085f6: e8 55 07 00 00              	callq	1877 <_vec_sub>
1000085fb: 48 83 c4 30                 	addq	$48, %rsp
1000085ff: 48 8b 45 f0                 	movq	-16(%rbp), %rax
100008603: 48 89 83 b8 00 00 00        	movq	%rax, 184(%rbx)
10000860a: 48 8b 45 e0                 	movq	-32(%rbp), %rax
10000860e: 48 8b 4d e8                 	movq	-24(%rbp), %rcx
100008612: 48 89 8b b0 00 00 00        	movq	%rcx, 176(%rbx)
100008619: 48 89 83 a8 00 00 00        	movq	%rax, 168(%rbx)
100008620: 48 8b 83 88 00 00 00        	movq	136(%rbx), %rax
100008627: 4c 8b 43 78                 	movq	120(%rbx), %r8
10000862b: 48 8b 93 80 00 00 00        	movq	128(%rbx), %rdx
100008632: 48 8b b3 a0 00 00 00        	movq	160(%rbx), %rsi
100008639: 48 8b 8b 98 00 00 00        	movq	152(%rbx), %rcx
100008640: 4c 8b 8b 90 00 00 00        	movq	144(%rbx), %r9
100008647: 48 8d 7d e0                 	leaq	-32(%rbp), %rdi
10000864b: 50                          	pushq	%rax
10000864c: 52                          	pushq	%rdx
10000864d: 41 50                       	pushq	%r8
10000864f: 56                          	pushq	%rsi
100008650: 51                          	pushq	%rcx
100008651: 41 51                       	pushq	%r9
100008653: e8 f8 06 00 00              	callq	1784 <_vec_sub>
100008658: 48 83 c4 30                 	addq	$48, %rsp
10000865c: 48 8b 45 f0                 	movq	-16(%rbp), %rax
100008660: 48 89 83 d0 00 00 00        	movq	%rax, 208(%rbx)
100008667: 48 8b 45 e0                 	movq	-32(%rbp), %rax
10000866b: 48 8b 4d e8                 	movq	-24(%rbp), %rcx
10000866f: 48 89 8b c8 00 00 00        	movq	%rcx, 200(%rbx)
100008676: 48 89 83 c0 00 00 00        	movq	%rax, 192(%rbx)
10000867d: 4c 8b 8b a0 00 00 00        	movq	160(%rbx), %r9
100008684: 48 8b 8b 98 00 00 00        	movq	152(%rbx), %rcx
10000868b: 48 8b 93 90 00 00 00        	movq	144(%rbx), %rdx
100008692: 48 8b 73 70                 	movq	112(%rbx), %rsi
100008696: 4c 8b 43 60                 	movq	96(%rbx), %r8
10000869a: 48 8b 43 68                 	movq	104(%rbx), %rax
10000869e: 48 8d 7d e0                 	leaq	-32(%rbp), %rdi
1000086a2: 41 51                       	pushq	%r9
1000086a4: 51                          	pushq	%rcx
1000086a5: 52                          	pushq	%rdx
1000086a6: 56                          	pushq	%rsi
1000086a7: 50                          	pushq	%rax
1000086a8: 41 50                       	pushq	%r8
1000086aa: e8 a1 06 00 00              	callq	1697 <_vec_sub>
1000086af: 48 83 c4 30                 	addq	$48, %rsp
1000086b3: 48 8b 45 f0                 	movq	-16(%rbp), %rax
1000086b7: 48 89 83 e8 00 00 00        	movq	%rax, 232(%rbx)
1000086be: 48 8b 45 e0                 	movq	-32(%rbp), %rax
1000086c2: 48 8b 4d e8                 	movq	-24(%rbp), %rcx
1000086c6: 48 89 8b e0 00 00 00        	movq	%rcx, 224(%rbx)
1000086cd: 48 89 83 d8 00 00 00        	movq	%rax, 216(%rbx)
1000086d4: 4c 8b 8b d0 00 00 00        	movq	208(%rbx), %r9
1000086db: 48 8b 8b c8 00 00 00        	movq	200(%rbx), %rcx
1000086e2: 48 8b 93 c0 00 00 00        	movq	192(%rbx), %rdx
1000086e9: 48 8b b3 b8 00 00 00        	movq	184(%rbx), %rsi
1000086f0: 4c 8b 83 a8 00 00 00        	movq	168(%rbx), %r8
1000086f7: 48 8b 83 b0 00 00 00        	movq	176(%rbx), %rax
1000086fe: 48 8d 7d e0                 	leaq	-32(%rbp), %rdi
100008702: 41 51                       	pushq	%r9
100008704: 51                          	pushq	%rcx
100008705: 52                          	pushq	%rdx
100008706: 56                          	pushq	%rsi
100008707: 50                          	pushq	%rax
100008708: 41 50                       	pushq	%r8
10000870a: e8 e1 07 00 00              	callq	2017 <_cross_product>
10000870f: 48 83 c4 30                 	addq	$48, %rsp
100008713: 48 8b 45 f0                 	movq	-16(%rbp), %rax
100008717: 48 89 43 50                 	movq	%rax, 80(%rbx)
10000871b: 48 8b 45 e0                 	movq	-32(%rbp), %rax
10000871f: 48 8b 4d e8                 	movq	-24(%rbp), %rcx
100008723: 48 89 4b 48                 	movq	%rcx, 72(%rbx)
100008727: 48 89 43 40                 	movq	%rax, 64(%rbx)
10000872b: 48 83 c4 18                 	addq	$24, %rsp
10000872f: 5b                          	popq	%rbx
100008730: 5d                          	popq	%rbp
100008731: c3                          	retq
100008732: 66 2e 0f 1f 84 00 00 00 00 00       	nopw	%cs:(%rax,%rax)
10000873c: 0f 1f 40 00                 	nopl	(%rax)

0000000100008740 _check_tri_inter:
100008740: 55                          	pushq	%rbp
100008741: 48 89 e5                    	movq	%rsp, %rbp
100008744: 41 57                       	pushq	%r15
100008746: 41 56                       	pushq	%r14
100008748: 53                          	pushq	%rbx
100008749: 48 81 ec a8 00 00 00        	subq	$168, %rsp
100008750: 48 89 f3                    	movq	%rsi, %rbx
100008753: 49 89 fe                    	movq	%rdi, %r14
100008756: 48 8b 46 70                 	movq	112(%rsi), %rax
10000875a: 4c 8b 4e 60                 	movq	96(%rsi), %r9
10000875e: 48 8b 56 68                 	movq	104(%rsi), %rdx
100008762: 48 8b 77 18                 	movq	24(%rdi), %rsi
100008766: 4c 8b 47 08                 	movq	8(%rdi), %r8
10000876a: 48 8b 4f 10                 	movq	16(%rdi), %rcx
10000876e: 48 8d 7d b8                 	leaq	-72(%rbp), %rdi
100008772: 50                          	pushq	%rax
100008773: 52                          	pushq	%rdx
100008774: 41 51                       	pushq	%r9
100008776: 56                          	pushq	%rsi
100008777: 51                          	pushq	%rcx
100008778: 41 50                       	pushq	%r8
10000877a: e8 d1 05 00 00              	callq	1489 <_vec_sub>
10000877f: 48 83 c4 30                 	addq	$48, %rsp
100008783: 48 8b 45 c8                 	movq	-56(%rbp), %rax
100008787: 48 89 45 98                 	movq	%rax, -104(%rbp)
10000878b: 48 8b 45 b8                 	movq	-72(%rbp), %rax
10000878f: 48 8b 4d c0                 	movq	-64(%rbp), %rcx
100008793: 48 89 4d 90                 	movq	%rcx, -112(%rbp)
100008797: 48 89 45 88                 	movq	%rax, -120(%rbp)
10000879b: 48 8b 83 88 00 00 00        	movq	136(%rbx), %rax
1000087a2: 4c 8b 4b 78                 	movq	120(%rbx), %r9
1000087a6: 48 8b 93 80 00 00 00        	movq	128(%rbx), %rdx
1000087ad: 49 8b 76 18                 	movq	24(%r14), %rsi
1000087b1: 4d 8b 46 08                 	movq	8(%r14), %r8
1000087b5: 49 8b 4e 10                 	movq	16(%r14), %rcx
1000087b9: 48 8d 7d d0                 	leaq	-48(%rbp), %rdi
1000087bd: 50                          	pushq	%rax
1000087be: 52                          	pushq	%rdx
1000087bf: 41 51                       	pushq	%r9
1000087c1: 56                          	pushq	%rsi
1000087c2: 51                          	pushq	%rcx
1000087c3: 41 50                       	pushq	%r8
1000087c5: e8 86 05 00 00              	callq	1414 <_vec_sub>
1000087ca: 48 83 c4 30                 	addq	$48, %rsp
1000087ce: 48 8b 45 e0                 	movq	-32(%rbp), %rax
1000087d2: 48 89 45 c8                 	movq	%rax, -56(%rbp)
1000087d6: 48 8b 45 d0                 	movq	-48(%rbp), %rax
1000087da: 48 8b 4d d8                 	movq	-40(%rbp), %rcx
1000087de: 48 89 4d c0                 	movq	%rcx, -64(%rbp)
1000087e2: 48 89 45 b8                 	movq	%rax, -72(%rbp)
1000087e6: 48 8b 83 a0 00 00 00        	movq	160(%rbx), %rax
1000087ed: 4c 8b 8b 90 00 00 00        	movq	144(%rbx), %r9
1000087f4: 48 8b 93 98 00 00 00        	movq	152(%rbx), %rdx
1000087fb: 49 8b 76 18                 	movq	24(%r14), %rsi
1000087ff: 4d 8b 46 08                 	movq	8(%r14), %r8
100008803: 49 8b 4e 10                 	movq	16(%r14), %rcx
100008807: 48 8d 7d a0                 	leaq	-96(%rbp), %rdi
10000880b: 50                          	pushq	%rax
10000880c: 52                          	pushq	%rdx
10000880d: 41 51                       	pushq	%r9
10000880f: 56                          	pushq	%rsi
100008810: 51                          	pushq	%rcx
100008811: 41 50                       	pushq	%r8
100008813: e8 38 05 00 00              	callq	1336 <_vec_sub>
100008818: 48 83 c4 30                 	addq	$48, %rsp
10000881c: 48 8b 45 b0                 	movq	-80(%rbp), %rax
100008820: 48 89 45 e0                 	movq	%rax, -32(%rbp)
100008824: 48 8b 45 a0                 	movq	-96(%rbp), %rax
100008828: 48 8b 4d a8                 	movq	-88(%rbp), %rcx
10000882c: 48 89 4d d8                 	movq	%rcx, -40(%rbp)
100008830: 48 89 45 d0                 	movq	%rax, -48(%rbp)
100008834: 48 8b 45 98                 	movq	-104(%rbp), %rax
100008838: 4c 8b 4d 88                 	movq	-120(%rbp), %r9
10000883c: 48 8b 55 90                 	movq	-112(%rbp), %rdx
100008840: 48 8b b3 b8 00 00 00        	movq	184(%rbx), %rsi
100008847: 4c 8b 83 a8 00 00 00        	movq	168(%rbx), %r8
10000884e: 48 8b 8b b0 00 00 00        	movq	176(%rbx), %rcx
100008855: 48 8d bd 40 ff ff ff        	leaq	-192(%rbp), %rdi
10000885c: 50                          	pushq	%rax
10000885d: 52                          	pushq	%rdx
10000885e: 41 51                       	pushq	%r9
100008860: 56                          	pushq	%rsi
100008861: 51                          	pushq	%rcx
100008862: 41 50                       	pushq	%r8
100008864: e8 87 06 00 00              	callq	1671 <_cross_product>
100008869: 48 83 c4 30                 	addq	$48, %rsp
10000886d: 48 8b 43 50                 	movq	80(%rbx), %rax
100008871: 4c 8b 43 40                 	movq	64(%rbx), %r8
100008875: 48 8b 53 48                 	movq	72(%rbx), %rdx
100008879: 48 8b b5 50 ff ff ff        	movq	-176(%rbp), %rsi
100008880: 48 8b bd 40 ff ff ff        	movq	-192(%rbp), %rdi
100008887: 48 8b 8d 48 ff ff ff        	movq	-184(%rbp), %rcx
10000888e: 50                          	pushq	%rax
10000888f: 52                          	pushq	%rdx
100008890: 41 50                       	pushq	%r8
100008892: 56                          	pushq	%rsi
100008893: 51                          	pushq	%rcx
100008894: 57                          	pushq	%rdi
100008895: e8 26 06 00 00              	callq	1574 <_dot_product>
10000889a: 48 83 c4 30                 	addq	$48, %rsp
10000889e: 66 0f 57 c9                 	xorpd	%xmm1, %xmm1
1000088a2: 66 0f 2e c1                 	ucomisd	%xmm1, %xmm0
1000088a6: 0f 86 3f 01 00 00           	jbe	319 <_check_tri_inter+0x2ab>
1000088ac: 4c 8d 7b 40                 	leaq	64(%rbx), %r15
1000088b0: 48 8b 45 c8                 	movq	-56(%rbp), %rax
1000088b4: 4c 8b 4d b8                 	movq	-72(%rbp), %r9
1000088b8: 48 8b 55 c0                 	movq	-64(%rbp), %rdx
1000088bc: 48 8b b3 d0 00 00 00        	movq	208(%rbx), %rsi
1000088c3: 4c 8b 83 c0 00 00 00        	movq	192(%rbx), %r8
1000088ca: 48 8b 8b c8 00 00 00        	movq	200(%rbx), %rcx
1000088d1: 48 8d bd 58 ff ff ff        	leaq	-168(%rbp), %rdi
1000088d8: 50                          	pushq	%rax
1000088d9: 52                          	pushq	%rdx
1000088da: 41 51                       	pushq	%r9
1000088dc: 56                          	pushq	%rsi
1000088dd: 51                          	pushq	%rcx
1000088de: 41 50                       	pushq	%r8
1000088e0: e8 0b 06 00 00              	callq	1547 <_cross_product>
1000088e5: 48 83 c4 30                 	addq	$48, %rsp
1000088e9: 49 8b 47 10                 	movq	16(%r15), %rax
1000088ed: 4d 8b 07                    	movq	(%r15), %r8
1000088f0: 49 8b 57 08                 	movq	8(%r15), %rdx
1000088f4: 48 8b b5 68 ff ff ff        	movq	-152(%rbp), %rsi
1000088fb: 48 8b bd 58 ff ff ff        	movq	-168(%rbp), %rdi
100008902: 48 8b 8d 60 ff ff ff        	movq	-160(%rbp), %rcx
100008909: 50                          	pushq	%rax
10000890a: 52                          	pushq	%rdx
10000890b: 41 50                       	pushq	%r8
10000890d: 56                          	pushq	%rsi
10000890e: 51                          	pushq	%rcx
10000890f: 57                          	pushq	%rdi
100008910: e8 ab 05 00 00              	callq	1451 <_dot_product>
100008915: 48 83 c4 30                 	addq	$48, %rsp
100008919: 66 0f 2e 05 9f 86 00 00     	ucomisd	34463(%rip), %xmm0
100008921: 0f 86 c4 00 00 00           	jbe	196 <_check_tri_inter+0x2ab>
100008927: 48 8b 45 e0                 	movq	-32(%rbp), %rax
10000892b: 4c 8b 4d d0                 	movq	-48(%rbp), %r9
10000892f: 48 8b 55 d8                 	movq	-40(%rbp), %rdx
100008933: 48 8b b3 e8 00 00 00        	movq	232(%rbx), %rsi
10000893a: 4c 8b 83 d8 00 00 00        	movq	216(%rbx), %r8
100008941: 48 8b 8b e0 00 00 00        	movq	224(%rbx), %rcx
100008948: 48 8d bd 70 ff ff ff        	leaq	-144(%rbp), %rdi
10000894f: 50                          	pushq	%rax
100008950: 52                          	pushq	%rdx
100008951: 41 51                       	pushq	%r9
100008953: 56                          	pushq	%rsi
100008954: 51                          	pushq	%rcx
100008955: 41 50                       	pushq	%r8
100008957: e8 94 05 00 00              	callq	1428 <_cross_product>
10000895c: 48 83 c4 30                 	addq	$48, %rsp
100008960: 49 8b 47 10                 	movq	16(%r15), %rax
100008964: 4d 8b 07                    	movq	(%r15), %r8
100008967: 49 8b 57 08                 	movq	8(%r15), %rdx
10000896b: 48 8b 75 80                 	movq	-128(%rbp), %rsi
10000896f: 48 8b bd 70 ff ff ff        	movq	-144(%rbp), %rdi
100008976: 48 8b 8d 78 ff ff ff        	movq	-136(%rbp), %rcx
10000897d: 50                          	pushq	%rax
10000897e: 52                          	pushq	%rdx
10000897f: 41 50                       	pushq	%r8
100008981: 56                          	pushq	%rsi
100008982: 51                          	pushq	%rcx
100008983: 57                          	pushq	%rdi
100008984: e8 37 05 00 00              	callq	1335 <_dot_product>
100008989: 48 83 c4 30                 	addq	$48, %rsp
10000898d: 66 0f 57 c9                 	xorpd	%xmm1, %xmm1
100008991: 66 0f 2e c1                 	ucomisd	%xmm1, %xmm0
100008995: 76 54                       	jbe	84 <_check_tri_inter+0x2ab>
100008997: 0f b6 43 58                 	movzbl	88(%rbx), %eax
10000899b: f2 0f 2a c0                 	cvtsi2sd	%eax, %xmm0
10000899f: f2 0f 10 1d 11 85 00 00     	movsd	34065(%rip), %xmm3
1000089a7: f2 0f 59 c3                 	mulsd	%xmm3, %xmm0
1000089ab: 0f b6 43 59                 	movzbl	89(%rbx), %eax
1000089af: 0f 57 c9                    	xorps	%xmm1, %xmm1
1000089b2: f2 0f 2a c8                 	cvtsi2sd	%eax, %xmm1
1000089b6: f2 0f 59 cb                 	mulsd	%xmm3, %xmm1
1000089ba: 0f b6 43 5a                 	movzbl	90(%rbx), %eax
1000089be: f2 0f 2a d0                 	cvtsi2sd	%eax, %xmm2
1000089c2: f2 0f 59 d3                 	mulsd	%xmm3, %xmm2
1000089c6: 48 8d 7d a0                 	leaq	-96(%rbp), %rdi
1000089ca: e8 81 05 00 00              	callq	1409 <_create_vec>
1000089cf: 48 8b 45 b0                 	movq	-80(%rbp), %rax
1000089d3: 49 89 46 48                 	movq	%rax, 72(%r14)
1000089d7: 48 8b 45 a0                 	movq	-96(%rbp), %rax
1000089db: 48 8b 4d a8                 	movq	-88(%rbp), %rcx
1000089df: 49 89 4e 40                 	movq	%rcx, 64(%r14)
1000089e3: 49 89 46 38                 	movq	%rax, 56(%r14)
1000089e7: b0 01                       	movb	$1, %al
1000089e9: eb 02                       	jmp	2 <_check_tri_inter+0x2ad>
1000089eb: 31 c0                       	xorl	%eax, %eax
1000089ed: 48 81 c4 a8 00 00 00        	addq	$168, %rsp
1000089f4: 5b                          	popq	%rbx
1000089f5: 41 5e                       	popq	%r14
1000089f7: 41 5f                       	popq	%r15
1000089f9: 5d                          	popq	%rbp
1000089fa: c3                          	retq
1000089fb: 0f 1f 44 00 00              	nopl	(%rax,%rax)

0000000100008a00 _triangle_hit:
100008a00: 55                          	pushq	%rbp
100008a01: 48 89 e5                    	movq	%rsp, %rbp
100008a04: 41 57                       	pushq	%r15
100008a06: 41 56                       	pushq	%r14
100008a08: 41 54                       	pushq	%r12
100008a0a: 53                          	pushq	%rbx
100008a0b: 48 83 ec 30                 	subq	$48, %rsp
100008a0f: 49 89 d6                    	movq	%rdx, %r14
100008a12: 49 89 ff                    	movq	%rdi, %r15
100008a15: 48 8b 5e 18                 	movq	24(%rsi), %rbx
100008a19: 48 8b 43 70                 	movq	112(%rbx), %rax
100008a1d: 4c 8b 43 60                 	movq	96(%rbx), %r8
100008a21: 48 8b 53 68                 	movq	104(%rbx), %rdx
100008a25: 48 8b b3 88 00 00 00        	movq	136(%rbx), %rsi
100008a2c: 48 8b 8b 80 00 00 00        	movq	128(%rbx), %rcx
100008a33: 4c 8b 4b 78                 	movq	120(%rbx), %r9
100008a37: 48 8d 7d c8                 	leaq	-56(%rbp), %rdi
100008a3b: 50                          	pushq	%rax
100008a3c: 52                          	pushq	%rdx
100008a3d: 41 50                       	pushq	%r8
100008a3f: 56                          	pushq	%rsi
100008a40: 51                          	pushq	%rcx
100008a41: 41 51                       	pushq	%r9
100008a43: e8 08 03 00 00              	callq	776 <_vec_sub>
100008a48: 48 83 c4 30                 	addq	$48, %rsp
100008a4c: 48 8b 45 d8                 	movq	-40(%rbp), %rax
100008a50: 48 89 83 b8 00 00 00        	movq	%rax, 184(%rbx)
100008a57: 48 8b 45 c8                 	movq	-56(%rbp), %rax
100008a5b: 48 8b 4d d0                 	movq	-48(%rbp), %rcx
100008a5f: 48 89 8b b0 00 00 00        	movq	%rcx, 176(%rbx)
100008a66: 48 89 83 a8 00 00 00        	movq	%rax, 168(%rbx)
100008a6d: 48 8b 83 88 00 00 00        	movq	136(%rbx), %rax
100008a74: 4c 8b 43 78                 	movq	120(%rbx), %r8
100008a78: 48 8b 93 80 00 00 00        	movq	128(%rbx), %rdx
100008a7f: 48 8b b3 a0 00 00 00        	movq	160(%rbx), %rsi
100008a86: 48 8b 8b 98 00 00 00        	movq	152(%rbx), %rcx
100008a8d: 4c 8b 8b 90 00 00 00        	movq	144(%rbx), %r9
100008a94: 48 8d 7d c8                 	leaq	-56(%rbp), %rdi
100008a98: 50                          	pushq	%rax
100008a99: 52                          	pushq	%rdx
100008a9a: 41 50                       	pushq	%r8
100008a9c: 56                          	pushq	%rsi
100008a9d: 51                          	pushq	%rcx
100008a9e: 41 51                       	pushq	%r9
100008aa0: e8 ab 02 00 00              	callq	683 <_vec_sub>
100008aa5: 48 83 c4 30                 	addq	$48, %rsp
100008aa9: 48 8b 45 d8                 	movq	-40(%rbp), %rax
100008aad: 48 89 83 d0 00 00 00        	movq	%rax, 208(%rbx)
100008ab4: 48 8b 45 c8                 	movq	-56(%rbp), %rax
100008ab8: 48 8b 4d d0                 	movq	-48(%rbp), %rcx
100008abc: 48 89 8b c8 00 00 00        	movq	%rcx, 200(%rbx)
100008ac3: 48 89 83 c0 00 00 00        	movq	%rax, 192(%rbx)
100008aca: 4c 8b 8b a0 00 00 00        	movq	160(%rbx), %r9
100008ad1: 48 8b 8b 98 00 00 00        	movq	152(%rbx), %rcx
100008ad8: 48 8b 93 90 00 00 00        	movq	144(%rbx), %rdx
100008adf: 48 8b 73 70                 	movq	112(%rbx), %rsi
100008ae3: 4c 8b 43 60                 	movq	96(%rbx), %r8
100008ae7: 48 8b 43 68                 	movq	104(%rbx), %rax
100008aeb: 48 8d 7d c8                 	leaq	-56(%rbp), %rdi
100008aef: 41 51                       	pushq	%r9
100008af1: 51                          	pushq	%rcx
100008af2: 52                          	pushq	%rdx
100008af3: 56                          	pushq	%rsi
100008af4: 50                          	pushq	%rax
100008af5: 41 50                       	pushq	%r8
100008af7: e8 54 02 00 00              	callq	596 <_vec_sub>
100008afc: 48 83 c4 30                 	addq	$48, %rsp
100008b00: 48 8b 45 d8                 	movq	-40(%rbp), %rax
100008b04: 48 89 83 e8 00 00 00        	movq	%rax, 232(%rbx)
100008b0b: 48 8b 45 c8                 	movq	-56(%rbp), %rax
100008b0f: 48 8b 4d d0                 	movq	-48(%rbp), %rcx
100008b13: 48 89 8b e0 00 00 00        	movq	%rcx, 224(%rbx)
100008b1a: 48 89 83 d8 00 00 00        	movq	%rax, 216(%rbx)
100008b21: 4c 8b 8b d0 00 00 00        	movq	208(%rbx), %r9
100008b28: 48 8b 8b c8 00 00 00        	movq	200(%rbx), %rcx
100008b2f: 48 8b 93 c0 00 00 00        	movq	192(%rbx), %rdx
100008b36: 48 8b b3 b8 00 00 00        	movq	184(%rbx), %rsi
100008b3d: 4c 8b 83 a8 00 00 00        	movq	168(%rbx), %r8
100008b44: 48 8b 83 b0 00 00 00        	movq	176(%rbx), %rax
100008b4b: 48 8d 7d c8                 	leaq	-56(%rbp), %rdi
100008b4f: 41 51                       	pushq	%r9
100008b51: 51                          	pushq	%rcx
100008b52: 52                          	pushq	%rdx
100008b53: 56                          	pushq	%rsi
100008b54: 50                          	pushq	%rax
100008b55: 41 50                       	pushq	%r8
100008b57: e8 94 03 00 00              	callq	916 <_cross_product>
100008b5c: 48 83 c4 30                 	addq	$48, %rsp
100008b60: 48 8b 45 d8                 	movq	-40(%rbp), %rax
100008b64: 48 89 43 50                 	movq	%rax, 80(%rbx)
100008b68: 48 8b 45 c8                 	movq	-56(%rbp), %rax
100008b6c: 48 8b 4d d0                 	movq	-48(%rbp), %rcx
100008b70: 48 89 4b 48                 	movq	%rcx, 72(%rbx)
100008b74: 48 89 43 40                 	movq	%rax, 64(%rbx)
100008b78: 48 8b 43 50                 	movq	80(%rbx), %rax
100008b7c: 4c 8b 43 40                 	movq	64(%rbx), %r8
100008b80: 48 8b 53 48                 	movq	72(%rbx), %rdx
100008b84: 49 8b 77 28                 	movq	40(%r15), %rsi
100008b88: 49 8b 7f 18                 	movq	24(%r15), %rdi
100008b8c: 49 8b 4f 20                 	movq	32(%r15), %rcx
100008b90: 50                          	pushq	%rax
100008b91: 52                          	pushq	%rdx
100008b92: 41 50                       	pushq	%r8
100008b94: 56                          	pushq	%rsi
100008b95: 51                          	pushq	%rcx
100008b96: 57                          	pushq	%rdi
100008b97: e8 24 03 00 00              	callq	804 <_dot_product>
100008b9c: 48 83 c4 30                 	addq	$48, %rsp
100008ba0: 66 0f 28 0d 08 84 00 00     	movapd	33800(%rip), %xmm1
100008ba8: 66 0f 54 c8                 	andpd	%xmm0, %xmm1
100008bac: 66 0f 2e 0d 14 83 00 00     	ucomisd	33556(%rip), %xmm1
100008bb4: 0f 82 4e 01 00 00           	jb	334 <_triangle_hit+0x308>
100008bba: 48 8d 43 60                 	leaq	96(%rbx), %rax
100008bbe: 4c 8d 63 40                 	leaq	64(%rbx), %r12
100008bc2: 48 8b 48 10                 	movq	16(%rax), %rcx
100008bc6: 4c 8b 00                    	movq	(%rax), %r8
100008bc9: 48 8b 40 08                 	movq	8(%rax), %rax
100008bcd: 49 8b 74 24 10              	movq	16(%r12), %rsi
100008bd2: 49 8b 3c 24                 	movq	(%r12), %rdi
100008bd6: 49 8b 54 24 08              	movq	8(%r12), %rdx
100008bdb: 51                          	pushq	%rcx
100008bdc: 50                          	pushq	%rax
100008bdd: 41 50                       	pushq	%r8
100008bdf: 56                          	pushq	%rsi
100008be0: 52                          	pushq	%rdx
100008be1: 57                          	pushq	%rdi
100008be2: 66 0f 29 45 b0              	movapd	%xmm0, -80(%rbp)
100008be7: e8 d4 02 00 00              	callq	724 <_dot_product>
100008bec: 48 83 c4 30                 	addq	$48, %rsp
100008bf0: f2 0f 11 45 c0              	movsd	%xmm0, -64(%rbp)
100008bf5: 49 8b 44 24 10              	movq	16(%r12), %rax
100008bfa: 4d 8b 04 24                 	movq	(%r12), %r8
100008bfe: 49 8b 54 24 08              	movq	8(%r12), %rdx
100008c03: 49 8b 77 10                 	movq	16(%r15), %rsi
100008c07: 49 8b 3f                    	movq	(%r15), %rdi
100008c0a: 49 8b 4f 08                 	movq	8(%r15), %rcx
100008c0e: 50                          	pushq	%rax
100008c0f: 52                          	pushq	%rdx
100008c10: 41 50                       	pushq	%r8
100008c12: 56                          	pushq	%rsi
100008c13: 51                          	pushq	%rcx
100008c14: 57                          	pushq	%rdi
100008c15: e8 a6 02 00 00              	callq	678 <_dot_product>
100008c1a: 48 83 c4 30                 	addq	$48, %rsp
100008c1e: f2 0f 10 4d c0              	movsd	-64(%rbp), %xmm1
100008c23: f2 0f 5c c8                 	subsd	%xmm0, %xmm1
100008c27: 66 0f 28 c1                 	movapd	%xmm1, %xmm0
100008c2b: f2 0f 5e 45 b0              	divsd	-80(%rbp), %xmm0
100008c30: f2 41 0f 11 06              	movsd	%xmm0, (%r14)
100008c35: 66 0f 2e 05 8b 82 00 00     	ucomisd	33419(%rip), %xmm0
100008c3d: 0f 82 c5 00 00 00           	jb	197 <_triangle_hit+0x308>
100008c43: 4d 8b 4f 28                 	movq	40(%r15), %r9
100008c47: 49 8b 4f 20                 	movq	32(%r15), %rcx
100008c4b: 49 8b 57 18                 	movq	24(%r15), %rdx
100008c4f: 49 8b 77 10                 	movq	16(%r15), %rsi
100008c53: 4d 8b 07                    	movq	(%r15), %r8
100008c56: 49 8b 47 08                 	movq	8(%r15), %rax
100008c5a: 48 8d 7d c8                 	leaq	-56(%rbp), %rdi
100008c5e: 41 51                       	pushq	%r9
100008c60: 51                          	pushq	%rcx
100008c61: 52                          	pushq	%rdx
100008c62: 56                          	pushq	%rsi
100008c63: 50                          	pushq	%rax
100008c64: 41 50                       	pushq	%r8
100008c66: e8 55 03 00 00              	callq	853 <_at>
100008c6b: 48 83 c4 30                 	addq	$48, %rsp
100008c6f: 48 8b 45 d8                 	movq	-40(%rbp), %rax
100008c73: 49 89 46 18                 	movq	%rax, 24(%r14)
100008c77: 48 8b 45 c8                 	movq	-56(%rbp), %rax
100008c7b: 48 8b 4d d0                 	movq	-48(%rbp), %rcx
100008c7f: 49 89 4e 10                 	movq	%rcx, 16(%r14)
100008c83: 49 89 46 08                 	movq	%rax, 8(%r14)
100008c87: 4c 89 f7                    	movq	%r14, %rdi
100008c8a: 48 89 de                    	movq	%rbx, %rsi
100008c8d: e8 ae fa ff ff              	callq	-1362 <_check_tri_inter>
100008c92: 84 c0                       	testb	%al, %al
100008c94: 74 72                       	je	114 <_triangle_hit+0x308>
100008c96: 49 83 c7 18                 	addq	$24, %r15
100008c9a: 49 8b 47 10                 	movq	16(%r15), %rax
100008c9e: 49 8b 0f                    	movq	(%r15), %rcx
100008ca1: 49 8b 57 08                 	movq	8(%r15), %rdx
100008ca5: 49 8b 76 30                 	movq	48(%r14), %rsi
100008ca9: 49 8b 7e 20                 	movq	32(%r14), %rdi
100008cad: 49 8b 5e 28                 	movq	40(%r14), %rbx
100008cb1: 50                          	pushq	%rax
100008cb2: 52                          	pushq	%rdx
100008cb3: 51                          	pushq	%rcx
100008cb4: 56                          	pushq	%rsi
100008cb5: 53                          	pushq	%rbx
100008cb6: 57                          	pushq	%rdi
100008cb7: e8 04 02 00 00              	callq	516 <_dot_product>
100008cbc: 48 83 c4 30                 	addq	$48, %rsp
100008cc0: b3 01                       	movb	$1, %bl
100008cc2: 66 0f 2e 05 fe 81 00 00     	ucomisd	33278(%rip), %xmm0
100008cca: 76 3e                       	jbe	62 <_triangle_hit+0x30a>
100008ccc: 49 83 c6 20                 	addq	$32, %r14
100008cd0: 48 83 ec 08                 	subq	$8, %rsp
100008cd4: 49 8b 46 10                 	movq	16(%r14), %rax
100008cd8: 49 8b 0e                    	movq	(%r14), %rcx
100008cdb: 49 8b 56 08                 	movq	8(%r14), %rdx
100008cdf: 48 8d 7d c8                 	leaq	-56(%rbp), %rdi
100008ce3: 50                          	pushq	%rax
100008ce4: 52                          	pushq	%rdx
100008ce5: 51                          	pushq	%rcx
100008ce6: e8 85 02 00 00              	callq	645 <_vec_nega>
100008ceb: 48 83 c4 20                 	addq	$32, %rsp
100008cef: 48 8b 45 d8                 	movq	-40(%rbp), %rax
100008cf3: 49 89 46 10                 	movq	%rax, 16(%r14)
100008cf7: 48 8b 45 c8                 	movq	-56(%rbp), %rax
100008cfb: 48 8b 4d d0                 	movq	-48(%rbp), %rcx
100008cff: 49 89 4e 08                 	movq	%rcx, 8(%r14)
100008d03: 49 89 06                    	movq	%rax, (%r14)
100008d06: eb 02                       	jmp	2 <_triangle_hit+0x30a>
100008d08: 31 db                       	xorl	%ebx, %ebx
100008d0a: 89 d8                       	movl	%ebx, %eax
100008d0c: 48 83 c4 30                 	addq	$48, %rsp
100008d10: 5b                          	popq	%rbx
100008d11: 41 5c                       	popq	%r12
100008d13: 41 5e                       	popq	%r14
100008d15: 41 5f                       	popq	%r15
100008d17: 5d                          	popq	%rbp
100008d18: c3                          	retq
100008d19: 90                          	nop
100008d1a: 90                          	nop
100008d1b: 90                          	nop
100008d1c: 90                          	nop
100008d1d: 90                          	nop
100008d1e: 90                          	nop
100008d1f: 90                          	nop

0000000100008d20 _vec_addition:
100008d20: 55                          	pushq	%rbp
100008d21: 48 89 e5                    	movq	%rsp, %rbp
100008d24: 48 89 f8                    	movq	%rdi, %rax
100008d27: 66 0f 10 45 28              	movupd	40(%rbp), %xmm0
100008d2c: 66 0f 58 45 10              	addpd	16(%rbp), %xmm0
100008d31: 66 0f 11 07                 	movupd	%xmm0, (%rdi)
100008d35: f2 0f 10 45 38              	movsd	56(%rbp), %xmm0
100008d3a: f2 0f 58 45 20              	addsd	32(%rbp), %xmm0
100008d3f: f2 0f 11 47 10              	movsd	%xmm0, 16(%rdi)
100008d44: 5d                          	popq	%rbp
100008d45: c3                          	retq
100008d46: 66 2e 0f 1f 84 00 00 00 00 00       	nopw	%cs:(%rax,%rax)

0000000100008d50 _vec_sub:
100008d50: 55                          	pushq	%rbp
100008d51: 48 89 e5                    	movq	%rsp, %rbp
100008d54: 48 89 f8                    	movq	%rdi, %rax
100008d57: 66 0f 28 45 10              	movapd	16(%rbp), %xmm0
100008d5c: 66 0f 10 4d 28              	movupd	40(%rbp), %xmm1
100008d61: 66 0f 5c c1                 	subpd	%xmm1, %xmm0
100008d65: 66 0f 11 07                 	movupd	%xmm0, (%rdi)
100008d69: f2 0f 10 45 20              	movsd	32(%rbp), %xmm0
100008d6e: f2 0f 5c 45 38              	subsd	56(%rbp), %xmm0
100008d73: f2 0f 11 47 10              	movsd	%xmm0, 16(%rdi)
100008d78: 5d                          	popq	%rbp
100008d79: c3                          	retq
100008d7a: 66 0f 1f 44 00 00           	nopw	(%rax,%rax)

0000000100008d80 _scalar_mult:
100008d80: 55                          	pushq	%rbp
100008d81: 48 89 e5                    	movq	%rsp, %rbp
100008d84: 48 89 f8                    	movq	%rdi, %rax
100008d87: f2 0f 12 c8                 	movddup	%xmm0, %xmm1
100008d8b: 66 0f 59 4d 10              	mulpd	16(%rbp), %xmm1
100008d90: 66 0f 11 0f                 	movupd	%xmm1, (%rdi)
100008d94: f2 0f 59 45 20              	mulsd	32(%rbp), %xmm0
100008d99: f2 0f 11 47 10              	movsd	%xmm0, 16(%rdi)
100008d9e: 5d                          	popq	%rbp
100008d9f: c3                          	retq

0000000100008da0 _scalar_div:
100008da0: 55                          	pushq	%rbp
100008da1: 48 89 e5                    	movq	%rsp, %rbp
100008da4: 48 89 f8                    	movq	%rdi, %rax
100008da7: f2 0f 10 0d b9 80 00 00     	movsd	32953(%rip), %xmm1
100008daf: f2 0f 5e c8                 	divsd	%xmm0, %xmm1
100008db3: f2 0f 12 c1                 	movddup	%xmm1, %xmm0
100008db7: 66 0f 59 45 10              	mulpd	16(%rbp), %xmm0
100008dbc: 66 0f 11 07                 	movupd	%xmm0, (%rdi)
100008dc0: f2 0f 59 4d 20              	mulsd	32(%rbp), %xmm1
100008dc5: f2 0f 11 4f 10              	movsd	%xmm1, 16(%rdi)
100008dca: 5d                          	popq	%rbp
100008dcb: c3                          	retq
100008dcc: 90                          	nop
100008dcd: 90                          	nop
100008dce: 90                          	nop
100008dcf: 90                          	nop

0000000100008dd0 _normalize:
100008dd0: 55                          	pushq	%rbp
100008dd1: 48 89 e5                    	movq	%rsp, %rbp
100008dd4: 41 56                       	pushq	%r14
100008dd6: 53                          	pushq	%rbx
100008dd7: 48 89 f3                    	movq	%rsi, %rbx
100008dda: 49 89 fe                    	movq	%rdi, %r14
100008ddd: 48 83 ec 08                 	subq	$8, %rsp
100008de1: 48 8b 46 10                 	movq	16(%rsi), %rax
100008de5: 48 8b 0e                    	movq	(%rsi), %rcx
100008de8: 48 8b 56 08                 	movq	8(%rsi), %rdx
100008dec: 50                          	pushq	%rax
100008ded: 52                          	pushq	%rdx
100008dee: 51                          	pushq	%rcx
100008def: e8 cc 02 00 00              	callq	716 <_v_length>
100008df4: 48 83 c4 20                 	addq	$32, %rsp
100008df8: f2 0f 10 0d 68 80 00 00     	movsd	32872(%rip), %xmm1
100008e00: f2 0f 5e c8                 	divsd	%xmm0, %xmm1
100008e04: 66 0f 10 03                 	movupd	(%rbx), %xmm0
100008e08: f2 0f 12 d1                 	movddup	%xmm1, %xmm2
100008e0c: 66 0f 59 d0                 	mulpd	%xmm0, %xmm2
100008e10: 66 0f 11 13                 	movupd	%xmm2, (%rbx)
100008e14: f2 0f 59 4b 10              	mulsd	16(%rbx), %xmm1
100008e19: f2 0f 11 4b 10              	movsd	%xmm1, 16(%rbx)
100008e1e: 48 8b 43 10                 	movq	16(%rbx), %rax
100008e22: 49 89 46 10                 	movq	%rax, 16(%r14)
100008e26: 48 8b 03                    	movq	(%rbx), %rax
100008e29: 48 8b 4b 08                 	movq	8(%rbx), %rcx
100008e2d: 49 89 4e 08                 	movq	%rcx, 8(%r14)
100008e31: 49 89 06                    	movq	%rax, (%r14)
100008e34: 4c 89 f0                    	movq	%r14, %rax
100008e37: 5b                          	popq	%rbx
100008e38: 41 5e                       	popq	%r14
100008e3a: 5d                          	popq	%rbp
100008e3b: c3                          	retq
100008e3c: 0f 1f 40 00                 	nopl	(%rax)

0000000100008e40 _normalized:
100008e40: 55                          	pushq	%rbp
100008e41: 48 89 e5                    	movq	%rsp, %rbp
100008e44: 53                          	pushq	%rbx
100008e45: 48 83 ec 18                 	subq	$24, %rsp
100008e49: 48 89 fb                    	movq	%rdi, %rbx
100008e4c: 48 8b 45 20                 	movq	32(%rbp), %rax
100008e50: 48 89 45 f0                 	movq	%rax, -16(%rbp)
100008e54: 66 0f 28 45 10              	movapd	16(%rbp), %xmm0
100008e59: 66 0f 29 45 e0              	movapd	%xmm0, -32(%rbp)
100008e5e: 48 83 ec 08                 	subq	$8, %rsp
100008e62: 48 8b 45 20                 	movq	32(%rbp), %rax
100008e66: 48 8b 4d 10                 	movq	16(%rbp), %rcx
100008e6a: 48 8b 55 18                 	movq	24(%rbp), %rdx
100008e6e: 50                          	pushq	%rax
100008e6f: 52                          	pushq	%rdx
100008e70: 51                          	pushq	%rcx
100008e71: e8 4a 02 00 00              	callq	586 <_v_length>
100008e76: 48 83 c4 20                 	addq	$32, %rsp
100008e7a: f2 0f 10 0d e6 7f 00 00     	movsd	32742(%rip), %xmm1
100008e82: f2 0f 5e c8                 	divsd	%xmm0, %xmm1
100008e86: f2 0f 12 c1                 	movddup	%xmm1, %xmm0
100008e8a: 66 0f 59 45 e0              	mulpd	-32(%rbp), %xmm0
100008e8f: 66 0f 29 45 e0              	movapd	%xmm0, -32(%rbp)
100008e94: f2 0f 59 4d f0              	mulsd	-16(%rbp), %xmm1
100008e99: f2 0f 11 4d f0              	movsd	%xmm1, -16(%rbp)
100008e9e: 48 8b 45 f0                 	movq	-16(%rbp), %rax
100008ea2: 48 89 43 10                 	movq	%rax, 16(%rbx)
100008ea6: 48 8b 45 e0                 	movq	-32(%rbp), %rax
100008eaa: 48 8b 4d e8                 	movq	-24(%rbp), %rcx
100008eae: 48 89 4b 08                 	movq	%rcx, 8(%rbx)
100008eb2: 48 89 03                    	movq	%rax, (%rbx)
100008eb5: 48 89 d8                    	movq	%rbx, %rax
100008eb8: 48 83 c4 18                 	addq	$24, %rsp
100008ebc: 5b                          	popq	%rbx
100008ebd: 5d                          	popq	%rbp
100008ebe: c3                          	retq
100008ebf: 90                          	nop

0000000100008ec0 _dot_product:
100008ec0: 55                          	pushq	%rbp
100008ec1: 48 89 e5                    	movq	%rsp, %rbp
100008ec4: f2 0f 10 4d 28              	movsd	40(%rbp), %xmm1
100008ec9: f2 0f 59 4d 10              	mulsd	16(%rbp), %xmm1
100008ece: 66 0f 10 55 18              	movupd	24(%rbp), %xmm2
100008ed3: 66 0f 10 45 30              	movupd	48(%rbp), %xmm0
100008ed8: 66 0f 59 c2                 	mulpd	%xmm2, %xmm0
100008edc: f2 0f 58 c8                 	addsd	%xmm0, %xmm1
100008ee0: 66 0f 15 c0                 	unpckhpd	%xmm0, %xmm0
100008ee4: f2 0f 58 c1                 	addsd	%xmm1, %xmm0
100008ee8: 5d                          	popq	%rbp
100008ee9: c3                          	retq
100008eea: 66 0f 1f 44 00 00           	nopw	(%rax,%rax)

0000000100008ef0 _cross_product:
100008ef0: 55                          	pushq	%rbp
100008ef1: 48 89 e5                    	movq	%rsp, %rbp
100008ef4: 48 89 f8                    	movq	%rdi, %rax
100008ef7: 66 0f 10 45 18              	movupd	24(%rbp), %xmm0
100008efc: 66 0f 10 4d 30              	movupd	48(%rbp), %xmm1
100008f01: f2 0f 10 55 28              	movsd	40(%rbp), %xmm2
100008f06: 66 0f 28 d9                 	movapd	%xmm1, %xmm3
100008f0a: 66 0f c6 da 01              	shufpd	$1, %xmm2, %xmm3
100008f0f: 66 0f 59 d8                 	mulpd	%xmm0, %xmm3
100008f13: f2 0f 10 65 10              	movsd	16(%rbp), %xmm4
100008f18: f2 0f 59 d0                 	mulsd	%xmm0, %xmm2
100008f1c: 66 0f c6 c4 01              	shufpd	$1, %xmm4, %xmm0
100008f21: 66 0f 59 c1                 	mulpd	%xmm1, %xmm0
100008f25: 66 0f 5c d8                 	subpd	%xmm0, %xmm3
100008f29: 66 0f 11 1f                 	movupd	%xmm3, (%rdi)
100008f2d: f2 0f 59 e1                 	mulsd	%xmm1, %xmm4
100008f31: f2 0f 5c e2                 	subsd	%xmm2, %xmm4
100008f35: f2 0f 11 67 10              	movsd	%xmm4, 16(%rdi)
100008f3a: 5d                          	popq	%rbp
100008f3b: c3                          	retq
100008f3c: 90                          	nop
100008f3d: 90                          	nop
100008f3e: 90                          	nop
100008f3f: 90                          	nop

0000000100008f40 _sqr:
100008f40: 55                          	pushq	%rbp
100008f41: 48 89 e5                    	movq	%rsp, %rbp
100008f44: f2 0f 59 c0                 	mulsd	%xmm0, %xmm0
100008f48: 5d                          	popq	%rbp
100008f49: c3                          	retq
100008f4a: 66 0f 1f 44 00 00           	nopw	(%rax,%rax)

0000000100008f50 _create_vec:
100008f50: 55                          	pushq	%rbp
100008f51: 48 89 e5                    	movq	%rsp, %rbp
100008f54: 48 89 f8                    	movq	%rdi, %rax
100008f57: f2 0f 11 07                 	movsd	%xmm0, (%rdi)
100008f5b: f2 0f 11 4f 08              	movsd	%xmm1, 8(%rdi)
100008f60: f2 0f 11 57 10              	movsd	%xmm2, 16(%rdi)
100008f65: 5d                          	popq	%rbp
100008f66: c3                          	retq
100008f67: 66 0f 1f 84 00 00 00 00 00  	nopw	(%rax,%rax)

0000000100008f70 _vec_nega:
100008f70: 55                          	pushq	%rbp
100008f71: 48 89 e5                    	movq	%rsp, %rbp
100008f74: 48 89 f8                    	movq	%rdi, %rax
100008f77: 0f 28 05 02 80 00 00        	movaps	32770(%rip), %xmm0
100008f7e: 0f 28 4d 10                 	movaps	16(%rbp), %xmm1
100008f82: 0f 57 c8                    	xorps	%xmm0, %xmm1
100008f85: 0f 11 0f                    	movups	%xmm1, (%rdi)
100008f88: f2 0f 10 4d 20              	movsd	32(%rbp), %xmm1
100008f8d: 0f 57 c8                    	xorps	%xmm0, %xmm1
100008f90: 0f 13 4f 10                 	movlps	%xmm1, 16(%rdi)
100008f94: 5d                          	popq	%rbp
100008f95: c3                          	retq
100008f96: 90                          	nop
100008f97: 90                          	nop
100008f98: 90                          	nop
100008f99: 90                          	nop
100008f9a: 90                          	nop
100008f9b: 90                          	nop
100008f9c: 90                          	nop
100008f9d: 90                          	nop
100008f9e: 90                          	nop
100008f9f: 90                          	nop

0000000100008fa0 _create_vec_from_scalar:
100008fa0: 55                          	pushq	%rbp
100008fa1: 48 89 e5                    	movq	%rsp, %rbp
100008fa4: 48 89 f8                    	movq	%rdi, %rax
100008fa7: f2 0f 12 c8                 	movddup	%xmm0, %xmm1
100008fab: 66 0f 58 4d 10              	addpd	16(%rbp), %xmm1
100008fb0: 66 0f 11 0f                 	movupd	%xmm1, (%rdi)
100008fb4: f2 0f 58 45 20              	addsd	32(%rbp), %xmm0
100008fb9: f2 0f 11 47 10              	movsd	%xmm0, 16(%rdi)
100008fbe: 5d                          	popq	%rbp
100008fbf: c3                          	retq

0000000100008fc0 _at:
100008fc0: 55                          	pushq	%rbp
100008fc1: 48 89 e5                    	movq	%rsp, %rbp
100008fc4: 41 56                       	pushq	%r14
100008fc6: 53                          	pushq	%rbx
100008fc7: 48 83 ec 20                 	subq	$32, %rsp
100008fcb: 49 89 fe                    	movq	%rdi, %r14
100008fce: 48 83 ec 08                 	subq	$8, %rsp
100008fd2: 48 8b 45 38                 	movq	56(%rbp), %rax
100008fd6: 48 8b 4d 28                 	movq	40(%rbp), %rcx
100008fda: 48 8b 55 30                 	movq	48(%rbp), %rdx
100008fde: 48 8d 7d d8                 	leaq	-40(%rbp), %rdi
100008fe2: 50                          	pushq	%rax
100008fe3: 52                          	pushq	%rdx
100008fe4: 51                          	pushq	%rcx
100008fe5: e8 96 fd ff ff              	callq	-618 <_scalar_mult>
100008fea: 48 83 c4 20                 	addq	$32, %rsp
100008fee: 48 8b 45 e8                 	movq	-24(%rbp), %rax
100008ff2: 4c 8b 45 d8                 	movq	-40(%rbp), %r8
100008ff6: 48 8b 55 e0                 	movq	-32(%rbp), %rdx
100008ffa: 48 8b 75 20                 	movq	32(%rbp), %rsi
100008ffe: 48 8b 5d 10                 	movq	16(%rbp), %rbx
100009002: 48 8b 4d 18                 	movq	24(%rbp), %rcx
100009006: 4c 89 f7                    	movq	%r14, %rdi
100009009: 50                          	pushq	%rax
10000900a: 52                          	pushq	%rdx
10000900b: 41 50                       	pushq	%r8
10000900d: 56                          	pushq	%rsi
10000900e: 51                          	pushq	%rcx
10000900f: 53                          	pushq	%rbx
100009010: e8 0b fd ff ff              	callq	-757 <_vec_addition>
100009015: 48 83 c4 30                 	addq	$48, %rsp
100009019: 4c 89 f0                    	movq	%r14, %rax
10000901c: 48 83 c4 20                 	addq	$32, %rsp
100009020: 5b                          	popq	%rbx
100009021: 41 5e                       	popq	%r14
100009023: 5d                          	popq	%rbp
100009024: c3                          	retq
100009025: 66 2e 0f 1f 84 00 00 00 00 00       	nopw	%cs:(%rax,%rax)
10000902f: 90                          	nop

0000000100009030 _distance:
100009030: 55                          	pushq	%rbp
100009031: 48 89 e5                    	movq	%rsp, %rbp
100009034: 48 83 ec 30                 	subq	$48, %rsp
100009038: 48 8b 45 38                 	movq	56(%rbp), %rax
10000903c: 4c 8b 4d 28                 	movq	40(%rbp), %r9
100009040: 48 8b 55 30                 	movq	48(%rbp), %rdx
100009044: 48 8b 75 20                 	movq	32(%rbp), %rsi
100009048: 4c 8b 45 10                 	movq	16(%rbp), %r8
10000904c: 48 8b 4d 18                 	movq	24(%rbp), %rcx
100009050: 48 8d 7d d0                 	leaq	-48(%rbp), %rdi
100009054: 50                          	pushq	%rax
100009055: 52                          	pushq	%rdx
100009056: 41 51                       	pushq	%r9
100009058: 56                          	pushq	%rsi
100009059: 51                          	pushq	%rcx
10000905a: 41 50                       	pushq	%r8
10000905c: e8 ef fc ff ff              	callq	-785 <_vec_sub>
100009061: 48 83 c4 30                 	addq	$48, %rsp
100009065: f2 0f 10 45 d0              	movsd	-48(%rbp), %xmm0
10000906a: f2 0f 10 4d d8              	movsd	-40(%rbp), %xmm1
10000906f: f2 0f 11 4d f8              	movsd	%xmm1, -8(%rbp)
100009074: f2 0f 10 4d e0              	movsd	-32(%rbp), %xmm1
100009079: f2 0f 11 4d e8              	movsd	%xmm1, -24(%rbp)
10000907e: e8 bd fe ff ff              	callq	-323 <_sqr>
100009083: f2 0f 11 45 f0              	movsd	%xmm0, -16(%rbp)
100009088: f2 0f 10 45 f8              	movsd	-8(%rbp), %xmm0
10000908d: e8 ae fe ff ff              	callq	-338 <_sqr>
100009092: f2 0f 58 45 f0              	addsd	-16(%rbp), %xmm0
100009097: f2 0f 11 45 f8              	movsd	%xmm0, -8(%rbp)
10000909c: f2 0f 10 45 e8              	movsd	-24(%rbp), %xmm0
1000090a1: e8 9a fe ff ff              	callq	-358 <_sqr>
1000090a6: f2 0f 58 45 f8              	addsd	-8(%rbp), %xmm0
1000090ab: f2 0f 51 c0                 	sqrtsd	%xmm0, %xmm0
1000090af: 48 83 c4 30                 	addq	$48, %rsp
1000090b3: 5d                          	popq	%rbp
1000090b4: c3                          	retq
1000090b5: 66 2e 0f 1f 84 00 00 00 00 00       	nopw	%cs:(%rax,%rax)
1000090bf: 90                          	nop

00000001000090c0 _v_length:
1000090c0: 55                          	pushq	%rbp
1000090c1: 48 89 e5                    	movq	%rsp, %rbp
1000090c4: 48 83 ec 20                 	subq	$32, %rsp
1000090c8: f2 0f 10 45 10              	movsd	16(%rbp), %xmm0
1000090cd: f2 0f 10 4d 18              	movsd	24(%rbp), %xmm1
1000090d2: f2 0f 11 4d f8              	movsd	%xmm1, -8(%rbp)
1000090d7: f2 0f 10 4d 20              	movsd	32(%rbp), %xmm1
1000090dc: f2 0f 11 4d e8              	movsd	%xmm1, -24(%rbp)
1000090e1: e8 5a fe ff ff              	callq	-422 <_sqr>
1000090e6: f2 0f 11 45 f0              	movsd	%xmm0, -16(%rbp)
1000090eb: f2 0f 10 45 f8              	movsd	-8(%rbp), %xmm0
1000090f0: e8 4b fe ff ff              	callq	-437 <_sqr>
1000090f5: f2 0f 58 45 f0              	addsd	-16(%rbp), %xmm0
1000090fa: f2 0f 11 45 f8              	movsd	%xmm0, -8(%rbp)
1000090ff: f2 0f 10 45 e8              	movsd	-24(%rbp), %xmm0
100009104: e8 37 fe ff ff              	callq	-457 <_sqr>
100009109: f2 0f 58 45 f8              	addsd	-8(%rbp), %xmm0
10000910e: f2 0f 51 c0                 	sqrtsd	%xmm0, %xmm0
100009112: 48 83 c4 20                 	addq	$32, %rsp
100009116: 5d                          	popq	%rbp
100009117: c3                          	retq
100009118: 0f 1f 84 00 00 00 00 00     	nopl	(%rax,%rax)

0000000100009120 _length:
100009120: 55                          	pushq	%rbp
100009121: 48 89 e5                    	movq	%rsp, %rbp
100009124: 48 83 ec 10                 	subq	$16, %rsp
100009128: f2 0f 10 45 10              	movsd	16(%rbp), %xmm0
10000912d: e8 0e fe ff ff              	callq	-498 <_sqr>
100009132: f2 0f 11 45 f8              	movsd	%xmm0, -8(%rbp)
100009137: f2 0f 10 45 18              	movsd	24(%rbp), %xmm0
10000913c: e8 ff fd ff ff              	callq	-513 <_sqr>
100009141: f2 0f 58 45 f8              	addsd	-8(%rbp), %xmm0
100009146: f2 0f 11 45 f8              	movsd	%xmm0, -8(%rbp)
10000914b: f2 0f 10 45 20              	movsd	32(%rbp), %xmm0
100009150: e8 eb fd ff ff              	callq	-533 <_sqr>
100009155: f2 0f 58 45 f8              	addsd	-8(%rbp), %xmm0
10000915a: 48 83 c4 10                 	addq	$16, %rsp
10000915e: 5d                          	popq	%rbp
10000915f: c3                          	retq

0000000100009160 _print_vec:
100009160: 55                          	pushq	%rbp
100009161: 48 89 e5                    	movq	%rsp, %rbp
100009164: 48 89 fe                    	movq	%rdi, %rsi
100009167: f2 0f 10 45 10              	movsd	16(%rbp), %xmm0
10000916c: f2 0f 10 4d 18              	movsd	24(%rbp), %xmm1
100009171: f2 0f 10 55 20              	movsd	32(%rbp), %xmm2
100009176: 48 8d 3d ae 58 00 00        	leaq	22702(%rip), %rdi
10000917d: b0 03                       	movb	$3, %al
10000917f: 5d                          	popq	%rbp
100009180: e9 df 51 00 00              	jmp	20959 <dyld_stub_binder+0x10000e364>
100009185: 66 2e 0f 1f 84 00 00 00 00 00       	nopw	%cs:(%rax,%rax)
10000918f: 90                          	nop

0000000100009190 _print_scean:
100009190: 55                          	pushq	%rbp
100009191: 48 89 e5                    	movq	%rsp, %rbp
100009194: 41 57                       	pushq	%r15
100009196: 41 56                       	pushq	%r14
100009198: 41 55                       	pushq	%r13
10000919a: 41 54                       	pushq	%r12
10000919c: 53                          	pushq	%rbx
10000919d: 50                          	pushq	%rax
10000919e: 4c 8d 65 10                 	leaq	16(%rbp), %r12
1000091a2: 8b 4d 20                    	movl	32(%rbp), %ecx
1000091a5: 8b 75 24                    	movl	36(%rbp), %esi
1000091a8: 8b 55 28                    	movl	40(%rbp), %edx
1000091ab: 48 8d 3d 91 58 00 00        	leaq	22673(%rip), %rdi
1000091b2: 31 c0                       	xorl	%eax, %eax
1000091b4: e8 ab 51 00 00              	callq	20907 <dyld_stub_binder+0x10000e364>
1000091b9: f2 0f 10 45 40              	movsd	64(%rbp), %xmm0
1000091be: f2 0f 10 4d 48              	movsd	72(%rbp), %xmm1
1000091c3: f2 0f 10 55 50              	movsd	80(%rbp), %xmm2
1000091c8: f2 0f 10 5d 58              	movsd	88(%rbp), %xmm3
1000091cd: f2 0f 10 65 60              	movsd	96(%rbp), %xmm4
1000091d2: f2 0f 10 6d 68              	movsd	104(%rbp), %xmm5
1000091d7: 0f b6 75 38                 	movzbl	56(%rbp), %esi
1000091db: 48 8d 3d 82 58 00 00        	leaq	22658(%rip), %rdi
1000091e2: b0 06                       	movb	$6, %al
1000091e4: e8 7b 51 00 00              	callq	20859 <dyld_stub_binder+0x10000e364>
1000091e9: f2 0f 10 45 18              	movsd	24(%rbp), %xmm0
1000091ee: 0f b6 75 10                 	movzbl	16(%rbp), %esi
1000091f2: 0f b6 55 11                 	movzbl	17(%rbp), %edx
1000091f6: 0f b6 4d 12                 	movzbl	18(%rbp), %ecx
1000091fa: 48 8d 3d 8f 58 00 00        	leaq	22671(%rip), %rdi
100009201: b0 01                       	movb	$1, %al
100009203: e8 5c 51 00 00              	callq	20828 <dyld_stub_binder+0x10000e364>
100009208: 48 8b 9d 38 01 00 00        	movq	312(%rbp), %rbx
10000920f: 48 85 db                    	testq	%rbx, %rbx
100009212: 74 3e                       	je	62 <_print_scean+0xc2>
100009214: 4c 8d 35 93 58 00 00        	leaq	22675(%rip), %r14
10000921b: 0f 1f 44 00 00              	nopl	(%rax,%rax)
100009220: f2 0f 10 5b 08              	movsd	8(%rbx), %xmm3
100009225: f2 0f 10 43 10              	movsd	16(%rbx), %xmm0
10000922a: f2 0f 10 4b 18              	movsd	24(%rbx), %xmm1
10000922f: f2 0f 10 53 20              	movsd	32(%rbx), %xmm2
100009234: 0f b6 33                    	movzbl	(%rbx), %esi
100009237: 0f b6 53 01                 	movzbl	1(%rbx), %edx
10000923b: 0f b6 4b 02                 	movzbl	2(%rbx), %ecx
10000923f: 4c 89 f7                    	movq	%r14, %rdi
100009242: b0 04                       	movb	$4, %al
100009244: e8 1b 51 00 00              	callq	20763 <dyld_stub_binder+0x10000e364>
100009249: 48 8b 5b 28                 	movq	40(%rbx), %rbx
10000924d: 48 85 db                    	testq	%rbx, %rbx
100009250: 75 ce                       	jne	-50 <_print_scean+0x90>
100009252: 4d 8b ac 24 20 01 00 00     	movq	288(%r12), %r13
10000925a: 4d 85 ed                    	testq	%r13, %r13
10000925d: 0f 84 ef 01 00 00           	je	495 <_print_scean+0x2c2>
100009263: 4c 8d 35 fa 01 00 00        	leaq	506(%rip), %r14
10000926a: 4c 8d 3d a4 58 00 00        	leaq	22692(%rip), %r15
100009271: eb 2c                       	jmp	44 <_print_scean+0x10f>
100009273: 66 2e 0f 1f 84 00 00 00 00 00       	nopw	%cs:(%rax,%rax)
10000927d: 0f 1f 00                    	nopl	(%rax)
100009280: 4c 89 ff                    	movq	%r15, %rdi
100009283: 31 c0                       	xorl	%eax, %eax
100009285: e8 da 50 00 00              	callq	20698 <dyld_stub_binder+0x10000e364>
10000928a: 4d 8b 6d 28                 	movq	40(%r13), %r13
10000928e: 4d 89 ac 24 20 01 00 00     	movq	%r13, 288(%r12)
100009296: 4d 85 ed                    	testq	%r13, %r13
100009299: 0f 84 b3 01 00 00           	je	435 <_print_scean+0x2c2>
10000929f: 41 0f b6 45 00              	movzbl	(%r13), %eax
1000092a4: 48 83 f8 04                 	cmpq	$4, %rax
1000092a8: 77 e0                       	ja	-32 <_print_scean+0xfa>
1000092aa: 49 63 04 86                 	movslq	(%r14,%rax,4), %rax
1000092ae: 4c 01 f0                    	addq	%r14, %rax
1000092b1: ff e0                       	jmpq	*%rax
1000092b3: 49 8b 5d 18                 	movq	24(%r13), %rbx
1000092b7: f2 0f 10 43 40              	movsd	64(%rbx), %xmm0
1000092bc: f2 0f 10 4b 48              	movsd	72(%rbx), %xmm1
1000092c1: f2 0f 10 53 50              	movsd	80(%rbx), %xmm2
1000092c6: f2 0f 10 5b 60              	movsd	96(%rbx), %xmm3
1000092cb: 0f b6 73 58                 	movzbl	88(%rbx), %esi
1000092cf: 0f b6 53 59                 	movzbl	89(%rbx), %edx
1000092d3: 0f b6 4b 5a                 	movzbl	90(%rbx), %ecx
1000092d7: 48 8d 3d f9 57 00 00        	leaq	22521(%rip), %rdi
1000092de: b0 04                       	movb	$4, %al
1000092e0: e8 7f 50 00 00              	callq	20607 <dyld_stub_binder+0x10000e364>
1000092e5: 48 8b 73 30                 	movq	48(%rbx), %rsi
1000092e9: 48 85 f6                    	testq	%rsi, %rsi
1000092ec: 0f 85 40 01 00 00           	jne	320 <_print_scean+0x2a2>
1000092f2: e9 49 01 00 00              	jmp	329 <_print_scean+0x2b0>
1000092f7: 66 0f 1f 84 00 00 00 00 00  	nopw	(%rax,%rax)
100009300: 4c 89 fb                    	movq	%r15, %rbx
100009303: 4d 8b 7d 18                 	movq	24(%r13), %r15
100009307: f2 41 0f 10 47 58           	movsd	88(%r15), %xmm0
10000930d: f2 41 0f 10 4f 60           	movsd	96(%r15), %xmm1
100009313: f2 41 0f 10 57 68           	movsd	104(%r15), %xmm2
100009319: f2 41 0f 10 5f 40           	movsd	64(%r15), %xmm3
10000931f: f2 41 0f 10 67 48           	movsd	72(%r15), %xmm4
100009325: f2 41 0f 10 6f 50           	movsd	80(%r15), %xmm5
10000932b: f2 41 0f 10 b7 80 00 00 00  	movsd	128(%r15), %xmm6
100009334: f2 41 0f 10 bf 88 00 00 00  	movsd	136(%r15), %xmm7
10000933d: 41 0f b6 77 70              	movzbl	112(%r15), %esi
100009342: 41 0f b6 57 71              	movzbl	113(%r15), %edx
100009347: 41 0f b6 4f 72              	movzbl	114(%r15), %ecx
10000934c: 48 8d 3d 05 58 00 00        	leaq	22533(%rip), %rdi
100009353: b0 08                       	movb	$8, %al
100009355: e8 0a 50 00 00              	callq	20490 <dyld_stub_binder+0x10000e364>
10000935a: 49 8b 77 30                 	movq	48(%r15), %rsi
10000935e: 48 85 f6                    	testq	%rsi, %rsi
100009361: 74 0e                       	je	14 <_print_scean+0x1e1>
100009363: 48 8d 3d 97 57 00 00        	leaq	22423(%rip), %rdi
10000936a: 31 c0                       	xorl	%eax, %eax
10000936c: e8 f3 4f 00 00              	callq	20467 <dyld_stub_binder+0x10000e364>
100009371: 49 8b 77 38                 	movq	56(%r15), %rsi
100009375: 48 85 f6                    	testq	%rsi, %rsi
100009378: 49 89 df                    	movq	%rbx, %r15
10000937b: 0f 85 ff fe ff ff           	jne	-257 <_print_scean+0xf0>
100009381: e9 04 ff ff ff              	jmp	-252 <_print_scean+0xfa>
100009386: 66 2e 0f 1f 84 00 00 00 00 00       	nopw	%cs:(%rax,%rax)
100009390: 49 8b 5d 18                 	movq	24(%r13), %rbx
100009394: f2 0f 10 43 60              	movsd	96(%rbx), %xmm0
100009399: f2 0f 10 4b 68              	movsd	104(%rbx), %xmm1
10000939e: f2 0f 10 53 70              	movsd	112(%rbx), %xmm2
1000093a3: f2 0f 10 5b 40              	movsd	64(%rbx), %xmm3
1000093a8: f2 0f 10 63 48              	movsd	72(%rbx), %xmm4
1000093ad: f2 0f 10 6b 50              	movsd	80(%rbx), %xmm5
1000093b2: 0f b6 73 58                 	movzbl	88(%rbx), %esi
1000093b6: 0f b6 53 59                 	movzbl	89(%rbx), %edx
1000093ba: 0f b6 4b 5a                 	movzbl	90(%rbx), %ecx
1000093be: 48 8d 3d 61 57 00 00        	leaq	22369(%rip), %rdi
1000093c5: b0 06                       	movb	$6, %al
1000093c7: e8 98 4f 00 00              	callq	20376 <dyld_stub_binder+0x10000e364>
1000093cc: 48 8b 73 30                 	movq	48(%rbx), %rsi
1000093d0: 48 85 f6                    	testq	%rsi, %rsi
1000093d3: 75 5d                       	jne	93 <_print_scean+0x2a2>
1000093d5: eb 69                       	jmp	105 <_print_scean+0x2b0>
1000093d7: 66 0f 1f 84 00 00 00 00 00  	nopw	(%rax,%rax)
1000093e0: 49 8b 5d 18                 	movq	24(%r13), %rbx
1000093e4: f2 0f 10 43 58              	movsd	88(%rbx), %xmm0
1000093e9: f2 0f 10 4b 60              	movsd	96(%rbx), %xmm1
1000093ee: f2 0f 10 53 68              	movsd	104(%rbx), %xmm2
1000093f3: f2 0f 10 5b 40              	movsd	64(%rbx), %xmm3
1000093f8: f2 0f 10 63 48              	movsd	72(%rbx), %xmm4
1000093fd: f2 0f 10 6b 50              	movsd	80(%rbx), %xmm5
100009402: f2 0f 10 73 78              	movsd	120(%rbx), %xmm6
100009407: f2 0f 10 bb 80 00 00 00     	movsd	128(%rbx), %xmm7
10000940f: 0f b6 73 70                 	movzbl	112(%rbx), %esi
100009413: 0f b6 53 71                 	movzbl	113(%rbx), %edx
100009417: 0f b6 4b 72                 	movzbl	114(%rbx), %ecx
10000941b: 48 8d 3d 72 57 00 00        	leaq	22386(%rip), %rdi
100009422: b0 08                       	movb	$8, %al
100009424: e8 3b 4f 00 00              	callq	20283 <dyld_stub_binder+0x10000e364>
100009429: 48 8b 73 30                 	movq	48(%rbx), %rsi
10000942d: 48 85 f6                    	testq	%rsi, %rsi
100009430: 74 0e                       	je	14 <_print_scean+0x2b0>
100009432: 48 8d 3d c8 56 00 00        	leaq	22216(%rip), %rdi
100009439: 31 c0                       	xorl	%eax, %eax
10000943b: e8 24 4f 00 00              	callq	20260 <dyld_stub_binder+0x10000e364>
100009440: 48 8b 73 38                 	movq	56(%rbx), %rsi
100009444: 48 85 f6                    	testq	%rsi, %rsi
100009447: 0f 85 33 fe ff ff           	jne	-461 <_print_scean+0xf0>
10000944d: e9 38 fe ff ff              	jmp	-456 <_print_scean+0xfa>
100009452: 48 83 c4 08                 	addq	$8, %rsp
100009456: 5b                          	popq	%rbx
100009457: 41 5c                       	popq	%r12
100009459: 41 5d                       	popq	%r13
10000945b: 41 5e                       	popq	%r14
10000945d: 41 5f                       	popq	%r15
10000945f: 5d                          	popq	%rbp
100009460: c3                          	retq
100009461: 0f 1f 00                    	nopl	(%rax)
100009464: 4f fe ff                    	<unknown>
100009467: ff 9c fe ff ff 2c ff        	lcalll	*-13828097(%rsi,%rdi,8)
10000946e: ff ff                       	<unknown>
100009470: 26 fe ff                    	<unknown>
100009473: ff 7c ff ff                 	<unknown>
100009477: ff 90 90 90 90 90           	callq	*-1869574000(%rax)
10000947d: 90                          	nop
10000947e: 90                          	nop
10000947f: 90                          	nop

0000000100009480 _ft_atoi:
100009480: 55                          	pushq	%rbp
100009481: 48 89 e5                    	movq	%rsp, %rbp
100009484: 48 83 ec 20                 	subq	$32, %rsp
100009488: 48 89 7d f8                 	movq	%rdi, -8(%rbp)
10000948c: c7 45 f4 01 00 00 00        	movl	$1, -12(%rbp)
100009493: 48 c7 45 e8 00 00 00 00     	movq	$0, -24(%rbp)
10000949b: 48 8b 45 f8                 	movq	-8(%rbp), %rax
10000949f: 0f be 08                    	movsbl	(%rax), %ecx
1000094a2: 83 f9 20                    	cmpl	$32, %ecx
1000094a5: b2 01                       	movb	$1, %dl
1000094a7: 88 55 e7                    	movb	%dl, -25(%rbp)
1000094aa: 0f 84 2b 00 00 00           	je	43 <_ft_atoi+0x5b>
1000094b0: 31 c0                       	xorl	%eax, %eax
1000094b2: 48 8b 4d f8                 	movq	-8(%rbp), %rcx
1000094b6: 0f be 11                    	movsbl	(%rcx), %edx
1000094b9: 83 fa 09                    	cmpl	$9, %edx
1000094bc: 88 45 e6                    	movb	%al, -26(%rbp)
1000094bf: 0f 8c 10 00 00 00           	jl	16 <_ft_atoi+0x55>
1000094c5: 48 8b 45 f8                 	movq	-8(%rbp), %rax
1000094c9: 0f be 08                    	movsbl	(%rax), %ecx
1000094cc: 83 f9 0d                    	cmpl	$13, %ecx
1000094cf: 0f 9e c2                    	setle	%dl
1000094d2: 88 55 e6                    	movb	%dl, -26(%rbp)
1000094d5: 8a 45 e6                    	movb	-26(%rbp), %al
1000094d8: 88 45 e7                    	movb	%al, -25(%rbp)
1000094db: 8a 45 e7                    	movb	-25(%rbp), %al
1000094de: a8 01                       	testb	$1, %al
1000094e0: 0f 85 05 00 00 00           	jne	5 <_ft_atoi+0x6b>
1000094e6: e9 13 00 00 00              	jmp	19 <_ft_atoi+0x7e>
1000094eb: 48 8b 45 f8                 	movq	-8(%rbp), %rax
1000094ef: 48 05 01 00 00 00           	addq	$1, %rax
1000094f5: 48 89 45 f8                 	movq	%rax, -8(%rbp)
1000094f9: e9 9d ff ff ff              	jmp	-99 <_ft_atoi+0x1b>
1000094fe: 48 8b 45 f8                 	movq	-8(%rbp), %rax
100009502: 0f be 08                    	movsbl	(%rax), %ecx
100009505: 83 f9 2d                    	cmpl	$45, %ecx
100009508: 0f 84 10 00 00 00           	je	16 <_ft_atoi+0x9e>
10000950e: 48 8b 45 f8                 	movq	-8(%rbp), %rax
100009512: 0f be 08                    	movsbl	(%rax), %ecx
100009515: 83 f9 2b                    	cmpl	$43, %ecx
100009518: 0f 85 2a 00 00 00           	jne	42 <_ft_atoi+0xc8>
10000951e: 48 8b 45 f8                 	movq	-8(%rbp), %rax
100009522: 48 89 c1                    	movq	%rax, %rcx
100009525: 48 81 c1 01 00 00 00        	addq	$1, %rcx
10000952c: 48 89 4d f8                 	movq	%rcx, -8(%rbp)
100009530: 0f be 10                    	movsbl	(%rax), %edx
100009533: 83 fa 2d                    	cmpl	$45, %edx
100009536: 0f 85 07 00 00 00           	jne	7 <_ft_atoi+0xc3>
10000953c: c7 45 f4 ff ff ff ff        	movl	$4294967295, -12(%rbp)
100009543: e9 00 00 00 00              	jmp	0 <_ft_atoi+0xc8>
100009548: e9 00 00 00 00              	jmp	0 <_ft_atoi+0xcd>
10000954d: 31 c0                       	xorl	%eax, %eax
10000954f: 48 8b 4d f8                 	movq	-8(%rbp), %rcx
100009553: 0f be 11                    	movsbl	(%rcx), %edx
100009556: 83 fa 00                    	cmpl	$0, %edx
100009559: 88 45 e5                    	movb	%al, -27(%rbp)
10000955c: 0f 84 15 00 00 00           	je	21 <_ft_atoi+0xf7>
100009562: 48 8b 45 f8                 	movq	-8(%rbp), %rax
100009566: 0f be 38                    	movsbl	(%rax), %edi
100009569: e8 e2 00 00 00              	callq	226 <_ft_isdigit>
10000956e: 83 f8 00                    	cmpl	$0, %eax
100009571: 0f 95 c1                    	setne	%cl
100009574: 88 4d e5                    	movb	%cl, -27(%rbp)
100009577: 8a 45 e5                    	movb	-27(%rbp), %al
10000957a: a8 01                       	testb	$1, %al
10000957c: 0f 85 05 00 00 00           	jne	5 <_ft_atoi+0x107>
100009582: e9 30 00 00 00              	jmp	48 <_ft_atoi+0x137>
100009587: 48 69 45 e8 0a 00 00 00     	imulq	$10, -24(%rbp), %rax
10000958f: 48 8b 4d f8                 	movq	-8(%rbp), %rcx
100009593: 48 89 ca                    	movq	%rcx, %rdx
100009596: 48 81 c2 01 00 00 00        	addq	$1, %rdx
10000959d: 48 89 55 f8                 	movq	%rdx, -8(%rbp)
1000095a1: 48 0f be 09                 	movsbq	(%rcx), %rcx
1000095a5: 48 01 c8                    	addq	%rcx, %rax
1000095a8: 48 2d 30 00 00 00           	subq	$48, %rax
1000095ae: 48 89 45 e8                 	movq	%rax, -24(%rbp)
1000095b2: e9 96 ff ff ff              	jmp	-106 <_ft_atoi+0xcd>
1000095b7: 48 8b 45 e8                 	movq	-24(%rbp), %rax
1000095bb: 48 63 4d f4                 	movslq	-12(%rbp), %rcx
1000095bf: 48 0f af c1                 	imulq	%rcx, %rax
1000095c3: 48 83 c4 20                 	addq	$32, %rsp
1000095c7: 5d                          	popq	%rbp
1000095c8: c3                          	retq
1000095c9: 90                          	nop
1000095ca: 90                          	nop
1000095cb: 90                          	nop
1000095cc: 90                          	nop
1000095cd: 90                          	nop
1000095ce: 90                          	nop
1000095cf: 90                          	nop

00000001000095d0 _ft_bzero:
1000095d0: 55                          	pushq	%rbp
1000095d1: 48 89 e5                    	movq	%rsp, %rbp
1000095d4: 48 83 ec 10                 	subq	$16, %rsp
1000095d8: 31 c0                       	xorl	%eax, %eax
1000095da: 48 89 7d f8                 	movq	%rdi, -8(%rbp)
1000095de: 48 89 75 f0                 	movq	%rsi, -16(%rbp)
1000095e2: 48 8b 7d f8                 	movq	-8(%rbp), %rdi
1000095e6: 48 8b 55 f0                 	movq	-16(%rbp), %rdx
1000095ea: 89 c6                       	movl	%eax, %esi
1000095ec: e8 5f 01 00 00              	callq	351 <_ft_memset>
1000095f1: 48 83 c4 10                 	addq	$16, %rsp
1000095f5: 5d                          	popq	%rbp
1000095f6: c3                          	retq
1000095f7: 90                          	nop
1000095f8: 90                          	nop
1000095f9: 90                          	nop
1000095fa: 90                          	nop
1000095fb: 90                          	nop
1000095fc: 90                          	nop
1000095fd: 90                          	nop
1000095fe: 90                          	nop
1000095ff: 90                          	nop

0000000100009600 _ft_calloc:
100009600: 55                          	pushq	%rbp
100009601: 48 89 e5                    	movq	%rsp, %rbp
100009604: 48 83 ec 20                 	subq	$32, %rsp
100009608: 48 89 7d f8                 	movq	%rdi, -8(%rbp)
10000960c: 48 89 75 f0                 	movq	%rsi, -16(%rbp)
100009610: 48 8b 45 f8                 	movq	-8(%rbp), %rax
100009614: 48 0f af 45 f0              	imulq	-16(%rbp), %rax
100009619: 48 89 c7                    	movq	%rax, %rdi
10000961c: e8 13 4d 00 00              	callq	19731 <dyld_stub_binder+0x10000e334>
100009621: 48 89 45 e8                 	movq	%rax, -24(%rbp)
100009625: 48 83 7d e8 00              	cmpq	$0, -24(%rbp)
10000962a: 0f 84 15 00 00 00           	je	21 <_ft_calloc+0x45>
100009630: 48 8b 7d e8                 	movq	-24(%rbp), %rdi
100009634: 48 8b 45 f8                 	movq	-8(%rbp), %rax
100009638: 48 0f af 45 f0              	imulq	-16(%rbp), %rax
10000963d: 48 89 c6                    	movq	%rax, %rsi
100009640: e8 8b ff ff ff              	callq	-117 <_ft_bzero>
100009645: 48 8b 45 e8                 	movq	-24(%rbp), %rax
100009649: 48 83 c4 20                 	addq	$32, %rsp
10000964d: 5d                          	popq	%rbp
10000964e: c3                          	retq
10000964f: 90                          	nop

0000000100009650 _ft_isdigit:
100009650: 55                          	pushq	%rbp
100009651: 48 89 e5                    	movq	%rsp, %rbp
100009654: 31 c0                       	xorl	%eax, %eax
100009656: 89 7d fc                    	movl	%edi, -4(%rbp)
100009659: 83 7d fc 30                 	cmpl	$48, -4(%rbp)
10000965d: 88 45 fb                    	movb	%al, -5(%rbp)
100009660: 0f 8c 0a 00 00 00           	jl	10 <_ft_isdigit+0x20>
100009666: 83 7d fc 39                 	cmpl	$57, -4(%rbp)
10000966a: 0f 9e c0                    	setle	%al
10000966d: 88 45 fb                    	movb	%al, -5(%rbp)
100009670: 8a 45 fb                    	movb	-5(%rbp), %al
100009673: 24 01                       	andb	$1, %al
100009675: 0f b6 c0                    	movzbl	%al, %eax
100009678: 5d                          	popq	%rbp
100009679: c3                          	retq
10000967a: 90                          	nop
10000967b: 90                          	nop
10000967c: 90                          	nop
10000967d: 90                          	nop
10000967e: 90                          	nop
10000967f: 90                          	nop

0000000100009680 _ft_isspace:
100009680: 55                          	pushq	%rbp
100009681: 48 89 e5                    	movq	%rsp, %rbp
100009684: 89 7d fc                    	movl	%edi, -4(%rbp)
100009687: 83 7d fc 09                 	cmpl	$9, -4(%rbp)
10000968b: 0f 8c 0f 00 00 00           	jl	15 <_ft_isspace+0x20>
100009691: 83 7d fc 0d                 	cmpl	$13, -4(%rbp)
100009695: b0 01                       	movb	$1, %al
100009697: 88 45 fb                    	movb	%al, -5(%rbp)
10000969a: 0f 8e 0a 00 00 00           	jle	10 <_ft_isspace+0x2a>
1000096a0: 83 7d fc 20                 	cmpl	$32, -4(%rbp)
1000096a4: 0f 94 c0                    	sete	%al
1000096a7: 88 45 fb                    	movb	%al, -5(%rbp)
1000096aa: 8a 45 fb                    	movb	-5(%rbp), %al
1000096ad: 24 01                       	andb	$1, %al
1000096af: 0f b6 c0                    	movzbl	%al, %eax
1000096b2: 5d                          	popq	%rbp
1000096b3: c3                          	retq
1000096b4: 90                          	nop
1000096b5: 90                          	nop
1000096b6: 90                          	nop
1000096b7: 90                          	nop
1000096b8: 90                          	nop
1000096b9: 90                          	nop
1000096ba: 90                          	nop
1000096bb: 90                          	nop
1000096bc: 90                          	nop
1000096bd: 90                          	nop
1000096be: 90                          	nop
1000096bf: 90                          	nop

00000001000096c0 _ft_memcpy:
1000096c0: 55                          	pushq	%rbp
1000096c1: 48 89 e5                    	movq	%rsp, %rbp
1000096c4: 48 89 7d f0                 	movq	%rdi, -16(%rbp)
1000096c8: 48 89 75 e8                 	movq	%rsi, -24(%rbp)
1000096cc: 48 89 55 e0                 	movq	%rdx, -32(%rbp)
1000096d0: 48 c7 45 d8 ff ff ff ff     	movq	$-1, -40(%rbp)
1000096d8: 48 8b 45 f0                 	movq	-16(%rbp), %rax
1000096dc: 48 3b 45 e8                 	cmpq	-24(%rbp), %rax
1000096e0: 0f 84 0b 00 00 00           	je	11 <_ft_memcpy+0x31>
1000096e6: 48 83 7d e0 00              	cmpq	$0, -32(%rbp)
1000096eb: 0f 85 0d 00 00 00           	jne	13 <_ft_memcpy+0x3e>
1000096f1: 48 8b 45 f0                 	movq	-16(%rbp), %rax
1000096f5: 48 89 45 f8                 	movq	%rax, -8(%rbp)
1000096f9: e9 40 00 00 00              	jmp	64 <_ft_memcpy+0x7e>
1000096fe: e9 00 00 00 00              	jmp	0 <_ft_memcpy+0x43>
100009703: 48 8b 45 d8                 	movq	-40(%rbp), %rax
100009707: 48 05 01 00 00 00           	addq	$1, %rax
10000970d: 48 89 45 d8                 	movq	%rax, -40(%rbp)
100009711: 48 3b 45 e0                 	cmpq	-32(%rbp), %rax
100009715: 0f 83 1b 00 00 00           	jae	27 <_ft_memcpy+0x76>
10000971b: 48 8b 45 e8                 	movq	-24(%rbp), %rax
10000971f: 48 8b 4d d8                 	movq	-40(%rbp), %rcx
100009723: 8a 14 08                    	movb	(%rax,%rcx), %dl
100009726: 48 8b 45 f0                 	movq	-16(%rbp), %rax
10000972a: 48 8b 4d d8                 	movq	-40(%rbp), %rcx
10000972e: 88 14 08                    	movb	%dl, (%rax,%rcx)
100009731: e9 cd ff ff ff              	jmp	-51 <_ft_memcpy+0x43>
100009736: 48 8b 45 f0                 	movq	-16(%rbp), %rax
10000973a: 48 89 45 f8                 	movq	%rax, -8(%rbp)
10000973e: 48 8b 45 f8                 	movq	-8(%rbp), %rax
100009742: 5d                          	popq	%rbp
100009743: c3                          	retq
100009744: 90                          	nop
100009745: 90                          	nop
100009746: 90                          	nop
100009747: 90                          	nop
100009748: 90                          	nop
100009749: 90                          	nop
10000974a: 90                          	nop
10000974b: 90                          	nop
10000974c: 90                          	nop
10000974d: 90                          	nop
10000974e: 90                          	nop
10000974f: 90                          	nop

0000000100009750 _ft_memset:
100009750: 55                          	pushq	%rbp
100009751: 48 89 e5                    	movq	%rsp, %rbp
100009754: 48 89 7d f8                 	movq	%rdi, -8(%rbp)
100009758: 89 75 f4                    	movl	%esi, -12(%rbp)
10000975b: 48 89 55 e8                 	movq	%rdx, -24(%rbp)
10000975f: 48 83 7d e8 00              	cmpq	$0, -24(%rbp)
100009764: 0f 84 22 00 00 00           	je	34 <_ft_memset+0x3c>
10000976a: 8b 45 f4                    	movl	-12(%rbp), %eax
10000976d: 48 8b 4d f8                 	movq	-8(%rbp), %rcx
100009771: 48 8b 55 e8                 	movq	-24(%rbp), %rdx
100009775: 48 89 d6                    	movq	%rdx, %rsi
100009778: 48 81 c6 ff ff ff ff        	addq	$-1, %rsi
10000977f: 48 89 75 e8                 	movq	%rsi, -24(%rbp)
100009783: 88 44 11 ff                 	movb	%al, -1(%rcx,%rdx)
100009787: e9 d3 ff ff ff              	jmp	-45 <_ft_memset+0xf>
10000978c: 48 8b 45 f8                 	movq	-8(%rbp), %rax
100009790: 5d                          	popq	%rbp
100009791: c3                          	retq
100009792: 90                          	nop
100009793: 90                          	nop
100009794: 90                          	nop
100009795: 90                          	nop
100009796: 90                          	nop
100009797: 90                          	nop
100009798: 90                          	nop
100009799: 90                          	nop
10000979a: 90                          	nop
10000979b: 90                          	nop
10000979c: 90                          	nop
10000979d: 90                          	nop
10000979e: 90                          	nop
10000979f: 90                          	nop

00000001000097a0 _ft_putstr_fd:
1000097a0: 55                          	pushq	%rbp
1000097a1: 48 89 e5                    	movq	%rsp, %rbp
1000097a4: 48 83 ec 20                 	subq	$32, %rsp
1000097a8: 48 89 7d f8                 	movq	%rdi, -8(%rbp)
1000097ac: 89 75 f4                    	movl	%esi, -12(%rbp)
1000097af: 48 83 7d f8 00              	cmpq	$0, -8(%rbp)
1000097b4: 0f 84 29 00 00 00           	je	41 <_ft_putstr_fd+0x43>
1000097ba: 8b 7d f4                    	movl	-12(%rbp), %edi
1000097bd: 48 8b 75 f8                 	movq	-8(%rbp), %rsi
1000097c1: 48 8b 45 f8                 	movq	-8(%rbp), %rax
1000097c5: 89 7d f0                    	movl	%edi, -16(%rbp)
1000097c8: 48 89 c7                    	movq	%rax, %rdi
1000097cb: 48 89 75 e8                 	movq	%rsi, -24(%rbp)
1000097cf: e8 4c 03 00 00              	callq	844 <_ft_strlen>
1000097d4: 8b 7d f0                    	movl	-16(%rbp), %edi
1000097d7: 48 8b 75 e8                 	movq	-24(%rbp), %rsi
1000097db: 48 89 c2                    	movq	%rax, %rdx
1000097de: e8 e1 4b 00 00              	callq	19425 <dyld_stub_binder+0x10000e3c4>
1000097e3: 48 83 c4 20                 	addq	$32, %rsp
1000097e7: 5d                          	popq	%rbp
1000097e8: c3                          	retq
1000097e9: 90                          	nop
1000097ea: 90                          	nop
1000097eb: 90                          	nop
1000097ec: 90                          	nop
1000097ed: 90                          	nop
1000097ee: 90                          	nop
1000097ef: 90                          	nop

00000001000097f0 _ft_split:
1000097f0: 55                          	pushq	%rbp
1000097f1: 48 89 e5                    	movq	%rsp, %rbp
1000097f4: 48 83 ec 30                 	subq	$48, %rsp
1000097f8: 48 89 7d f0                 	movq	%rdi, -16(%rbp)
1000097fc: 40 88 75 ef                 	movb	%sil, -17(%rbp)
100009800: 48 83 7d f0 00              	cmpq	$0, -16(%rbp)
100009805: 0f 85 0d 00 00 00           	jne	13 <_ft_split+0x28>
10000980b: 48 c7 45 f8 00 00 00 00     	movq	$0, -8(%rbp)
100009813: e9 a4 00 00 00              	jmp	164 <_ft_split+0xcc>
100009818: 48 8b 7d f0                 	movq	-16(%rbp), %rdi
10000981c: 0f be 75 ef                 	movsbl	-17(%rbp), %esi
100009820: e8 ab 00 00 00              	callq	171 <_word_count>
100009825: 89 45 dc                    	movl	%eax, -36(%rbp)
100009828: 8b 45 dc                    	movl	-36(%rbp), %eax
10000982b: 83 c0 01                    	addl	$1, %eax
10000982e: 48 63 f8                    	movslq	%eax, %rdi
100009831: be 08 00 00 00              	movl	$8, %esi
100009836: e8 c5 fd ff ff              	callq	-571 <_ft_calloc>
10000983b: 48 89 45 e0                 	movq	%rax, -32(%rbp)
10000983f: 48 83 7d e0 00              	cmpq	$0, -32(%rbp)
100009844: 0f 85 0d 00 00 00           	jne	13 <_ft_split+0x67>
10000984a: 48 c7 45 f8 00 00 00 00     	movq	$0, -8(%rbp)
100009852: e9 65 00 00 00              	jmp	101 <_ft_split+0xcc>
100009857: 48 8b 7d e0                 	movq	-32(%rbp), %rdi
10000985b: 48 8b 75 f0                 	movq	-16(%rbp), %rsi
10000985f: 8a 45 ef                    	movb	-17(%rbp), %al
100009862: 8b 4d dc                    	movl	-36(%rbp), %ecx
100009865: 0f be d0                    	movsbl	%al, %edx
100009868: e8 e3 00 00 00              	callq	227 <_alloc_fill_strs>
10000986d: 83 f8 00                    	cmpl	$0, %eax
100009870: 0f 84 3e 00 00 00           	je	62 <_ft_split+0xc4>
100009876: e9 00 00 00 00              	jmp	0 <_ft_split+0x8b>
10000987b: 48 8b 45 e0                 	movq	-32(%rbp), %rax
10000987f: 48 83 38 00                 	cmpq	$0, (%rax)
100009883: 0f 84 1f 00 00 00           	je	31 <_ft_split+0xb8>
100009889: 48 8b 45 e0                 	movq	-32(%rbp), %rax
10000988d: 48 89 c1                    	movq	%rax, %rcx
100009890: 48 81 c1 08 00 00 00        	addq	$8, %rcx
100009897: 48 89 4d e0                 	movq	%rcx, -32(%rbp)
10000989b: 48 8b 38                    	movq	(%rax), %rdi
10000989e: e8 8f 49 00 00              	callq	18831 <dyld_stub_binder+0x10000e232>
1000098a3: e9 d3 ff ff ff              	jmp	-45 <_ft_split+0x8b>
1000098a8: 48 8b 45 e0                 	movq	-32(%rbp), %rax
1000098ac: 48 89 c7                    	movq	%rax, %rdi
1000098af: e8 7e 49 00 00              	callq	18814 <dyld_stub_binder+0x10000e232>
1000098b4: 48 8b 45 e0                 	movq	-32(%rbp), %rax
1000098b8: 48 89 45 f8                 	movq	%rax, -8(%rbp)
1000098bc: 48 8b 45 f8                 	movq	-8(%rbp), %rax
1000098c0: 48 83 c4 30                 	addq	$48, %rsp
1000098c4: 5d                          	popq	%rbp
1000098c5: c3                          	retq
1000098c6: 66 2e 0f 1f 84 00 00 00 00 00       	nopw	%cs:(%rax,%rax)

00000001000098d0 _word_count:
1000098d0: 55                          	pushq	%rbp
1000098d1: 48 89 e5                    	movq	%rsp, %rbp
1000098d4: 48 89 7d f8                 	movq	%rdi, -8(%rbp)
1000098d8: 40 88 75 f7                 	movb	%sil, -9(%rbp)
1000098dc: c7 45 f0 00 00 00 00        	movl	$0, -16(%rbp)
1000098e3: 48 8b 45 f8                 	movq	-8(%rbp), %rax
1000098e7: 48 89 c1                    	movq	%rax, %rcx
1000098ea: 48 81 c1 01 00 00 00        	addq	$1, %rcx
1000098f1: 48 89 4d f8                 	movq	%rcx, -8(%rbp)
1000098f5: 80 38 00                    	cmpb	$0, (%rax)
1000098f8: 0f 84 42 00 00 00           	je	66 <_word_count+0x70>
1000098fe: 48 8b 45 f8                 	movq	-8(%rbp), %rax
100009902: 0f be 48 ff                 	movsbl	-1(%rax), %ecx
100009906: 0f be 55 f7                 	movsbl	-9(%rbp), %edx
10000990a: 39 d1                       	cmpl	%edx, %ecx
10000990c: 0f 84 29 00 00 00           	je	41 <_word_count+0x6b>
100009912: 48 8b 45 f8                 	movq	-8(%rbp), %rax
100009916: 0f be 08                    	movsbl	(%rax), %ecx
100009919: 0f be 55 f7                 	movsbl	-9(%rbp), %edx
10000991d: 39 d1                       	cmpl	%edx, %ecx
10000991f: 0f 84 0d 00 00 00           	je	13 <_word_count+0x62>
100009925: 48 8b 45 f8                 	movq	-8(%rbp), %rax
100009929: 80 38 00                    	cmpb	$0, (%rax)
10000992c: 0f 85 09 00 00 00           	jne	9 <_word_count+0x6b>
100009932: 8b 45 f0                    	movl	-16(%rbp), %eax
100009935: 83 c0 01                    	addl	$1, %eax
100009938: 89 45 f0                    	movl	%eax, -16(%rbp)
10000993b: e9 a3 ff ff ff              	jmp	-93 <_word_count+0x13>
100009940: 8b 45 f0                    	movl	-16(%rbp), %eax
100009943: 5d                          	popq	%rbp
100009944: c3                          	retq
100009945: 66 2e 0f 1f 84 00 00 00 00 00       	nopw	%cs:(%rax,%rax)
10000994f: 90                          	nop

0000000100009950 _alloc_fill_strs:
100009950: 55                          	pushq	%rbp
100009951: 48 89 e5                    	movq	%rsp, %rbp
100009954: 48 83 ec 30                 	subq	$48, %rsp
100009958: 48 89 7d f0                 	movq	%rdi, -16(%rbp)
10000995c: 48 89 75 e8                 	movq	%rsi, -24(%rbp)
100009960: 88 55 e7                    	movb	%dl, -25(%rbp)
100009963: 89 4d e0                    	movl	%ecx, -32(%rbp)
100009966: 8b 45 e0                    	movl	-32(%rbp), %eax
100009969: 89 c1                       	movl	%eax, %ecx
10000996b: 83 c1 ff                    	addl	$-1, %ecx
10000996e: 89 4d e0                    	movl	%ecx, -32(%rbp)
100009971: 83 f8 00                    	cmpl	$0, %eax
100009974: 0f 84 e5 00 00 00           	je	229 <_alloc_fill_strs+0x10f>
10000997a: c7 45 dc 00 00 00 00        	movl	$0, -36(%rbp)
100009981: 48 8b 45 e8                 	movq	-24(%rbp), %rax
100009985: 0f be 08                    	movsbl	(%rax), %ecx
100009988: 0f be 55 e7                 	movsbl	-25(%rbp), %edx
10000998c: 39 d1                       	cmpl	%edx, %ecx
10000998e: 0f 85 13 00 00 00           	jne	19 <_alloc_fill_strs+0x57>
100009994: 48 8b 45 e8                 	movq	-24(%rbp), %rax
100009998: 48 05 01 00 00 00           	addq	$1, %rax
10000999e: 48 89 45 e8                 	movq	%rax, -24(%rbp)
1000099a2: e9 da ff ff ff              	jmp	-38 <_alloc_fill_strs+0x31>
1000099a7: e9 00 00 00 00              	jmp	0 <_alloc_fill_strs+0x5c>
1000099ac: 31 c0                       	xorl	%eax, %eax
1000099ae: 48 8b 4d e8                 	movq	-24(%rbp), %rcx
1000099b2: 48 63 55 dc                 	movslq	-36(%rbp), %rdx
1000099b6: 0f be 34 11                 	movsbl	(%rcx,%rdx), %esi
1000099ba: 0f be 7d e7                 	movsbl	-25(%rbp), %edi
1000099be: 39 fe                       	cmpl	%edi, %esi
1000099c0: 88 45 db                    	movb	%al, -37(%rbp)
1000099c3: 0f 84 17 00 00 00           	je	23 <_alloc_fill_strs+0x90>
1000099c9: 48 8b 45 e8                 	movq	-24(%rbp), %rax
1000099cd: 48 63 4d dc                 	movslq	-36(%rbp), %rcx
1000099d1: 0f be 14 08                 	movsbl	(%rax,%rcx), %edx
1000099d5: 83 fa 00                    	cmpl	$0, %edx
1000099d8: 40 0f 95 c6                 	setne	%sil
1000099dc: 40 88 75 db                 	movb	%sil, -37(%rbp)
1000099e0: 8a 45 db                    	movb	-37(%rbp), %al
1000099e3: a8 01                       	testb	$1, %al
1000099e5: 0f 85 05 00 00 00           	jne	5 <_alloc_fill_strs+0xa0>
1000099eb: e9 0e 00 00 00              	jmp	14 <_alloc_fill_strs+0xae>
1000099f0: 8b 45 dc                    	movl	-36(%rbp), %eax
1000099f3: 83 c0 01                    	addl	$1, %eax
1000099f6: 89 45 dc                    	movl	%eax, -36(%rbp)
1000099f9: e9 ae ff ff ff              	jmp	-82 <_alloc_fill_strs+0x5c>
1000099fe: 83 7d dc 00                 	cmpl	$0, -36(%rbp)
100009a02: 0f 85 05 00 00 00           	jne	5 <_alloc_fill_strs+0xbd>
100009a08: e9 52 00 00 00              	jmp	82 <_alloc_fill_strs+0x10f>
100009a0d: 31 f6                       	xorl	%esi, %esi
100009a0f: 48 8b 7d e8                 	movq	-24(%rbp), %rdi
100009a13: 48 63 55 dc                 	movslq	-36(%rbp), %rdx
100009a17: e8 34 03 00 00              	callq	820 <_ft_substr>
100009a1c: 48 8b 4d f0                 	movq	-16(%rbp), %rcx
100009a20: 48 89 01                    	movq	%rax, (%rcx)
100009a23: 48 83 7d f0 00              	cmpq	$0, -16(%rbp)
100009a28: 0f 85 0c 00 00 00           	jne	12 <_alloc_fill_strs+0xea>
100009a2e: c7 45 fc 01 00 00 00        	movl	$1, -4(%rbp)
100009a35: e9 37 00 00 00              	jmp	55 <_alloc_fill_strs+0x121>
100009a3a: 8b 45 dc                    	movl	-36(%rbp), %eax
100009a3d: 48 8b 4d e8                 	movq	-24(%rbp), %rcx
100009a41: 48 63 d0                    	movslq	%eax, %rdx
100009a44: 48 01 d1                    	addq	%rdx, %rcx
100009a47: 48 89 4d e8                 	movq	%rcx, -24(%rbp)
100009a4b: 48 8b 4d f0                 	movq	-16(%rbp), %rcx
100009a4f: 48 81 c1 08 00 00 00        	addq	$8, %rcx
100009a56: 48 89 4d f0                 	movq	%rcx, -16(%rbp)
100009a5a: e9 07 ff ff ff              	jmp	-249 <_alloc_fill_strs+0x16>
100009a5f: 48 8b 45 f0                 	movq	-16(%rbp), %rax
100009a63: 48 c7 00 00 00 00 00        	movq	$0, (%rax)
100009a6a: c7 45 fc 00 00 00 00        	movl	$0, -4(%rbp)
100009a71: 8b 45 fc                    	movl	-4(%rbp), %eax
100009a74: 48 83 c4 30                 	addq	$48, %rsp
100009a78: 5d                          	popq	%rbp
100009a79: c3                          	retq
100009a7a: 90                          	nop
100009a7b: 90                          	nop
100009a7c: 90                          	nop
100009a7d: 90                          	nop
100009a7e: 90                          	nop
100009a7f: 90                          	nop

0000000100009a80 _ft_strdup:
100009a80: 55                          	pushq	%rbp
100009a81: 48 89 e5                    	movq	%rsp, %rbp
100009a84: 48 83 ec 20                 	subq	$32, %rsp
100009a88: 48 89 7d f0                 	movq	%rdi, -16(%rbp)
100009a8c: c7 45 e4 ff ff ff ff        	movl	$4294967295, -28(%rbp)
100009a93: 48 8b 7d f0                 	movq	-16(%rbp), %rdi
100009a97: e8 84 00 00 00              	callq	132 <_ft_strlen>
100009a9c: 48 05 01 00 00 00           	addq	$1, %rax
100009aa2: 48 89 c7                    	movq	%rax, %rdi
100009aa5: be 01 00 00 00              	movl	$1, %esi
100009aaa: e8 51 fb ff ff              	callq	-1199 <_ft_calloc>
100009aaf: 48 89 45 e8                 	movq	%rax, -24(%rbp)
100009ab3: 48 83 7d e8 00              	cmpq	$0, -24(%rbp)
100009ab8: 0f 85 0d 00 00 00           	jne	13 <_ft_strdup+0x4b>
100009abe: 48 c7 45 f8 00 00 00 00     	movq	$0, -8(%rbp)
100009ac6: e9 42 00 00 00              	jmp	66 <_ft_strdup+0x8d>
100009acb: e9 00 00 00 00              	jmp	0 <_ft_strdup+0x50>
100009ad0: 48 8b 45 f0                 	movq	-16(%rbp), %rax
100009ad4: 8b 4d e4                    	movl	-28(%rbp), %ecx
100009ad7: 83 c1 01                    	addl	$1, %ecx
100009ada: 89 4d e4                    	movl	%ecx, -28(%rbp)
100009add: 48 63 d1                    	movslq	%ecx, %rdx
100009ae0: 80 3c 10 00                 	cmpb	$0, (%rax,%rdx)
100009ae4: 0f 84 1b 00 00 00           	je	27 <_ft_strdup+0x85>
100009aea: 48 8b 45 f0                 	movq	-16(%rbp), %rax
100009aee: 48 63 4d e4                 	movslq	-28(%rbp), %rcx
100009af2: 8a 14 08                    	movb	(%rax,%rcx), %dl
100009af5: 48 8b 45 e8                 	movq	-24(%rbp), %rax
100009af9: 48 63 4d e4                 	movslq	-28(%rbp), %rcx
100009afd: 88 14 08                    	movb	%dl, (%rax,%rcx)
100009b00: e9 cb ff ff ff              	jmp	-53 <_ft_strdup+0x50>
100009b05: 48 8b 45 e8                 	movq	-24(%rbp), %rax
100009b09: 48 89 45 f8                 	movq	%rax, -8(%rbp)
100009b0d: 48 8b 45 f8                 	movq	-8(%rbp), %rax
100009b11: 48 83 c4 20                 	addq	$32, %rsp
100009b15: 5d                          	popq	%rbp
100009b16: c3                          	retq
100009b17: 90                          	nop
100009b18: 90                          	nop
100009b19: 90                          	nop
100009b1a: 90                          	nop
100009b1b: 90                          	nop
100009b1c: 90                          	nop
100009b1d: 90                          	nop
100009b1e: 90                          	nop
100009b1f: 90                          	nop

0000000100009b20 _ft_strlen:
100009b20: 55                          	pushq	%rbp
100009b21: 48 89 e5                    	movq	%rsp, %rbp
100009b24: 48 89 7d f0                 	movq	%rdi, -16(%rbp)
100009b28: 48 83 7d f0 00              	cmpq	$0, -16(%rbp)
100009b2d: 0f 85 0d 00 00 00           	jne	13 <_ft_strlen+0x20>
100009b33: 48 c7 45 f8 00 00 00 00     	movq	$0, -8(%rbp)
100009b3b: e9 37 00 00 00              	jmp	55 <_ft_strlen+0x57>
100009b40: 48 8b 45 f0                 	movq	-16(%rbp), %rax
100009b44: 48 89 45 e8                 	movq	%rax, -24(%rbp)
100009b48: 48 8b 45 e8                 	movq	-24(%rbp), %rax
100009b4c: 80 38 00                    	cmpb	$0, (%rax)
100009b4f: 0f 84 13 00 00 00           	je	19 <_ft_strlen+0x48>
100009b55: 48 8b 45 e8                 	movq	-24(%rbp), %rax
100009b59: 48 05 01 00 00 00           	addq	$1, %rax
100009b5f: 48 89 45 e8                 	movq	%rax, -24(%rbp)
100009b63: e9 e0 ff ff ff              	jmp	-32 <_ft_strlen+0x28>
100009b68: 48 8b 45 e8                 	movq	-24(%rbp), %rax
100009b6c: 48 8b 4d f0                 	movq	-16(%rbp), %rcx
100009b70: 48 29 c8                    	subq	%rcx, %rax
100009b73: 48 89 45 f8                 	movq	%rax, -8(%rbp)
100009b77: 48 8b 45 f8                 	movq	-8(%rbp), %rax
100009b7b: 5d                          	popq	%rbp
100009b7c: c3                          	retq
100009b7d: 90                          	nop
100009b7e: 90                          	nop
100009b7f: 90                          	nop

0000000100009b80 _ft_strncmp:
100009b80: 55                          	pushq	%rbp
100009b81: 48 89 e5                    	movq	%rsp, %rbp
100009b84: 48 89 7d f0                 	movq	%rdi, -16(%rbp)
100009b88: 48 89 75 e8                 	movq	%rsi, -24(%rbp)
100009b8c: 48 89 55 e0                 	movq	%rdx, -32(%rbp)
100009b90: 48 83 7d e0 00              	cmpq	$0, -32(%rbp)
100009b95: 0f 85 0c 00 00 00           	jne	12 <_ft_strncmp+0x27>
100009b9b: c7 45 fc 00 00 00 00        	movl	$0, -4(%rbp)
100009ba2: e9 9d 00 00 00              	jmp	157 <_ft_strncmp+0xc4>
100009ba7: e9 00 00 00 00              	jmp	0 <_ft_strncmp+0x2c>
100009bac: 48 8b 45 e0                 	movq	-32(%rbp), %rax
100009bb0: 48 89 c1                    	movq	%rax, %rcx
100009bb3: 48 81 c1 ff ff ff ff        	addq	$-1, %rcx
100009bba: 48 89 4d e0                 	movq	%rcx, -32(%rbp)
100009bbe: 48 83 f8 00                 	cmpq	$0, %rax
100009bc2: 0f 84 75 00 00 00           	je	117 <_ft_strncmp+0xbd>
100009bc8: 48 8b 45 f0                 	movq	-16(%rbp), %rax
100009bcc: 0f be 08                    	movsbl	(%rax), %ecx
100009bcf: 48 8b 45 e8                 	movq	-24(%rbp), %rax
100009bd3: 0f be 10                    	movsbl	(%rax), %edx
100009bd6: 39 d1                       	cmpl	%edx, %ecx
100009bd8: 0f 84 18 00 00 00           	je	24 <_ft_strncmp+0x76>
100009bde: 48 8b 45 f0                 	movq	-16(%rbp), %rax
100009be2: 0f b6 08                    	movzbl	(%rax), %ecx
100009be5: 48 8b 45 e8                 	movq	-24(%rbp), %rax
100009be9: 0f b6 10                    	movzbl	(%rax), %edx
100009bec: 29 d1                       	subl	%edx, %ecx
100009bee: 89 4d fc                    	movl	%ecx, -4(%rbp)
100009bf1: e9 4e 00 00 00              	jmp	78 <_ft_strncmp+0xc4>
100009bf6: 48 8b 45 f0                 	movq	-16(%rbp), %rax
100009bfa: 80 38 00                    	cmpb	$0, (%rax)
100009bfd: 0f 85 19 00 00 00           	jne	25 <_ft_strncmp+0x9c>
100009c03: 48 8b 45 e8                 	movq	-24(%rbp), %rax
100009c07: 80 38 00                    	cmpb	$0, (%rax)
100009c0a: 0f 85 0c 00 00 00           	jne	12 <_ft_strncmp+0x9c>
100009c10: c7 45 fc 00 00 00 00        	movl	$0, -4(%rbp)
100009c17: e9 28 00 00 00              	jmp	40 <_ft_strncmp+0xc4>
100009c1c: 48 8b 45 f0                 	movq	-16(%rbp), %rax
100009c20: 48 05 01 00 00 00           	addq	$1, %rax
100009c26: 48 89 45 f0                 	movq	%rax, -16(%rbp)
100009c2a: 48 8b 45 e8                 	movq	-24(%rbp), %rax
100009c2e: 48 05 01 00 00 00           	addq	$1, %rax
100009c34: 48 89 45 e8                 	movq	%rax, -24(%rbp)
100009c38: e9 6f ff ff ff              	jmp	-145 <_ft_strncmp+0x2c>
100009c3d: c7 45 fc 00 00 00 00        	movl	$0, -4(%rbp)
100009c44: 8b 45 fc                    	movl	-4(%rbp), %eax
100009c47: 5d                          	popq	%rbp
100009c48: c3                          	retq
100009c49: 0f 1f 80 00 00 00 00        	nopl	(%rax)

0000000100009c50 _ft_builtin_strncmp:
100009c50: 55                          	pushq	%rbp
100009c51: 48 89 e5                    	movq	%rsp, %rbp
100009c54: 48 89 7d f0                 	movq	%rdi, -16(%rbp)
100009c58: 48 89 75 e8                 	movq	%rsi, -24(%rbp)
100009c5c: 48 89 55 e0                 	movq	%rdx, -32(%rbp)
100009c60: 48 83 7d e0 00              	cmpq	$0, -32(%rbp)
100009c65: 0f 85 0c 00 00 00           	jne	12 <_ft_builtin_strncmp+0x27>
100009c6b: c7 45 fc 00 00 00 00        	movl	$0, -4(%rbp)
100009c72: e9 c9 00 00 00              	jmp	201 <_ft_builtin_strncmp+0xf0>
100009c77: e9 00 00 00 00              	jmp	0 <_ft_builtin_strncmp+0x2c>
100009c7c: 48 8b 45 e0                 	movq	-32(%rbp), %rax
100009c80: 48 89 c1                    	movq	%rax, %rcx
100009c83: 48 81 c1 ff ff ff ff        	addq	$-1, %rcx
100009c8a: 48 89 4d e0                 	movq	%rcx, -32(%rbp)
100009c8e: 48 83 f8 00                 	cmpq	$0, %rax
100009c92: 0f 84 a1 00 00 00           	je	161 <_ft_builtin_strncmp+0xe9>
100009c98: 48 8b 45 f0                 	movq	-16(%rbp), %rax
100009c9c: 0f be 08                    	movsbl	(%rax), %ecx
100009c9f: 83 f9 41                    	cmpl	$65, %ecx
100009ca2: 0f 8c 1c 00 00 00           	jl	28 <_ft_builtin_strncmp+0x74>
100009ca8: 48 8b 45 f0                 	movq	-16(%rbp), %rax
100009cac: 0f be 08                    	movsbl	(%rax), %ecx
100009caf: 83 f9 5a                    	cmpl	$90, %ecx
100009cb2: 0f 8f 0c 00 00 00           	jg	12 <_ft_builtin_strncmp+0x74>
100009cb8: 48 8b 45 f0                 	movq	-16(%rbp), %rax
100009cbc: 0f be 08                    	movsbl	(%rax), %ecx
100009cbf: 83 c1 20                    	addl	$32, %ecx
100009cc2: 88 08                       	movb	%cl, (%rax)
100009cc4: 48 8b 45 f0                 	movq	-16(%rbp), %rax
100009cc8: 0f be 08                    	movsbl	(%rax), %ecx
100009ccb: 48 8b 45 e8                 	movq	-24(%rbp), %rax
100009ccf: 0f be 10                    	movsbl	(%rax), %edx
100009cd2: 39 d1                       	cmpl	%edx, %ecx
100009cd4: 0f 84 18 00 00 00           	je	24 <_ft_builtin_strncmp+0xa2>
100009cda: 48 8b 45 f0                 	movq	-16(%rbp), %rax
100009cde: 0f b6 08                    	movzbl	(%rax), %ecx
100009ce1: 48 8b 45 e8                 	movq	-24(%rbp), %rax
100009ce5: 0f b6 10                    	movzbl	(%rax), %edx
100009ce8: 29 d1                       	subl	%edx, %ecx
100009cea: 89 4d fc                    	movl	%ecx, -4(%rbp)
100009ced: e9 4e 00 00 00              	jmp	78 <_ft_builtin_strncmp+0xf0>
100009cf2: 48 8b 45 f0                 	movq	-16(%rbp), %rax
100009cf6: 80 38 00                    	cmpb	$0, (%rax)
100009cf9: 0f 85 19 00 00 00           	jne	25 <_ft_builtin_strncmp+0xc8>
100009cff: 48 8b 45 e8                 	movq	-24(%rbp), %rax
100009d03: 80 38 00                    	cmpb	$0, (%rax)
100009d06: 0f 85 0c 00 00 00           	jne	12 <_ft_builtin_strncmp+0xc8>
100009d0c: c7 45 fc 00 00 00 00        	movl	$0, -4(%rbp)
100009d13: e9 28 00 00 00              	jmp	40 <_ft_builtin_strncmp+0xf0>
100009d18: 48 8b 45 f0                 	movq	-16(%rbp), %rax
100009d1c: 48 05 01 00 00 00           	addq	$1, %rax
100009d22: 48 89 45 f0                 	movq	%rax, -16(%rbp)
100009d26: 48 8b 45 e8                 	movq	-24(%rbp), %rax
100009d2a: 48 05 01 00 00 00           	addq	$1, %rax
100009d30: 48 89 45 e8                 	movq	%rax, -24(%rbp)
100009d34: e9 43 ff ff ff              	jmp	-189 <_ft_builtin_strncmp+0x2c>
100009d39: c7 45 fc 00 00 00 00        	movl	$0, -4(%rbp)
100009d40: 8b 45 fc                    	movl	-4(%rbp), %eax
100009d43: 5d                          	popq	%rbp
100009d44: c3                          	retq
100009d45: 90                          	nop
100009d46: 90                          	nop
100009d47: 90                          	nop
100009d48: 90                          	nop
100009d49: 90                          	nop
100009d4a: 90                          	nop
100009d4b: 90                          	nop
100009d4c: 90                          	nop
100009d4d: 90                          	nop
100009d4e: 90                          	nop
100009d4f: 90                          	nop

0000000100009d50 _ft_substr:
100009d50: 55                          	pushq	%rbp
100009d51: 48 89 e5                    	movq	%rsp, %rbp
100009d54: 48 83 ec 40                 	subq	$64, %rsp
100009d58: 48 89 7d f0                 	movq	%rdi, -16(%rbp)
100009d5c: 89 75 ec                    	movl	%esi, -20(%rbp)
100009d5f: 48 89 55 e0                 	movq	%rdx, -32(%rbp)
100009d63: 48 83 7d f0 00              	cmpq	$0, -16(%rbp)
100009d68: 0f 85 0d 00 00 00           	jne	13 <_ft_substr+0x2b>
100009d6e: 48 c7 45 f8 00 00 00 00     	movq	$0, -8(%rbp)
100009d76: e9 ac 00 00 00              	jmp	172 <_ft_substr+0xd7>
100009d7b: 8b 45 ec                    	movl	-20(%rbp), %eax
100009d7e: 89 c1                       	movl	%eax, %ecx
100009d80: 48 8b 7d f0                 	movq	-16(%rbp), %rdi
100009d84: 48 89 4d c8                 	movq	%rcx, -56(%rbp)
100009d88: e8 93 fd ff ff              	callq	-621 <_ft_strlen>
100009d8d: 48 8b 4d c8                 	movq	-56(%rbp), %rcx
100009d91: 48 39 c1                    	cmpq	%rax, %rcx
100009d94: 0f 82 15 00 00 00           	jb	21 <_ft_substr+0x5f>
100009d9a: 48 8d 3d 89 4c 00 00        	leaq	19593(%rip), %rdi
100009da1: e8 da fc ff ff              	callq	-806 <_ft_strdup>
100009da6: 48 89 45 f8                 	movq	%rax, -8(%rbp)
100009daa: e9 78 00 00 00              	jmp	120 <_ft_substr+0xd7>
100009daf: 48 8b 45 f0                 	movq	-16(%rbp), %rax
100009db3: 8b 4d ec                    	movl	-20(%rbp), %ecx
100009db6: 89 ca                       	movl	%ecx, %edx
100009db8: 48 01 d0                    	addq	%rdx, %rax
100009dbb: 48 89 c7                    	movq	%rax, %rdi
100009dbe: e8 5d fd ff ff              	callq	-675 <_ft_strlen>
100009dc3: 48 89 45 d0                 	movq	%rax, -48(%rbp)
100009dc7: 48 8b 45 e0                 	movq	-32(%rbp), %rax
100009dcb: 48 3b 45 d0                 	cmpq	-48(%rbp), %rax
100009dcf: 0f 86 08 00 00 00           	jbe	8 <_ft_substr+0x8d>
100009dd5: 48 8b 45 d0                 	movq	-48(%rbp), %rax
100009dd9: 48 89 45 e0                 	movq	%rax, -32(%rbp)
100009ddd: 48 8b 45 e0                 	movq	-32(%rbp), %rax
100009de1: 48 05 01 00 00 00           	addq	$1, %rax
100009de7: 48 89 c7                    	movq	%rax, %rdi
100009dea: be 01 00 00 00              	movl	$1, %esi
100009def: e8 0c f8 ff ff              	callq	-2036 <_ft_calloc>
100009df4: 48 89 45 d8                 	movq	%rax, -40(%rbp)
100009df8: 48 83 7d d8 00              	cmpq	$0, -40(%rbp)
100009dfd: 0f 84 1c 00 00 00           	je	28 <_ft_substr+0xcf>
100009e03: 48 8b 7d d8                 	movq	-40(%rbp), %rdi
100009e07: 48 8b 45 f0                 	movq	-16(%rbp), %rax
100009e0b: 8b 4d ec                    	movl	-20(%rbp), %ecx
100009e0e: 89 ca                       	movl	%ecx, %edx
100009e10: 48 01 d0                    	addq	%rdx, %rax
100009e13: 48 8b 55 e0                 	movq	-32(%rbp), %rdx
100009e17: 48 89 c6                    	movq	%rax, %rsi
100009e1a: e8 a1 f8 ff ff              	callq	-1887 <_ft_memcpy>
100009e1f: 48 8b 45 d8                 	movq	-40(%rbp), %rax
100009e23: 48 89 45 f8                 	movq	%rax, -8(%rbp)
100009e27: 48 8b 45 f8                 	movq	-8(%rbp), %rax
100009e2b: 48 83 c4 40                 	addq	$64, %rsp
100009e2f: 5d                          	popq	%rbp
100009e30: c3                          	retq
100009e31: 66 2e 0f 1f 84 00 00 00 00 00       	nopw	%cs:(%rax,%rax)
100009e3b: 0f 1f 44 00 00              	nopl	(%rax,%rax)

0000000100009e40 _ft_substr_skip_space:
100009e40: 55                          	pushq	%rbp
100009e41: 48 89 e5                    	movq	%rsp, %rbp
100009e44: 48 83 ec 40                 	subq	$64, %rsp
100009e48: 48 89 7d f0                 	movq	%rdi, -16(%rbp)
100009e4c: 89 75 ec                    	movl	%esi, -20(%rbp)
100009e4f: 48 89 55 e0                 	movq	%rdx, -32(%rbp)
100009e53: 48 83 7d f0 00              	cmpq	$0, -16(%rbp)
100009e58: 0f 85 0d 00 00 00           	jne	13 <_ft_substr_skip_space+0x2b>
100009e5e: 48 c7 45 f8 00 00 00 00     	movq	$0, -8(%rbp)
100009e66: e9 e7 00 00 00              	jmp	231 <_ft_substr_skip_space+0x112>
100009e6b: 8b 45 ec                    	movl	-20(%rbp), %eax
100009e6e: 89 c1                       	movl	%eax, %ecx
100009e70: 48 8b 7d f0                 	movq	-16(%rbp), %rdi
100009e74: 48 89 4d c8                 	movq	%rcx, -56(%rbp)
100009e78: e8 a3 fc ff ff              	callq	-861 <_ft_strlen>
100009e7d: 48 8b 4d c8                 	movq	-56(%rbp), %rcx
100009e81: 48 39 c1                    	cmpq	%rax, %rcx
100009e84: 0f 82 15 00 00 00           	jb	21 <_ft_substr_skip_space+0x5f>
100009e8a: 48 8d 3d 99 4b 00 00        	leaq	19353(%rip), %rdi
100009e91: e8 ea fb ff ff              	callq	-1046 <_ft_strdup>
100009e96: 48 89 45 f8                 	movq	%rax, -8(%rbp)
100009e9a: e9 b3 00 00 00              	jmp	179 <_ft_substr_skip_space+0x112>
100009e9f: e9 00 00 00 00              	jmp	0 <_ft_substr_skip_space+0x64>
100009ea4: 48 8b 45 f0                 	movq	-16(%rbp), %rax
100009ea8: 0f be 38                    	movsbl	(%rax), %edi
100009eab: e8 d0 f7 ff ff              	callq	-2096 <_ft_isspace>
100009eb0: 83 f8 00                    	cmpl	$0, %eax
100009eb3: 0f 84 21 00 00 00           	je	33 <_ft_substr_skip_space+0x9a>
100009eb9: 48 8b 45 f0                 	movq	-16(%rbp), %rax
100009ebd: 48 05 01 00 00 00           	addq	$1, %rax
100009ec3: 48 89 45 f0                 	movq	%rax, -16(%rbp)
100009ec7: 48 8b 45 e0                 	movq	-32(%rbp), %rax
100009ecb: 48 05 ff ff ff ff           	addq	$-1, %rax
100009ed1: 48 89 45 e0                 	movq	%rax, -32(%rbp)
100009ed5: e9 ca ff ff ff              	jmp	-54 <_ft_substr_skip_space+0x64>
100009eda: 48 8b 45 f0                 	movq	-16(%rbp), %rax
100009ede: 8b 4d ec                    	movl	-20(%rbp), %ecx
100009ee1: 89 ca                       	movl	%ecx, %edx
100009ee3: 48 01 d0                    	addq	%rdx, %rax
100009ee6: 48 89 c7                    	movq	%rax, %rdi
100009ee9: e8 32 fc ff ff              	callq	-974 <_ft_strlen>
100009eee: 48 89 45 d0                 	movq	%rax, -48(%rbp)
100009ef2: 48 8b 45 e0                 	movq	-32(%rbp), %rax
100009ef6: 48 3b 45 d0                 	cmpq	-48(%rbp), %rax
100009efa: 0f 86 08 00 00 00           	jbe	8 <_ft_substr_skip_space+0xc8>
100009f00: 48 8b 45 d0                 	movq	-48(%rbp), %rax
100009f04: 48 89 45 e0                 	movq	%rax, -32(%rbp)
100009f08: 48 8b 45 e0                 	movq	-32(%rbp), %rax
100009f0c: 48 05 01 00 00 00           	addq	$1, %rax
100009f12: 48 89 c7                    	movq	%rax, %rdi
100009f15: be 01 00 00 00              	movl	$1, %esi
100009f1a: e8 e1 f6 ff ff              	callq	-2335 <_ft_calloc>
100009f1f: 48 89 45 d8                 	movq	%rax, -40(%rbp)
100009f23: 48 83 7d d8 00              	cmpq	$0, -40(%rbp)
100009f28: 0f 84 1c 00 00 00           	je	28 <_ft_substr_skip_space+0x10a>
100009f2e: 48 8b 7d d8                 	movq	-40(%rbp), %rdi
100009f32: 48 8b 45 f0                 	movq	-16(%rbp), %rax
100009f36: 8b 4d ec                    	movl	-20(%rbp), %ecx
100009f39: 89 ca                       	movl	%ecx, %edx
100009f3b: 48 01 d0                    	addq	%rdx, %rax
100009f3e: 48 8b 55 e0                 	movq	-32(%rbp), %rdx
100009f42: 48 89 c6                    	movq	%rax, %rsi
100009f45: e8 76 f7 ff ff              	callq	-2186 <_ft_memcpy>
100009f4a: 48 8b 45 d8                 	movq	-40(%rbp), %rax
100009f4e: 48 89 45 f8                 	movq	%rax, -8(%rbp)
100009f52: 48 8b 45 f8                 	movq	-8(%rbp), %rax
100009f56: 48 83 c4 40                 	addq	$64, %rsp
100009f5a: 5d                          	popq	%rbp
100009f5b: c3                          	retq
100009f5c: 90                          	nop
100009f5d: 90                          	nop
100009f5e: 90                          	nop
100009f5f: 90                          	nop

0000000100009f60 _get_next_line:
100009f60: 55                          	pushq	%rbp
100009f61: 48 89 e5                    	movq	%rsp, %rbp
100009f64: 48 83 ec 30                 	subq	$48, %rsp
100009f68: 89 7d f4                    	movl	%edi, -12(%rbp)
100009f6b: 48 c7 45 e8 00 00 00 00     	movq	$0, -24(%rbp)
100009f73: 83 7d f4 00                 	cmpl	$0, -12(%rbp)
100009f77: 0f 8d 0d 00 00 00           	jge	13 <_get_next_line+0x2a>
100009f7d: 48 8b 45 e8                 	movq	-24(%rbp), %rax
100009f81: 48 89 45 f8                 	movq	%rax, -8(%rbp)
100009f85: e9 98 00 00 00              	jmp	152 <_get_next_line+0xc2>
100009f8a: c7 45 dc 00 00 00 00        	movl	$0, -36(%rbp)
100009f91: 8b 7d f4                    	movl	-12(%rbp), %edi
100009f94: e8 97 00 00 00              	callq	151 <_ft_read>
100009f99: 48 89 45 e8                 	movq	%rax, -24(%rbp)
100009f9d: 48 83 3d fb 5c 02 00 00     	cmpq	$0, 154875(%rip)
100009fa5: 0f 84 30 00 00 00           	je	48 <_get_next_line+0x7b>
100009fab: 48 8b 3d ee 5c 02 00        	movq	154862(%rip), %rdi
100009fb2: 48 8b 75 e8                 	movq	-24(%rbp), %rsi
100009fb6: e8 c5 04 00 00              	callq	1221 <_ft_strfreejoin>
100009fbb: 48 89 45 e0                 	movq	%rax, -32(%rbp)
100009fbf: 48 8b 7d e8                 	movq	-24(%rbp), %rdi
100009fc3: e8 6a 42 00 00              	callq	17002 <dyld_stub_binder+0x10000e232>
100009fc8: 48 8b 45 e0                 	movq	-32(%rbp), %rax
100009fcc: 48 89 45 e8                 	movq	%rax, -24(%rbp)
100009fd0: 48 c7 05 c5 5c 02 00 00 00 00 00    	movq	$0, 154821(%rip)
100009fdb: 48 83 7d e8 00              	cmpq	$0, -24(%rbp)
100009fe0: 0f 84 34 00 00 00           	je	52 <_get_next_line+0xba>
100009fe6: 48 8b 7d e8                 	movq	-24(%rbp), %rdi
100009fea: be 0a 00 00 00              	movl	$10, %esi
100009fef: e8 0c 04 00 00              	callq	1036 <_ft_memchr_ind>
100009ff4: 83 f8 ff                    	cmpl	$-1, %eax
100009ff7: 0f 84 1d 00 00 00           	je	29 <_get_next_line+0xba>
100009ffd: 48 8b 7d e8                 	movq	-24(%rbp), %rdi
10000a001: e8 4a 01 00 00              	callq	330 <_ft_hold>
10000a006: 48 89 05 93 5c 02 00        	movq	%rax, 154771(%rip)
10000a00d: 48 8b 7d e8                 	movq	-24(%rbp), %rdi
10000a011: e8 da 02 00 00              	callq	730 <_ft_line>
10000a016: 48 89 45 e8                 	movq	%rax, -24(%rbp)
10000a01a: 48 8b 45 e8                 	movq	-24(%rbp), %rax
10000a01e: 48 89 45 f8                 	movq	%rax, -8(%rbp)
10000a022: 48 8b 45 f8                 	movq	-8(%rbp), %rax
10000a026: 48 83 c4 30                 	addq	$48, %rsp
10000a02a: 5d                          	popq	%rbp
10000a02b: c3                          	retq
10000a02c: 0f 1f 40 00                 	nopl	(%rax)

000000010000a030 _ft_read:
10000a030: 55                          	pushq	%rbp
10000a031: 48 89 e5                    	movq	%rsp, %rbp
10000a034: 48 83 ec 30                 	subq	$48, %rsp
10000a038: 89 7d f4                    	movl	%edi, -12(%rbp)
10000a03b: 48 c7 45 e8 00 00 00 00     	movq	$0, -24(%rbp)
10000a043: bf 2b 00 00 00              	movl	$43, %edi
10000a048: e8 e7 42 00 00              	callq	17127 <dyld_stub_binder+0x10000e334>
10000a04d: 48 89 45 e0                 	movq	%rax, -32(%rbp)
10000a051: 48 83 7d e0 00              	cmpq	$0, -32(%rbp)
10000a056: 0f 85 0d 00 00 00           	jne	13 <_ft_read+0x39>
10000a05c: 48 c7 45 f8 00 00 00 00     	movq	$0, -8(%rbp)
10000a064: e9 d4 00 00 00              	jmp	212 <_ft_read+0x10d>
10000a069: c7 45 dc 01 00 00 00        	movl	$1, -36(%rbp)
10000a070: 48 8b 7d e8                 	movq	-24(%rbp), %rdi
10000a074: be 0a 00 00 00              	movl	$10, %esi
10000a079: e8 82 03 00 00              	callq	898 <_ft_memchr_ind>
10000a07e: 31 c9                       	xorl	%ecx, %ecx
10000a080: 83 f8 ff                    	cmpl	$-1, %eax
10000a083: 88 4d db                    	movb	%cl, -37(%rbp)
10000a086: 0f 85 0a 00 00 00           	jne	10 <_ft_read+0x66>
10000a08c: 83 7d dc 00                 	cmpl	$0, -36(%rbp)
10000a090: 0f 95 c0                    	setne	%al
10000a093: 88 45 db                    	movb	%al, -37(%rbp)
10000a096: 8a 45 db                    	movb	-37(%rbp), %al
10000a099: a8 01                       	testb	$1, %al
10000a09b: 0f 85 05 00 00 00           	jne	5 <_ft_read+0x76>
10000a0a1: e9 86 00 00 00              	jmp	134 <_ft_read+0xfc>
10000a0a6: 8b 7d f4                    	movl	-12(%rbp), %edi
10000a0a9: 48 8b 75 e0                 	movq	-32(%rbp), %rsi
10000a0ad: ba 2a 00 00 00              	movl	$42, %edx
10000a0b2: e8 d1 42 00 00              	callq	17105 <dyld_stub_binder+0x10000e388>
10000a0b7: 89 45 dc                    	movl	%eax, -36(%rbp)
10000a0ba: 83 7d dc 00                 	cmpl	$0, -36(%rbp)
10000a0be: 0f 8d 16 00 00 00           	jge	22 <_ft_read+0xaa>
10000a0c4: 48 8b 7d e0                 	movq	-32(%rbp), %rdi
10000a0c8: e8 65 41 00 00              	callq	16741 <dyld_stub_binder+0x10000e232>
10000a0cd: 48 c7 45 f8 00 00 00 00     	movq	$0, -8(%rbp)
10000a0d5: e9 63 00 00 00              	jmp	99 <_ft_read+0x10d>
10000a0da: 48 8b 45 e0                 	movq	-32(%rbp), %rax
10000a0de: 48 63 4d dc                 	movslq	-36(%rbp), %rcx
10000a0e2: c6 04 08 00                 	movb	$0, (%rax,%rcx)
10000a0e6: 83 7d dc 00                 	cmpl	$0, -36(%rbp)
10000a0ea: 0f 84 37 00 00 00           	je	55 <_ft_read+0xf7>
10000a0f0: 48 8b 7d e8                 	movq	-24(%rbp), %rdi
10000a0f4: 48 8b 75 e0                 	movq	-32(%rbp), %rsi
10000a0f8: e8 83 03 00 00              	callq	899 <_ft_strfreejoin>
10000a0fd: 48 89 45 e8                 	movq	%rax, -24(%rbp)
10000a101: 48 83 7d e8 00              	cmpq	$0, -24(%rbp)
10000a106: 0f 85 16 00 00 00           	jne	22 <_ft_read+0xf2>
10000a10c: 48 8b 7d e0                 	movq	-32(%rbp), %rdi
10000a110: e8 1d 41 00 00              	callq	16669 <dyld_stub_binder+0x10000e232>
10000a115: 48 c7 45 f8 00 00 00 00     	movq	$0, -8(%rbp)
10000a11d: e9 1b 00 00 00              	jmp	27 <_ft_read+0x10d>
10000a122: e9 00 00 00 00              	jmp	0 <_ft_read+0xf7>
10000a127: e9 44 ff ff ff              	jmp	-188 <_ft_read+0x40>
10000a12c: 48 8b 7d e0                 	movq	-32(%rbp), %rdi
10000a130: e8 fd 40 00 00              	callq	16637 <dyld_stub_binder+0x10000e232>
10000a135: 48 8b 45 e8                 	movq	-24(%rbp), %rax
10000a139: 48 89 45 f8                 	movq	%rax, -8(%rbp)
10000a13d: 48 8b 45 f8                 	movq	-8(%rbp), %rax
10000a141: 48 83 c4 30                 	addq	$48, %rsp
10000a145: 5d                          	popq	%rbp
10000a146: c3                          	retq
10000a147: 66 0f 1f 84 00 00 00 00 00  	nopw	(%rax,%rax)

000000010000a150 _ft_hold:
10000a150: 55                          	pushq	%rbp
10000a151: 48 89 e5                    	movq	%rsp, %rbp
10000a154: 48 83 ec 30                 	subq	$48, %rsp
10000a158: 48 89 7d f0                 	movq	%rdi, -16(%rbp)
10000a15c: 48 c7 45 e0 ff ff ff ff     	movq	$-1, -32(%rbp)
10000a164: 48 c7 45 e8 00 00 00 00     	movq	$0, -24(%rbp)
10000a16c: 31 c0                       	xorl	%eax, %eax
10000a16e: 48 83 7d f0 00              	cmpq	$0, -16(%rbp)
10000a173: 88 45 db                    	movb	%al, -37(%rbp)
10000a176: 0f 84 26 00 00 00           	je	38 <_ft_hold+0x52>
10000a17c: 48 8b 45 f0                 	movq	-16(%rbp), %rax
10000a180: 48 8b 4d e0                 	movq	-32(%rbp), %rcx
10000a184: 48 89 ca                    	movq	%rcx, %rdx
10000a187: 48 81 c2 01 00 00 00        	addq	$1, %rdx
10000a18e: 48 89 55 e0                 	movq	%rdx, -32(%rbp)
10000a192: 0f be 74 08 01              	movsbl	1(%rax,%rcx), %esi
10000a197: 83 fe 00                    	cmpl	$0, %esi
10000a19a: 40 0f 95 c7                 	setne	%dil
10000a19e: 40 88 7d db                 	movb	%dil, -37(%rbp)
10000a1a2: 8a 45 db                    	movb	-37(%rbp), %al
10000a1a5: a8 01                       	testb	$1, %al
10000a1a7: 0f 85 05 00 00 00           	jne	5 <_ft_hold+0x62>
10000a1ad: e9 1f 00 00 00              	jmp	31 <_ft_hold+0x81>
10000a1b2: 48 8b 45 f0                 	movq	-16(%rbp), %rax
10000a1b6: 48 8b 4d e0                 	movq	-32(%rbp), %rcx
10000a1ba: 0f be 14 08                 	movsbl	(%rax,%rcx), %edx
10000a1be: 83 fa 0a                    	cmpl	$10, %edx
10000a1c1: 0f 85 05 00 00 00           	jne	5 <_ft_hold+0x7c>
10000a1c7: e9 05 00 00 00              	jmp	5 <_ft_hold+0x81>
10000a1cc: e9 9b ff ff ff              	jmp	-101 <_ft_hold+0x1c>
10000a1d1: 48 83 7d f0 00              	cmpq	$0, -16(%rbp)
10000a1d6: 0f 84 f9 00 00 00           	je	249 <_ft_hold+0x185>
10000a1dc: 48 8b 45 f0                 	movq	-16(%rbp), %rax
10000a1e0: 48 8b 4d e0                 	movq	-32(%rbp), %rcx
10000a1e4: 0f be 14 08                 	movsbl	(%rax,%rcx), %edx
10000a1e8: 83 fa 0a                    	cmpl	$10, %edx
10000a1eb: 0f 85 e4 00 00 00           	jne	228 <_ft_hold+0x185>
10000a1f1: 48 8b 45 f0                 	movq	-16(%rbp), %rax
10000a1f5: 48 8b 4d e0                 	movq	-32(%rbp), %rcx
10000a1f9: 0f be 54 08 01              	movsbl	1(%rax,%rcx), %edx
10000a1fe: 83 fa 00                    	cmpl	$0, %edx
10000a201: 0f 84 ce 00 00 00           	je	206 <_ft_hold+0x185>
10000a207: c7 45 dc 00 00 00 00        	movl	$0, -36(%rbp)
10000a20e: 48 8b 7d f0                 	movq	-16(%rbp), %rdi
10000a212: e8 09 f9 ff ff              	callq	-1783 <_ft_strlen>
10000a217: 48 2b 45 e0                 	subq	-32(%rbp), %rax
10000a21b: 48 05 02 00 00 00           	addq	$2, %rax
10000a221: 48 c1 e0 00                 	shlq	$0, %rax
10000a225: 48 89 c7                    	movq	%rax, %rdi
10000a228: e8 07 41 00 00              	callq	16647 <dyld_stub_binder+0x10000e334>
10000a22d: 48 89 45 e8                 	movq	%rax, -24(%rbp)
10000a231: 48 83 7d e8 00              	cmpq	$0, -24(%rbp)
10000a236: 0f 85 0d 00 00 00           	jne	13 <_ft_hold+0xf9>
10000a23c: 48 c7 45 f8 00 00 00 00     	movq	$0, -8(%rbp)
10000a244: e9 94 00 00 00              	jmp	148 <_ft_hold+0x18d>
10000a249: e9 00 00 00 00              	jmp	0 <_ft_hold+0xfe>
10000a24e: 31 c0                       	xorl	%eax, %eax
10000a250: 48 8b 4d f0                 	movq	-16(%rbp), %rcx
10000a254: 48 8b 55 e0                 	movq	-32(%rbp), %rdx
10000a258: 0f be 34 11                 	movsbl	(%rcx,%rdx), %esi
10000a25c: 83 fe 00                    	cmpl	$0, %esi
10000a25f: 88 45 da                    	movb	%al, -38(%rbp)
10000a262: 0f 84 2c 00 00 00           	je	44 <_ft_hold+0x144>
10000a268: 48 8b 45 e0                 	movq	-32(%rbp), %rax
10000a26c: 48 89 c1                    	movq	%rax, %rcx
10000a26f: 48 81 c1 01 00 00 00        	addq	$1, %rcx
10000a276: 48 89 4d e0                 	movq	%rcx, -32(%rbp)
10000a27a: 48 8b 7d f0                 	movq	-16(%rbp), %rdi
10000a27e: 48 89 45 d0                 	movq	%rax, -48(%rbp)
10000a282: e8 99 f8 ff ff              	callq	-1895 <_ft_strlen>
10000a287: 48 8b 4d d0                 	movq	-48(%rbp), %rcx
10000a28b: 48 39 c1                    	cmpq	%rax, %rcx
10000a28e: 0f 92 c2                    	setb	%dl
10000a291: 88 55 da                    	movb	%dl, -38(%rbp)
10000a294: 8a 45 da                    	movb	-38(%rbp), %al
10000a297: a8 01                       	testb	$1, %al
10000a299: 0f 85 05 00 00 00           	jne	5 <_ft_hold+0x154>
10000a29f: e9 25 00 00 00              	jmp	37 <_ft_hold+0x179>
10000a2a4: 48 8b 45 f0                 	movq	-16(%rbp), %rax
10000a2a8: 48 8b 4d e0                 	movq	-32(%rbp), %rcx
10000a2ac: 8a 14 08                    	movb	(%rax,%rcx), %dl
10000a2af: 48 8b 45 e8                 	movq	-24(%rbp), %rax
10000a2b3: 8b 75 dc                    	movl	-36(%rbp), %esi
10000a2b6: 89 f7                       	movl	%esi, %edi
10000a2b8: 83 c7 01                    	addl	$1, %edi
10000a2bb: 89 7d dc                    	movl	%edi, -36(%rbp)
10000a2be: 48 63 ce                    	movslq	%esi, %rcx
10000a2c1: 88 14 08                    	movb	%dl, (%rax,%rcx)
10000a2c4: e9 85 ff ff ff              	jmp	-123 <_ft_hold+0xfe>
10000a2c9: 48 8b 45 e8                 	movq	-24(%rbp), %rax
10000a2cd: 48 63 4d dc                 	movslq	-36(%rbp), %rcx
10000a2d1: c6 04 08 00                 	movb	$0, (%rax,%rcx)
10000a2d5: 48 8b 45 e8                 	movq	-24(%rbp), %rax
10000a2d9: 48 89 45 f8                 	movq	%rax, -8(%rbp)
10000a2dd: 48 8b 45 f8                 	movq	-8(%rbp), %rax
10000a2e1: 48 83 c4 30                 	addq	$48, %rsp
10000a2e5: 5d                          	popq	%rbp
10000a2e6: c3                          	retq
10000a2e7: 66 0f 1f 84 00 00 00 00 00  	nopw	(%rax,%rax)

000000010000a2f0 _ft_line:
10000a2f0: 55                          	pushq	%rbp
10000a2f1: 48 89 e5                    	movq	%rsp, %rbp
10000a2f4: 48 83 ec 20                 	subq	$32, %rsp
10000a2f8: 48 89 7d f0                 	movq	%rdi, -16(%rbp)
10000a2fc: c7 45 e4 ff ff ff ff        	movl	$4294967295, -28(%rbp)
10000a303: 48 8b 45 f0                 	movq	-16(%rbp), %rax
10000a307: 8b 4d e4                    	movl	-28(%rbp), %ecx
10000a30a: 83 c1 01                    	addl	$1, %ecx
10000a30d: 89 4d e4                    	movl	%ecx, -28(%rbp)
10000a310: 48 63 d1                    	movslq	%ecx, %rdx
10000a313: 80 3c 10 00                 	cmpb	$0, (%rax,%rdx)
10000a317: 0f 84 1f 00 00 00           	je	31 <_ft_line+0x4c>
10000a31d: 48 8b 45 f0                 	movq	-16(%rbp), %rax
10000a321: 48 63 4d e4                 	movslq	-28(%rbp), %rcx
10000a325: 0f be 14 08                 	movsbl	(%rax,%rcx), %edx
10000a329: 83 fa 0a                    	cmpl	$10, %edx
10000a32c: 0f 85 05 00 00 00           	jne	5 <_ft_line+0x47>
10000a332: e9 05 00 00 00              	jmp	5 <_ft_line+0x4c>
10000a337: e9 c7 ff ff ff              	jmp	-57 <_ft_line+0x13>
10000a33c: 48 8b 45 f0                 	movq	-16(%rbp), %rax
10000a340: 48 63 4d e4                 	movslq	-28(%rbp), %rcx
10000a344: 0f be 14 08                 	movsbl	(%rax,%rcx), %edx
10000a348: 83 fa 0a                    	cmpl	$10, %edx
10000a34b: 0f 85 95 00 00 00           	jne	149 <_ft_line+0xf6>
10000a351: 48 8b 45 f0                 	movq	-16(%rbp), %rax
10000a355: 8b 4d e4                    	movl	-28(%rbp), %ecx
10000a358: 83 c1 01                    	addl	$1, %ecx
10000a35b: 48 63 d1                    	movslq	%ecx, %rdx
10000a35e: 0f be 0c 10                 	movsbl	(%rax,%rdx), %ecx
10000a362: 83 f9 00                    	cmpl	$0, %ecx
10000a365: 0f 84 7b 00 00 00           	je	123 <_ft_line+0xf6>
10000a36b: 8b 45 e4                    	movl	-28(%rbp), %eax
10000a36e: 83 c0 02                    	addl	$2, %eax
10000a371: 48 63 f8                    	movslq	%eax, %rdi
10000a374: e8 bb 3f 00 00              	callq	16315 <dyld_stub_binder+0x10000e334>
10000a379: 48 89 45 e8                 	movq	%rax, -24(%rbp)
10000a37d: 48 83 7d e8 00              	cmpq	$0, -24(%rbp)
10000a382: 0f 85 0d 00 00 00           	jne	13 <_ft_line+0xa5>
10000a388: 48 c7 45 f8 00 00 00 00     	movq	$0, -8(%rbp)
10000a390: e9 59 00 00 00              	jmp	89 <_ft_line+0xfe>
10000a395: c7 45 e0 ff ff ff ff        	movl	$4294967295, -32(%rbp)
10000a39c: 8b 45 e0                    	movl	-32(%rbp), %eax
10000a39f: 83 c0 01                    	addl	$1, %eax
10000a3a2: 89 45 e0                    	movl	%eax, -32(%rbp)
10000a3a5: 3b 45 e4                    	cmpl	-28(%rbp), %eax
10000a3a8: 0f 8f 1b 00 00 00           	jg	27 <_ft_line+0xd9>
10000a3ae: 48 8b 45 f0                 	movq	-16(%rbp), %rax
10000a3b2: 48 63 4d e0                 	movslq	-32(%rbp), %rcx
10000a3b6: 8a 14 08                    	movb	(%rax,%rcx), %dl
10000a3b9: 48 8b 45 e8                 	movq	-24(%rbp), %rax
10000a3bd: 48 63 4d e0                 	movslq	-32(%rbp), %rcx
10000a3c1: 88 14 08                    	movb	%dl, (%rax,%rcx)
10000a3c4: e9 d3 ff ff ff              	jmp	-45 <_ft_line+0xac>
10000a3c9: 48 8b 45 e8                 	movq	-24(%rbp), %rax
10000a3cd: 48 63 4d e0                 	movslq	-32(%rbp), %rcx
10000a3d1: c6 04 08 00                 	movb	$0, (%rax,%rcx)
10000a3d5: 48 8b 7d f0                 	movq	-16(%rbp), %rdi
10000a3d9: e8 54 3e 00 00              	callq	15956 <dyld_stub_binder+0x10000e232>
10000a3de: 48 8b 45 e8                 	movq	-24(%rbp), %rax
10000a3e2: 48 89 45 f0                 	movq	%rax, -16(%rbp)
10000a3e6: 48 8b 45 f0                 	movq	-16(%rbp), %rax
10000a3ea: 48 89 45 f8                 	movq	%rax, -8(%rbp)
10000a3ee: 48 8b 45 f8                 	movq	-8(%rbp), %rax
10000a3f2: 48 83 c4 20                 	addq	$32, %rsp
10000a3f6: 5d                          	popq	%rbp
10000a3f7: c3                          	retq
10000a3f8: 90                          	nop
10000a3f9: 90                          	nop
10000a3fa: 90                          	nop
10000a3fb: 90                          	nop
10000a3fc: 90                          	nop
10000a3fd: 90                          	nop
10000a3fe: 90                          	nop
10000a3ff: 90                          	nop

000000010000a400 _ft_memchr_ind:
10000a400: 55                          	pushq	%rbp
10000a401: 48 89 e5                    	movq	%rsp, %rbp
10000a404: 48 89 7d f0                 	movq	%rdi, -16(%rbp)
10000a408: 40 88 75 ef                 	movb	%sil, -17(%rbp)
10000a40c: 48 83 7d f0 00              	cmpq	$0, -16(%rbp)
10000a411: 0f 85 0c 00 00 00           	jne	12 <_ft_memchr_ind+0x23>
10000a417: c7 45 fc ff ff ff ff        	movl	$4294967295, -4(%rbp)
10000a41e: e9 51 00 00 00              	jmp	81 <_ft_memchr_ind+0x74>
10000a423: c7 45 e8 00 00 00 00        	movl	$0, -24(%rbp)
10000a42a: 48 8b 45 f0                 	movq	-16(%rbp), %rax
10000a42e: 48 63 4d e8                 	movslq	-24(%rbp), %rcx
10000a432: 80 3c 08 00                 	cmpb	$0, (%rax,%rcx)
10000a436: 0f 84 31 00 00 00           	je	49 <_ft_memchr_ind+0x6d>
10000a43c: 48 8b 45 f0                 	movq	-16(%rbp), %rax
10000a440: 48 63 4d e8                 	movslq	-24(%rbp), %rcx
10000a444: 0f be 14 08                 	movsbl	(%rax,%rcx), %edx
10000a448: 0f be 75 ef                 	movsbl	-17(%rbp), %esi
10000a44c: 39 f2                       	cmpl	%esi, %edx
10000a44e: 0f 85 0b 00 00 00           	jne	11 <_ft_memchr_ind+0x5f>
10000a454: 8b 45 e8                    	movl	-24(%rbp), %eax
10000a457: 89 45 fc                    	movl	%eax, -4(%rbp)
10000a45a: e9 15 00 00 00              	jmp	21 <_ft_memchr_ind+0x74>
10000a45f: 8b 45 e8                    	movl	-24(%rbp), %eax
10000a462: 83 c0 01                    	addl	$1, %eax
10000a465: 89 45 e8                    	movl	%eax, -24(%rbp)
10000a468: e9 bd ff ff ff              	jmp	-67 <_ft_memchr_ind+0x2a>
10000a46d: c7 45 fc ff ff ff ff        	movl	$4294967295, -4(%rbp)
10000a474: 8b 45 fc                    	movl	-4(%rbp), %eax
10000a477: 5d                          	popq	%rbp
10000a478: c3                          	retq
10000a479: 0f 1f 80 00 00 00 00        	nopl	(%rax)

000000010000a480 _ft_strfreejoin:
10000a480: 55                          	pushq	%rbp
10000a481: 48 89 e5                    	movq	%rsp, %rbp
10000a484: 48 83 ec 30                 	subq	$48, %rsp
10000a488: 48 89 7d f0                 	movq	%rdi, -16(%rbp)
10000a48c: 48 89 75 e8                 	movq	%rsi, -24(%rbp)
10000a490: c7 45 d4 ff ff ff ff        	movl	$4294967295, -44(%rbp)
10000a497: 48 83 7d f0 00              	cmpq	$0, -16(%rbp)
10000a49c: 0f 85 2d 00 00 00           	jne	45 <_ft_strfreejoin+0x4f>
10000a4a2: 48 8d 3d 81 45 00 00        	leaq	17793(%rip), %rdi
10000a4a9: e8 d2 f5 ff ff              	callq	-2606 <_ft_strdup>
10000a4ae: 48 89 45 f0                 	movq	%rax, -16(%rbp)
10000a4b2: 48 83 7d f0 00              	cmpq	$0, -16(%rbp)
10000a4b7: 0f 85 0d 00 00 00           	jne	13 <_ft_strfreejoin+0x4a>
10000a4bd: 48 c7 45 f8 00 00 00 00     	movq	$0, -8(%rbp)
10000a4c5: e9 e6 00 00 00              	jmp	230 <_ft_strfreejoin+0x130>
10000a4ca: e9 00 00 00 00              	jmp	0 <_ft_strfreejoin+0x4f>
10000a4cf: 48 8b 7d f0                 	movq	-16(%rbp), %rdi
10000a4d3: e8 48 f6 ff ff              	callq	-2488 <_ft_strlen>
10000a4d8: 89 45 dc                    	movl	%eax, -36(%rbp)
10000a4db: 48 8b 7d e8                 	movq	-24(%rbp), %rdi
10000a4df: e8 3c f6 ff ff              	callq	-2500 <_ft_strlen>
10000a4e4: 89 45 d8                    	movl	%eax, -40(%rbp)
10000a4e7: 8b 45 dc                    	movl	-36(%rbp), %eax
10000a4ea: 03 45 d8                    	addl	-40(%rbp), %eax
10000a4ed: 83 c0 01                    	addl	$1, %eax
10000a4f0: 48 63 c8                    	movslq	%eax, %rcx
10000a4f3: 48 c1 e1 00                 	shlq	$0, %rcx
10000a4f7: 48 89 cf                    	movq	%rcx, %rdi
10000a4fa: e8 35 3e 00 00              	callq	15925 <dyld_stub_binder+0x10000e334>
10000a4ff: 48 89 45 e0                 	movq	%rax, -32(%rbp)
10000a503: 48 83 7d e0 00              	cmpq	$0, -32(%rbp)
10000a508: 0f 85 0d 00 00 00           	jne	13 <_ft_strfreejoin+0x9b>
10000a50e: 48 c7 45 f8 00 00 00 00     	movq	$0, -8(%rbp)
10000a516: e9 95 00 00 00              	jmp	149 <_ft_strfreejoin+0x130>
10000a51b: e9 00 00 00 00              	jmp	0 <_ft_strfreejoin+0xa0>
10000a520: 8b 45 d4                    	movl	-44(%rbp), %eax
10000a523: 83 c0 01                    	addl	$1, %eax
10000a526: 89 45 d4                    	movl	%eax, -44(%rbp)
10000a529: 3b 45 dc                    	cmpl	-36(%rbp), %eax
10000a52c: 0f 8d 1b 00 00 00           	jge	27 <_ft_strfreejoin+0xcd>
10000a532: 48 8b 45 f0                 	movq	-16(%rbp), %rax
10000a536: 48 63 4d d4                 	movslq	-44(%rbp), %rcx
10000a53a: 8a 14 08                    	movb	(%rax,%rcx), %dl
10000a53d: 48 8b 45 e0                 	movq	-32(%rbp), %rax
10000a541: 48 63 4d d4                 	movslq	-44(%rbp), %rcx
10000a545: 88 14 08                    	movb	%dl, (%rax,%rcx)
10000a548: e9 d3 ff ff ff              	jmp	-45 <_ft_strfreejoin+0xa0>
10000a54d: c7 45 d4 ff ff ff ff        	movl	$4294967295, -44(%rbp)
10000a554: 8b 45 d4                    	movl	-44(%rbp), %eax
10000a557: 83 c0 01                    	addl	$1, %eax
10000a55a: 89 45 d4                    	movl	%eax, -44(%rbp)
10000a55d: 03 45 dc                    	addl	-36(%rbp), %eax
10000a560: 8b 4d d8                    	movl	-40(%rbp), %ecx
10000a563: 03 4d dc                    	addl	-36(%rbp), %ecx
10000a566: 39 c8                       	cmpl	%ecx, %eax
10000a568: 0f 8d 20 00 00 00           	jge	32 <_ft_strfreejoin+0x10e>
10000a56e: 48 8b 45 e8                 	movq	-24(%rbp), %rax
10000a572: 48 63 4d d4                 	movslq	-44(%rbp), %rcx
10000a576: 8a 14 08                    	movb	(%rax,%rcx), %dl
10000a579: 48 8b 45 e0                 	movq	-32(%rbp), %rax
10000a57d: 8b 75 dc                    	movl	-36(%rbp), %esi
10000a580: 03 75 d4                    	addl	-44(%rbp), %esi
10000a583: 48 63 ce                    	movslq	%esi, %rcx
10000a586: 88 14 08                    	movb	%dl, (%rax,%rcx)
10000a589: e9 c6 ff ff ff              	jmp	-58 <_ft_strfreejoin+0xd4>
10000a58e: 48 8b 45 e0                 	movq	-32(%rbp), %rax
10000a592: 8b 4d dc                    	movl	-36(%rbp), %ecx
10000a595: 03 4d d8                    	addl	-40(%rbp), %ecx
10000a598: 48 63 d1                    	movslq	%ecx, %rdx
10000a59b: c6 04 10 00                 	movb	$0, (%rax,%rdx)
10000a59f: 48 8b 7d f0                 	movq	-16(%rbp), %rdi
10000a5a3: e8 8a 3c 00 00              	callq	15498 <dyld_stub_binder+0x10000e232>
10000a5a8: 48 8b 45 e0                 	movq	-32(%rbp), %rax
10000a5ac: 48 89 45 f8                 	movq	%rax, -8(%rbp)
10000a5b0: 48 8b 45 f8                 	movq	-8(%rbp), %rax
10000a5b4: 48 83 c4 30                 	addq	$48, %rsp
10000a5b8: 5d                          	popq	%rbp
10000a5b9: c3                          	retq
10000a5ba: 90                          	nop
10000a5bb: 90                          	nop
10000a5bc: 90                          	nop
10000a5bd: 90                          	nop
10000a5be: 90                          	nop
10000a5bf: 90                          	nop

000000010000a5c0 _display_log:
10000a5c0: 55                          	pushq	%rbp
10000a5c1: 48 89 e5                    	movq	%rsp, %rbp
10000a5c4: 41 57                       	pushq	%r15
10000a5c6: 41 56                       	pushq	%r14
10000a5c8: 41 54                       	pushq	%r12
10000a5ca: 53                          	pushq	%rbx
10000a5cb: 48 83 ec 10                 	subq	$16, %rsp
10000a5cf: 49 89 d6                    	movq	%rdx, %r14
10000a5d2: 48 89 f1                    	movq	%rsi, %rcx
10000a5d5: 41 89 ff                    	movl	%edi, %r15d
10000a5d8: 48 8d 55 dc                 	leaq	-36(%rbp), %rdx
10000a5dc: be 84 8b 00 00              	movl	$35716, %esi
10000a5e1: 31 c0                       	xorl	%eax, %eax
10000a5e3: ff d1                       	callq	*%rcx
10000a5e5: 8b 45 dc                    	movl	-36(%rbp), %eax
10000a5e8: 4c 63 e0                    	movslq	%eax, %r12
10000a5eb: 4c 89 e7                    	movq	%r12, %rdi
10000a5ee: e8 41 3d 00 00              	callq	15681 <dyld_stub_binder+0x10000e334>
10000a5f3: 48 89 c3                    	movq	%rax, %rbx
10000a5f6: 31 d2                       	xorl	%edx, %edx
10000a5f8: 31 c0                       	xorl	%eax, %eax
10000a5fa: 44 89 ff                    	movl	%r15d, %edi
10000a5fd: 44 89 e6                    	movl	%r12d, %esi
10000a600: 48 89 d9                    	movq	%rbx, %rcx
10000a603: 41 ff d6                    	callq	*%r14
10000a606: 48 8b 05 0b da 01 00        	movq	121355(%rip), %rax
10000a60d: 48 8b 30                    	movq	(%rax), %rsi
10000a610: 48 89 df                    	movq	%rbx, %rdi
10000a613: e8 14 3c 00 00              	callq	15380 <dyld_stub_binder+0x10000e22c>
10000a618: 48 89 df                    	movq	%rbx, %rdi
10000a61b: e8 12 3c 00 00              	callq	15378 <dyld_stub_binder+0x10000e232>
10000a620: 48 83 c4 10                 	addq	$16, %rsp
10000a624: 5b                          	popq	%rbx
10000a625: 41 5c                       	popq	%r12
10000a627: 41 5e                       	popq	%r14
10000a629: 41 5f                       	popq	%r15
10000a62b: 5d                          	popq	%rbp
10000a62c: c3                          	retq
10000a62d: 0f 1f 00                    	nopl	(%rax)

000000010000a630 _mlx_shaders_pixel:
10000a630: 55                          	pushq	%rbp
10000a631: 48 89 e5                    	movq	%rsp, %rbp
10000a634: 41 57                       	pushq	%r15
10000a636: 41 56                       	pushq	%r14
10000a638: 41 55                       	pushq	%r13
10000a63a: 41 54                       	pushq	%r12
10000a63c: 53                          	pushq	%rbx
10000a63d: 48 83 ec 18                 	subq	$24, %rsp
10000a641: 48 89 fb                    	movq	%rdi, %rbx
10000a644: bf 31 8b 00 00              	movl	$35633, %edi
10000a649: e8 32 3c 00 00              	callq	15410 <dyld_stub_binder+0x10000e280>
10000a64e: 89 03                       	movl	%eax, (%rbx)
10000a650: 48 8d 3d 75 45 00 00        	leaq	17781(%rip), %rdi
10000a657: e8 44 3d 00 00              	callq	15684 <dyld_stub_binder+0x10000e3a0>
10000a65c: 48 89 45 c8                 	movq	%rax, -56(%rbp)
10000a660: 48 89 c7                    	movq	%rax, %rdi
10000a663: e8 3e 3d 00 00              	callq	15678 <dyld_stub_binder+0x10000e3a6>
10000a668: 89 45 c4                    	movl	%eax, -60(%rbp)
10000a66b: 8b 3b                       	movl	(%rbx), %edi
10000a66d: 41 be 01 00 00 00           	movl	$1, %r14d
10000a673: 48 8d 55 c8                 	leaq	-56(%rbp), %rdx
10000a677: 48 8d 4d c4                 	leaq	-60(%rbp), %rcx
10000a67b: be 01 00 00 00              	movl	$1, %esi
10000a680: e8 73 3c 00 00              	callq	15475 <dyld_stub_binder+0x10000e2f8>
10000a685: 8b 3b                       	movl	(%rbx), %edi
10000a687: e8 e8 3b 00 00              	callq	15336 <dyld_stub_binder+0x10000e274>
10000a68c: 48 8b 7d c8                 	movq	-56(%rbp), %rdi
10000a690: e8 9d 3b 00 00              	callq	15261 <dyld_stub_binder+0x10000e232>
10000a695: 8b 3b                       	movl	(%rbx), %edi
10000a697: 48 8d 55 c0                 	leaq	-64(%rbp), %rdx
10000a69b: be 81 8b 00 00              	movl	$35713, %esi
10000a6a0: e8 41 3c 00 00              	callq	15425 <dyld_stub_binder+0x10000e2e6>
10000a6a5: 83 7d c0 00                 	cmpl	$0, -64(%rbp)
10000a6a9: 0f 84 b7 00 00 00           	je	183 <_mlx_shaders_pixel+0x136>
10000a6af: bf 30 8b 00 00              	movl	$35632, %edi
10000a6b4: e8 c7 3b 00 00              	callq	15303 <dyld_stub_binder+0x10000e280>
10000a6b9: 89 43 04                    	movl	%eax, 4(%rbx)
10000a6bc: 48 8d 3d da 45 00 00        	leaq	17882(%rip), %rdi
10000a6c3: e8 d8 3c 00 00              	callq	15576 <dyld_stub_binder+0x10000e3a0>
10000a6c8: 48 89 45 c8                 	movq	%rax, -56(%rbp)
10000a6cc: 48 89 c7                    	movq	%rax, %rdi
10000a6cf: e8 d2 3c 00 00              	callq	15570 <dyld_stub_binder+0x10000e3a6>
10000a6d4: 89 45 c4                    	movl	%eax, -60(%rbp)
10000a6d7: 8b 7b 04                    	movl	4(%rbx), %edi
10000a6da: 41 be 01 00 00 00           	movl	$1, %r14d
10000a6e0: 48 8d 55 c8                 	leaq	-56(%rbp), %rdx
10000a6e4: 48 8d 4d c4                 	leaq	-60(%rbp), %rcx
10000a6e8: be 01 00 00 00              	movl	$1, %esi
10000a6ed: e8 06 3c 00 00              	callq	15366 <dyld_stub_binder+0x10000e2f8>
10000a6f2: 8b 7b 04                    	movl	4(%rbx), %edi
10000a6f5: e8 7a 3b 00 00              	callq	15226 <dyld_stub_binder+0x10000e274>
10000a6fa: 48 8b 7d c8                 	movq	-56(%rbp), %rdi
10000a6fe: e8 2f 3b 00 00              	callq	15151 <dyld_stub_binder+0x10000e232>
10000a703: 8b 7b 04                    	movl	4(%rbx), %edi
10000a706: 48 8d 55 c0                 	leaq	-64(%rbp), %rdx
10000a70a: be 81 8b 00 00              	movl	$35713, %esi
10000a70f: e8 d2 3b 00 00              	callq	15314 <dyld_stub_binder+0x10000e2e6>
10000a714: 83 7d c0 00                 	cmpl	$0, -64(%rbp)
10000a718: 74 72                       	je	114 <_mlx_shaders_pixel+0x15c>
10000a71a: e8 5b 3b 00 00              	callq	15195 <dyld_stub_binder+0x10000e27a>
10000a71f: 89 43 08                    	movl	%eax, 8(%rbx)
10000a722: 8b 33                       	movl	(%rbx), %esi
10000a724: 89 c7                       	movl	%eax, %edi
10000a726: e8 19 3b 00 00              	callq	15129 <dyld_stub_binder+0x10000e244>
10000a72b: 8b 73 04                    	movl	4(%rbx), %esi
10000a72e: 8b 7b 08                    	movl	8(%rbx), %edi
10000a731: e8 0e 3b 00 00              	callq	15118 <dyld_stub_binder+0x10000e244>
10000a736: 8b 7b 08                    	movl	8(%rbx), %edi
10000a739: e8 b4 3b 00 00              	callq	15284 <dyld_stub_binder+0x10000e2f2>
10000a73e: 8b 7b 08                    	movl	8(%rbx), %edi
10000a741: 48 8d 55 c0                 	leaq	-64(%rbp), %rdx
10000a745: be 82 8b 00 00              	movl	$35714, %esi
10000a74a: e8 8b 3b 00 00              	callq	15243 <dyld_stub_binder+0x10000e2da>
10000a74f: 83 7d c0 00                 	cmpl	$0, -64(%rbp)
10000a753: 0f 84 a4 00 00 00           	je	164 <_mlx_shaders_pixel+0x1cd>
10000a759: e8 5e 3b 00 00              	callq	15198 <dyld_stub_binder+0x10000e2bc>
10000a75e: 45 31 f6                    	xorl	%r14d, %r14d
10000a761: e9 0c 01 00 00              	jmp	268 <_mlx_shaders_pixel+0x242>
10000a766: 4c 8b 2d ab d8 01 00        	movq	121003(%rip), %r13
10000a76d: 49 8b 4d 00                 	movq	(%r13), %rcx
10000a771: 48 8d 3d 02 45 00 00        	leaq	17666(%rip), %rdi
10000a778: be 22 00 00 00              	movl	$34, %esi
10000a77d: ba 01 00 00 00              	movl	$1, %edx
10000a782: e8 b1 3a 00 00              	callq	15025 <dyld_stub_binder+0x10000e238>
10000a787: 44 8b 3b                    	movl	(%rbx), %r15d
10000a78a: eb 25                       	jmp	37 <_mlx_shaders_pixel+0x181>
10000a78c: 4c 8b 2d 85 d8 01 00        	movq	120965(%rip), %r13
10000a793: 49 8b 4d 00                 	movq	(%r13), %rcx
10000a797: 48 8d 3d 78 45 00 00        	leaq	17784(%rip), %rdi
10000a79e: be 22 00 00 00              	movl	$34, %esi
10000a7a3: ba 01 00 00 00              	movl	$1, %edx
10000a7a8: e8 8b 3a 00 00              	callq	14987 <dyld_stub_binder+0x10000e238>
10000a7ad: 44 8b 7b 04                 	movl	4(%rbx), %r15d
10000a7b1: 48 8d 55 d4                 	leaq	-44(%rbp), %rdx
10000a7b5: be 84 8b 00 00              	movl	$35716, %esi
10000a7ba: 31 c0                       	xorl	%eax, %eax
10000a7bc: 44 89 ff                    	movl	%r15d, %edi
10000a7bf: e8 22 3b 00 00              	callq	15138 <dyld_stub_binder+0x10000e2e6>
10000a7c4: 8b 45 d4                    	movl	-44(%rbp), %eax
10000a7c7: 4c 63 e0                    	movslq	%eax, %r12
10000a7ca: 4c 89 e7                    	movq	%r12, %rdi
10000a7cd: e8 62 3b 00 00              	callq	15202 <dyld_stub_binder+0x10000e334>
10000a7d2: 48 89 c3                    	movq	%rax, %rbx
10000a7d5: 31 d2                       	xorl	%edx, %edx
10000a7d7: 31 c0                       	xorl	%eax, %eax
10000a7d9: 44 89 ff                    	movl	%r15d, %edi
10000a7dc: 44 89 e6                    	movl	%r12d, %esi
10000a7df: 48 89 d9                    	movq	%rbx, %rcx
10000a7e2: e8 f9 3a 00 00              	callq	15097 <dyld_stub_binder+0x10000e2e0>
10000a7e7: 49 8b 75 00                 	movq	(%r13), %rsi
10000a7eb: 48 89 df                    	movq	%rbx, %rdi
10000a7ee: e8 39 3a 00 00              	callq	14905 <dyld_stub_binder+0x10000e22c>
10000a7f3: 48 89 df                    	movq	%rbx, %rdi
10000a7f6: e8 37 3a 00 00              	callq	14903 <dyld_stub_binder+0x10000e232>
10000a7fb: eb 75                       	jmp	117 <_mlx_shaders_pixel+0x242>
10000a7fd: 4c 8b 25 14 d8 01 00        	movq	120852(%rip), %r12
10000a804: 49 8b 0c 24                 	movq	(%r12), %rcx
10000a808: 48 8d 3d 2a 45 00 00        	leaq	17706(%rip), %rdi
10000a80f: be 25 00 00 00              	movl	$37, %esi
10000a814: ba 01 00 00 00              	movl	$1, %edx
10000a819: e8 1a 3a 00 00              	callq	14874 <dyld_stub_binder+0x10000e238>
10000a81e: 44 8b 73 08                 	movl	8(%rbx), %r14d
10000a822: 48 8d 55 d4                 	leaq	-44(%rbp), %rdx
10000a826: be 84 8b 00 00              	movl	$35716, %esi
10000a82b: 31 c0                       	xorl	%eax, %eax
10000a82d: 44 89 f7                    	movl	%r14d, %edi
10000a830: e8 a5 3a 00 00              	callq	15013 <dyld_stub_binder+0x10000e2da>
10000a835: 8b 45 d4                    	movl	-44(%rbp), %eax
10000a838: 4c 63 f8                    	movslq	%eax, %r15
10000a83b: 4c 89 ff                    	movq	%r15, %rdi
10000a83e: e8 f1 3a 00 00              	callq	15089 <dyld_stub_binder+0x10000e334>
10000a843: 48 89 c3                    	movq	%rax, %rbx
10000a846: 31 d2                       	xorl	%edx, %edx
10000a848: 31 c0                       	xorl	%eax, %eax
10000a84a: 44 89 f7                    	movl	%r14d, %edi
10000a84d: 44 89 fe                    	movl	%r15d, %esi
10000a850: 48 89 d9                    	movq	%rbx, %rcx
10000a853: e8 7c 3a 00 00              	callq	14972 <dyld_stub_binder+0x10000e2d4>
10000a858: 49 8b 34 24                 	movq	(%r12), %rsi
10000a85c: 48 89 df                    	movq	%rbx, %rdi
10000a85f: e8 c8 39 00 00              	callq	14792 <dyld_stub_binder+0x10000e22c>
10000a864: 48 89 df                    	movq	%rbx, %rdi
10000a867: e8 c6 39 00 00              	callq	14790 <dyld_stub_binder+0x10000e232>
10000a86c: 41 be 01 00 00 00           	movl	$1, %r14d
10000a872: 44 89 f0                    	movl	%r14d, %eax
10000a875: 48 83 c4 18                 	addq	$24, %rsp
10000a879: 5b                          	popq	%rbx
10000a87a: 41 5c                       	popq	%r12
10000a87c: 41 5d                       	popq	%r13
10000a87e: 41 5e                       	popq	%r14
10000a880: 41 5f                       	popq	%r15
10000a882: 5d                          	popq	%rbp
10000a883: c3                          	retq
10000a884: 66 66 66 2e 0f 1f 84 00 00 00 00 00 	nopw	%cs:(%rax,%rax)

000000010000a890 _mlx_shaders_image:
10000a890: 55                          	pushq	%rbp
10000a891: 48 89 e5                    	movq	%rsp, %rbp
10000a894: 41 57                       	pushq	%r15
10000a896: 41 56                       	pushq	%r14
10000a898: 41 55                       	pushq	%r13
10000a89a: 41 54                       	pushq	%r12
10000a89c: 53                          	pushq	%rbx
10000a89d: 48 83 ec 18                 	subq	$24, %rsp
10000a8a1: 48 89 fb                    	movq	%rdi, %rbx
10000a8a4: bf 31 8b 00 00              	movl	$35633, %edi
10000a8a9: e8 d2 39 00 00              	callq	14802 <dyld_stub_binder+0x10000e280>
10000a8ae: 89 43 18                    	movl	%eax, 24(%rbx)
10000a8b1: 48 8d 3d a7 44 00 00        	leaq	17575(%rip), %rdi
10000a8b8: e8 e3 3a 00 00              	callq	15075 <dyld_stub_binder+0x10000e3a0>
10000a8bd: 48 89 45 c8                 	movq	%rax, -56(%rbp)
10000a8c1: 48 89 c7                    	movq	%rax, %rdi
10000a8c4: e8 dd 3a 00 00              	callq	15069 <dyld_stub_binder+0x10000e3a6>
10000a8c9: 89 45 c4                    	movl	%eax, -60(%rbp)
10000a8cc: 8b 7b 18                    	movl	24(%rbx), %edi
10000a8cf: 41 be 01 00 00 00           	movl	$1, %r14d
10000a8d5: 48 8d 55 c8                 	leaq	-56(%rbp), %rdx
10000a8d9: 48 8d 4d c4                 	leaq	-60(%rbp), %rcx
10000a8dd: be 01 00 00 00              	movl	$1, %esi
10000a8e2: e8 11 3a 00 00              	callq	14865 <dyld_stub_binder+0x10000e2f8>
10000a8e7: 8b 7b 18                    	movl	24(%rbx), %edi
10000a8ea: e8 85 39 00 00              	callq	14725 <dyld_stub_binder+0x10000e274>
10000a8ef: 48 8b 7d c8                 	movq	-56(%rbp), %rdi
10000a8f3: e8 3a 39 00 00              	callq	14650 <dyld_stub_binder+0x10000e232>
10000a8f8: 8b 7b 18                    	movl	24(%rbx), %edi
10000a8fb: 48 8d 55 c0                 	leaq	-64(%rbp), %rdx
10000a8ff: be 81 8b 00 00              	movl	$35713, %esi
10000a904: e8 dd 39 00 00              	callq	14813 <dyld_stub_binder+0x10000e2e6>
10000a909: 83 7d c0 00                 	cmpl	$0, -64(%rbp)
10000a90d: 0f 84 b8 00 00 00           	je	184 <_mlx_shaders_image+0x13b>
10000a913: bf 30 8b 00 00              	movl	$35632, %edi
10000a918: e8 63 39 00 00              	callq	14691 <dyld_stub_binder+0x10000e280>
10000a91d: 89 43 1c                    	movl	%eax, 28(%rbx)
10000a920: 48 8d 3d 76 43 00 00        	leaq	17270(%rip), %rdi
10000a927: e8 74 3a 00 00              	callq	14964 <dyld_stub_binder+0x10000e3a0>
10000a92c: 48 89 45 c8                 	movq	%rax, -56(%rbp)
10000a930: 48 89 c7                    	movq	%rax, %rdi
10000a933: e8 6e 3a 00 00              	callq	14958 <dyld_stub_binder+0x10000e3a6>
10000a938: 89 45 c4                    	movl	%eax, -60(%rbp)
10000a93b: 8b 7b 1c                    	movl	28(%rbx), %edi
10000a93e: 41 be 01 00 00 00           	movl	$1, %r14d
10000a944: 48 8d 55 c8                 	leaq	-56(%rbp), %rdx
10000a948: 48 8d 4d c4                 	leaq	-60(%rbp), %rcx
10000a94c: be 01 00 00 00              	movl	$1, %esi
10000a951: e8 a2 39 00 00              	callq	14754 <dyld_stub_binder+0x10000e2f8>
10000a956: 8b 7b 1c                    	movl	28(%rbx), %edi
10000a959: e8 16 39 00 00              	callq	14614 <dyld_stub_binder+0x10000e274>
10000a95e: 48 8b 7d c8                 	movq	-56(%rbp), %rdi
10000a962: e8 cb 38 00 00              	callq	14539 <dyld_stub_binder+0x10000e232>
10000a967: 8b 7b 1c                    	movl	28(%rbx), %edi
10000a96a: 48 8d 55 c0                 	leaq	-64(%rbp), %rdx
10000a96e: be 81 8b 00 00              	movl	$35713, %esi
10000a973: e8 6e 39 00 00              	callq	14702 <dyld_stub_binder+0x10000e2e6>
10000a978: 83 7d c0 00                 	cmpl	$0, -64(%rbp)
10000a97c: 74 74                       	je	116 <_mlx_shaders_image+0x162>
10000a97e: e8 f7 38 00 00              	callq	14583 <dyld_stub_binder+0x10000e27a>
10000a983: 89 43 20                    	movl	%eax, 32(%rbx)
10000a986: 8b 73 18                    	movl	24(%rbx), %esi
10000a989: 89 c7                       	movl	%eax, %edi
10000a98b: e8 b4 38 00 00              	callq	14516 <dyld_stub_binder+0x10000e244>
10000a990: 8b 73 1c                    	movl	28(%rbx), %esi
10000a993: 8b 7b 20                    	movl	32(%rbx), %edi
10000a996: e8 a9 38 00 00              	callq	14505 <dyld_stub_binder+0x10000e244>
10000a99b: 8b 7b 20                    	movl	32(%rbx), %edi
10000a99e: e8 4f 39 00 00              	callq	14671 <dyld_stub_binder+0x10000e2f2>
10000a9a3: 8b 7b 20                    	movl	32(%rbx), %edi
10000a9a6: 48 8d 55 c0                 	leaq	-64(%rbp), %rdx
10000a9aa: be 82 8b 00 00              	movl	$35714, %esi
10000a9af: e8 26 39 00 00              	callq	14630 <dyld_stub_binder+0x10000e2da>
10000a9b4: 83 7d c0 00                 	cmpl	$0, -64(%rbp)
10000a9b8: 0f 84 a5 00 00 00           	je	165 <_mlx_shaders_image+0x1d3>
10000a9be: e8 f9 38 00 00              	callq	14585 <dyld_stub_binder+0x10000e2bc>
10000a9c3: 45 31 f6                    	xorl	%r14d, %r14d
10000a9c6: e9 0d 01 00 00              	jmp	269 <_mlx_shaders_image+0x248>
10000a9cb: 4c 8b 2d 46 d6 01 00        	movq	120390(%rip), %r13
10000a9d2: 49 8b 4d 00                 	movq	(%r13), %rcx
10000a9d6: 48 8d 3d 9e 44 00 00        	leaq	17566(%rip), %rdi
10000a9dd: be 22 00 00 00              	movl	$34, %esi
10000a9e2: ba 01 00 00 00              	movl	$1, %edx
10000a9e7: e8 4c 38 00 00              	callq	14412 <dyld_stub_binder+0x10000e238>
10000a9ec: 44 8b 7b 18                 	movl	24(%rbx), %r15d
10000a9f0: eb 25                       	jmp	37 <_mlx_shaders_image+0x187>
10000a9f2: 4c 8b 2d 1f d6 01 00        	movq	120351(%rip), %r13
10000a9f9: 49 8b 4d 00                 	movq	(%r13), %rcx
10000a9fd: 48 8d 3d 9a 44 00 00        	leaq	17562(%rip), %rdi
10000aa04: be 22 00 00 00              	movl	$34, %esi
10000aa09: ba 01 00 00 00              	movl	$1, %edx
10000aa0e: e8 25 38 00 00              	callq	14373 <dyld_stub_binder+0x10000e238>
10000aa13: 44 8b 7b 1c                 	movl	28(%rbx), %r15d
10000aa17: 48 8d 55 d4                 	leaq	-44(%rbp), %rdx
10000aa1b: be 84 8b 00 00              	movl	$35716, %esi
10000aa20: 31 c0                       	xorl	%eax, %eax
10000aa22: 44 89 ff                    	movl	%r15d, %edi
10000aa25: e8 bc 38 00 00              	callq	14524 <dyld_stub_binder+0x10000e2e6>
10000aa2a: 8b 45 d4                    	movl	-44(%rbp), %eax
10000aa2d: 4c 63 e0                    	movslq	%eax, %r12
10000aa30: 4c 89 e7                    	movq	%r12, %rdi
10000aa33: e8 fc 38 00 00              	callq	14588 <dyld_stub_binder+0x10000e334>
10000aa38: 48 89 c3                    	movq	%rax, %rbx
10000aa3b: 31 d2                       	xorl	%edx, %edx
10000aa3d: 31 c0                       	xorl	%eax, %eax
10000aa3f: 44 89 ff                    	movl	%r15d, %edi
10000aa42: 44 89 e6                    	movl	%r12d, %esi
10000aa45: 48 89 d9                    	movq	%rbx, %rcx
10000aa48: e8 93 38 00 00              	callq	14483 <dyld_stub_binder+0x10000e2e0>
10000aa4d: 49 8b 75 00                 	movq	(%r13), %rsi
10000aa51: 48 89 df                    	movq	%rbx, %rdi
10000aa54: e8 d3 37 00 00              	callq	14291 <dyld_stub_binder+0x10000e22c>
10000aa59: 48 89 df                    	movq	%rbx, %rdi
10000aa5c: e8 d1 37 00 00              	callq	14289 <dyld_stub_binder+0x10000e232>
10000aa61: eb 75                       	jmp	117 <_mlx_shaders_image+0x248>
10000aa63: 4c 8b 25 ae d5 01 00        	movq	120238(%rip), %r12
10000aa6a: 49 8b 0c 24                 	movq	(%r12), %rcx
10000aa6e: 48 8d 3d 4c 44 00 00        	leaq	17484(%rip), %rdi
10000aa75: be 25 00 00 00              	movl	$37, %esi
10000aa7a: ba 01 00 00 00              	movl	$1, %edx
10000aa7f: e8 b4 37 00 00              	callq	14260 <dyld_stub_binder+0x10000e238>
10000aa84: 44 8b 73 20                 	movl	32(%rbx), %r14d
10000aa88: 48 8d 55 d4                 	leaq	-44(%rbp), %rdx
10000aa8c: be 84 8b 00 00              	movl	$35716, %esi
10000aa91: 31 c0                       	xorl	%eax, %eax
10000aa93: 44 89 f7                    	movl	%r14d, %edi
10000aa96: e8 3f 38 00 00              	callq	14399 <dyld_stub_binder+0x10000e2da>
10000aa9b: 8b 45 d4                    	movl	-44(%rbp), %eax
10000aa9e: 4c 63 f8                    	movslq	%eax, %r15
10000aaa1: 4c 89 ff                    	movq	%r15, %rdi
10000aaa4: e8 8b 38 00 00              	callq	14475 <dyld_stub_binder+0x10000e334>
10000aaa9: 48 89 c3                    	movq	%rax, %rbx
10000aaac: 31 d2                       	xorl	%edx, %edx
10000aaae: 31 c0                       	xorl	%eax, %eax
10000aab0: 44 89 f7                    	movl	%r14d, %edi
10000aab3: 44 89 fe                    	movl	%r15d, %esi
10000aab6: 48 89 d9                    	movq	%rbx, %rcx
10000aab9: e8 16 38 00 00              	callq	14358 <dyld_stub_binder+0x10000e2d4>
10000aabe: 49 8b 34 24                 	movq	(%r12), %rsi
10000aac2: 48 89 df                    	movq	%rbx, %rdi
10000aac5: e8 62 37 00 00              	callq	14178 <dyld_stub_binder+0x10000e22c>
10000aaca: 48 89 df                    	movq	%rbx, %rdi
10000aacd: e8 60 37 00 00              	callq	14176 <dyld_stub_binder+0x10000e232>
10000aad2: 41 be 01 00 00 00           	movl	$1, %r14d
10000aad8: 44 89 f0                    	movl	%r14d, %eax
10000aadb: 48 83 c4 18                 	addq	$24, %rsp
10000aadf: 5b                          	popq	%rbx
10000aae0: 41 5c                       	popq	%r12
10000aae2: 41 5d                       	popq	%r13
10000aae4: 41 5e                       	popq	%r14
10000aae6: 41 5f                       	popq	%r15
10000aae8: 5d                          	popq	%rbp
10000aae9: c3                          	retq
10000aaea: 66 0f 1f 44 00 00           	nopw	(%rax,%rax)

000000010000aaf0 _mlx_shaders_font:
10000aaf0: 55                          	pushq	%rbp
10000aaf1: 48 89 e5                    	movq	%rsp, %rbp
10000aaf4: 41 57                       	pushq	%r15
10000aaf6: 41 56                       	pushq	%r14
10000aaf8: 41 55                       	pushq	%r13
10000aafa: 41 54                       	pushq	%r12
10000aafc: 53                          	pushq	%rbx
10000aafd: 48 83 ec 18                 	subq	$24, %rsp
10000ab01: 48 89 fb                    	movq	%rdi, %rbx
10000ab04: bf 31 8b 00 00              	movl	$35633, %edi
10000ab09: e8 72 37 00 00              	callq	14194 <dyld_stub_binder+0x10000e280>
10000ab0e: 89 43 38                    	movl	%eax, 56(%rbx)
10000ab11: 48 8d 3d cf 43 00 00        	leaq	17359(%rip), %rdi
10000ab18: e8 83 38 00 00              	callq	14467 <dyld_stub_binder+0x10000e3a0>
10000ab1d: 48 89 45 c8                 	movq	%rax, -56(%rbp)
10000ab21: 48 89 c7                    	movq	%rax, %rdi
10000ab24: e8 7d 38 00 00              	callq	14461 <dyld_stub_binder+0x10000e3a6>
10000ab29: 89 45 c4                    	movl	%eax, -60(%rbp)
10000ab2c: 8b 7b 38                    	movl	56(%rbx), %edi
10000ab2f: 41 be 01 00 00 00           	movl	$1, %r14d
10000ab35: 48 8d 55 c8                 	leaq	-56(%rbp), %rdx
10000ab39: 48 8d 4d c4                 	leaq	-60(%rbp), %rcx
10000ab3d: be 01 00 00 00              	movl	$1, %esi
10000ab42: e8 b1 37 00 00              	callq	14257 <dyld_stub_binder+0x10000e2f8>
10000ab47: 8b 7b 38                    	movl	56(%rbx), %edi
10000ab4a: e8 25 37 00 00              	callq	14117 <dyld_stub_binder+0x10000e274>
10000ab4f: 48 8b 7d c8                 	movq	-56(%rbp), %rdi
10000ab53: e8 da 36 00 00              	callq	14042 <dyld_stub_binder+0x10000e232>
10000ab58: 8b 7b 38                    	movl	56(%rbx), %edi
10000ab5b: 48 8d 55 c0                 	leaq	-64(%rbp), %rdx
10000ab5f: be 81 8b 00 00              	movl	$35713, %esi
10000ab64: e8 7d 37 00 00              	callq	14205 <dyld_stub_binder+0x10000e2e6>
10000ab69: 83 7d c0 00                 	cmpl	$0, -64(%rbp)
10000ab6d: 0f 84 b8 00 00 00           	je	184 <_mlx_shaders_font+0x13b>
10000ab73: bf 30 8b 00 00              	movl	$35632, %edi
10000ab78: e8 03 37 00 00              	callq	14083 <dyld_stub_binder+0x10000e280>
10000ab7d: 89 43 3c                    	movl	%eax, 60(%rbx)
10000ab80: 48 8d 3d f0 44 00 00        	leaq	17648(%rip), %rdi
10000ab87: e8 14 38 00 00              	callq	14356 <dyld_stub_binder+0x10000e3a0>
10000ab8c: 48 89 45 c8                 	movq	%rax, -56(%rbp)
10000ab90: 48 89 c7                    	movq	%rax, %rdi
10000ab93: e8 0e 38 00 00              	callq	14350 <dyld_stub_binder+0x10000e3a6>
10000ab98: 89 45 c4                    	movl	%eax, -60(%rbp)
10000ab9b: 8b 7b 3c                    	movl	60(%rbx), %edi
10000ab9e: 41 be 01 00 00 00           	movl	$1, %r14d
10000aba4: 48 8d 55 c8                 	leaq	-56(%rbp), %rdx
10000aba8: 48 8d 4d c4                 	leaq	-60(%rbp), %rcx
10000abac: be 01 00 00 00              	movl	$1, %esi
10000abb1: e8 42 37 00 00              	callq	14146 <dyld_stub_binder+0x10000e2f8>
10000abb6: 8b 7b 3c                    	movl	60(%rbx), %edi
10000abb9: e8 b6 36 00 00              	callq	14006 <dyld_stub_binder+0x10000e274>
10000abbe: 48 8b 7d c8                 	movq	-56(%rbp), %rdi
10000abc2: e8 6b 36 00 00              	callq	13931 <dyld_stub_binder+0x10000e232>
10000abc7: 8b 7b 3c                    	movl	60(%rbx), %edi
10000abca: 48 8d 55 c0                 	leaq	-64(%rbp), %rdx
10000abce: be 81 8b 00 00              	movl	$35713, %esi
10000abd3: e8 0e 37 00 00              	callq	14094 <dyld_stub_binder+0x10000e2e6>
10000abd8: 83 7d c0 00                 	cmpl	$0, -64(%rbp)
10000abdc: 74 74                       	je	116 <_mlx_shaders_font+0x162>
10000abde: e8 97 36 00 00              	callq	13975 <dyld_stub_binder+0x10000e27a>
10000abe3: 89 43 40                    	movl	%eax, 64(%rbx)
10000abe6: 8b 73 38                    	movl	56(%rbx), %esi
10000abe9: 89 c7                       	movl	%eax, %edi
10000abeb: e8 54 36 00 00              	callq	13908 <dyld_stub_binder+0x10000e244>
10000abf0: 8b 73 3c                    	movl	60(%rbx), %esi
10000abf3: 8b 7b 40                    	movl	64(%rbx), %edi
10000abf6: e8 49 36 00 00              	callq	13897 <dyld_stub_binder+0x10000e244>
10000abfb: 8b 7b 40                    	movl	64(%rbx), %edi
10000abfe: e8 ef 36 00 00              	callq	14063 <dyld_stub_binder+0x10000e2f2>
10000ac03: 8b 7b 40                    	movl	64(%rbx), %edi
10000ac06: 48 8d 55 c0                 	leaq	-64(%rbp), %rdx
10000ac0a: be 82 8b 00 00              	movl	$35714, %esi
10000ac0f: e8 c6 36 00 00              	callq	14022 <dyld_stub_binder+0x10000e2da>
10000ac14: 83 7d c0 00                 	cmpl	$0, -64(%rbp)
10000ac18: 0f 84 a5 00 00 00           	je	165 <_mlx_shaders_font+0x1d3>
10000ac1e: e8 99 36 00 00              	callq	13977 <dyld_stub_binder+0x10000e2bc>
10000ac23: 45 31 f6                    	xorl	%r14d, %r14d
10000ac26: e9 0d 01 00 00              	jmp	269 <_mlx_shaders_font+0x248>
10000ac2b: 4c 8b 2d e6 d3 01 00        	movq	119782(%rip), %r13
10000ac32: 49 8b 4d 00                 	movq	(%r13), %rcx
10000ac36: 48 8d 3d 18 44 00 00        	leaq	17432(%rip), %rdi
10000ac3d: be 21 00 00 00              	movl	$33, %esi
10000ac42: ba 01 00 00 00              	movl	$1, %edx
10000ac47: e8 ec 35 00 00              	callq	13804 <dyld_stub_binder+0x10000e238>
10000ac4c: 44 8b 7b 38                 	movl	56(%rbx), %r15d
10000ac50: eb 25                       	jmp	37 <_mlx_shaders_font+0x187>
10000ac52: 4c 8b 2d bf d3 01 00        	movq	119743(%rip), %r13
10000ac59: 49 8b 4d 00                 	movq	(%r13), %rcx
10000ac5d: 48 8d 3d a7 44 00 00        	leaq	17575(%rip), %rdi
10000ac64: be 21 00 00 00              	movl	$33, %esi
10000ac69: ba 01 00 00 00              	movl	$1, %edx
10000ac6e: e8 c5 35 00 00              	callq	13765 <dyld_stub_binder+0x10000e238>
10000ac73: 44 8b 7b 3c                 	movl	60(%rbx), %r15d
10000ac77: 48 8d 55 d4                 	leaq	-44(%rbp), %rdx
10000ac7b: be 84 8b 00 00              	movl	$35716, %esi
10000ac80: 31 c0                       	xorl	%eax, %eax
10000ac82: 44 89 ff                    	movl	%r15d, %edi
10000ac85: e8 5c 36 00 00              	callq	13916 <dyld_stub_binder+0x10000e2e6>
10000ac8a: 8b 45 d4                    	movl	-44(%rbp), %eax
10000ac8d: 4c 63 e0                    	movslq	%eax, %r12
10000ac90: 4c 89 e7                    	movq	%r12, %rdi
10000ac93: e8 9c 36 00 00              	callq	13980 <dyld_stub_binder+0x10000e334>
10000ac98: 48 89 c3                    	movq	%rax, %rbx
10000ac9b: 31 d2                       	xorl	%edx, %edx
10000ac9d: 31 c0                       	xorl	%eax, %eax
10000ac9f: 44 89 ff                    	movl	%r15d, %edi
10000aca2: 44 89 e6                    	movl	%r12d, %esi
10000aca5: 48 89 d9                    	movq	%rbx, %rcx
10000aca8: e8 33 36 00 00              	callq	13875 <dyld_stub_binder+0x10000e2e0>
10000acad: 49 8b 75 00                 	movq	(%r13), %rsi
10000acb1: 48 89 df                    	movq	%rbx, %rdi
10000acb4: e8 73 35 00 00              	callq	13683 <dyld_stub_binder+0x10000e22c>
10000acb9: 48 89 df                    	movq	%rbx, %rdi
10000acbc: e8 71 35 00 00              	callq	13681 <dyld_stub_binder+0x10000e232>
10000acc1: eb 75                       	jmp	117 <_mlx_shaders_font+0x248>
10000acc3: 4c 8b 25 4e d3 01 00        	movq	119630(%rip), %r12
10000acca: 49 8b 0c 24                 	movq	(%r12), %rcx
10000acce: 48 8d 3d 58 44 00 00        	leaq	17496(%rip), %rdi
10000acd5: be 24 00 00 00              	movl	$36, %esi
10000acda: ba 01 00 00 00              	movl	$1, %edx
10000acdf: e8 54 35 00 00              	callq	13652 <dyld_stub_binder+0x10000e238>
10000ace4: 44 8b 73 40                 	movl	64(%rbx), %r14d
10000ace8: 48 8d 55 d4                 	leaq	-44(%rbp), %rdx
10000acec: be 84 8b 00 00              	movl	$35716, %esi
10000acf1: 31 c0                       	xorl	%eax, %eax
10000acf3: 44 89 f7                    	movl	%r14d, %edi
10000acf6: e8 df 35 00 00              	callq	13791 <dyld_stub_binder+0x10000e2da>
10000acfb: 8b 45 d4                    	movl	-44(%rbp), %eax
10000acfe: 4c 63 f8                    	movslq	%eax, %r15
10000ad01: 4c 89 ff                    	movq	%r15, %rdi
10000ad04: e8 2b 36 00 00              	callq	13867 <dyld_stub_binder+0x10000e334>
10000ad09: 48 89 c3                    	movq	%rax, %rbx
10000ad0c: 31 d2                       	xorl	%edx, %edx
10000ad0e: 31 c0                       	xorl	%eax, %eax
10000ad10: 44 89 f7                    	movl	%r14d, %edi
10000ad13: 44 89 fe                    	movl	%r15d, %esi
10000ad16: 48 89 d9                    	movq	%rbx, %rcx
10000ad19: e8 b6 35 00 00              	callq	13750 <dyld_stub_binder+0x10000e2d4>
10000ad1e: 49 8b 34 24                 	movq	(%r12), %rsi
10000ad22: 48 89 df                    	movq	%rbx, %rdi
10000ad25: e8 02 35 00 00              	callq	13570 <dyld_stub_binder+0x10000e22c>
10000ad2a: 48 89 df                    	movq	%rbx, %rdi
10000ad2d: e8 00 35 00 00              	callq	13568 <dyld_stub_binder+0x10000e232>
10000ad32: 41 be 01 00 00 00           	movl	$1, %r14d
10000ad38: 44 89 f0                    	movl	%r14d, %eax
10000ad3b: 48 83 c4 18                 	addq	$24, %rsp
10000ad3f: 5b                          	popq	%rbx
10000ad40: 41 5c                       	popq	%r12
10000ad42: 41 5d                       	popq	%r13
10000ad44: 41 5e                       	popq	%r14
10000ad46: 41 5f                       	popq	%r15
10000ad48: 5d                          	popq	%rbp
10000ad49: c3                          	retq
10000ad4a: 66 0f 1f 44 00 00           	nopw	(%rax,%rax)

000000010000ad50 _mlx_shaders:
10000ad50: 55                          	pushq	%rbp
10000ad51: 48 89 e5                    	movq	%rsp, %rbp
10000ad54: 41 57                       	pushq	%r15
10000ad56: 41 56                       	pushq	%r14
10000ad58: 53                          	pushq	%rbx
10000ad59: 50                          	pushq	%rax
10000ad5a: 49 89 ff                    	movq	%rdi, %r15
10000ad5d: e8 ce f8 ff ff              	callq	-1842 <_mlx_shaders_pixel>
10000ad62: 41 89 c6                    	movl	%eax, %r14d
10000ad65: 4c 89 ff                    	movq	%r15, %rdi
10000ad68: e8 23 fb ff ff              	callq	-1245 <_mlx_shaders_image>
10000ad6d: 89 c3                       	movl	%eax, %ebx
10000ad6f: 44 01 f3                    	addl	%r14d, %ebx
10000ad72: 4c 89 ff                    	movq	%r15, %rdi
10000ad75: e8 76 fd ff ff              	callq	-650 <_mlx_shaders_font>
10000ad7a: 01 d8                       	addl	%ebx, %eax
10000ad7c: 48 83 c4 08                 	addq	$8, %rsp
10000ad80: 5b                          	popq	%rbx
10000ad81: 41 5e                       	popq	%r14
10000ad83: 41 5f                       	popq	%r15
10000ad85: 5d                          	popq	%rbp
10000ad86: c3                          	retq
10000ad87: 90                          	nop
10000ad88: 90                          	nop
10000ad89: 90                          	nop
10000ad8a: 90                          	nop
10000ad8b: 90                          	nop
10000ad8c: 90                          	nop
10000ad8d: 90                          	nop
10000ad8e: 90                          	nop
10000ad8f: 90                          	nop

000000010000ad90 _get_mouse_button:
10000ad90: 55                          	pushq	%rbp
10000ad91: 48 89 e5                    	movq	%rsp, %rbp
10000ad94: 48 83 ff 1b                 	cmpq	$27, %rdi
10000ad98: 77 34                       	ja	52 <_get_mouse_button+0x3e>
10000ad9a: b8 01 00 00 00              	movl	$1, %eax
10000ad9f: b9 46 00 00 00              	movl	$70, %ecx
10000ada4: 48 0f a3 f9                 	btq	%rdi, %rcx
10000ada8: 72 26                       	jb	38 <_get_mouse_button+0x40>
10000adaa: b8 98 00 00 00              	movl	$152, %eax
10000adaf: 48 0f a3 f8                 	btq	%rdi, %rax
10000adb3: 73 07                       	jae	7 <_get_mouse_button+0x2c>
10000adb5: b8 02 00 00 00              	movl	$2, %eax
10000adba: 5d                          	popq	%rbp
10000adbb: c3                          	retq
10000adbc: b8 00 00 00 0e              	movl	$234881024, %eax
10000adc1: 48 0f a3 f8                 	btq	%rdi, %rax
10000adc5: 73 07                       	jae	7 <_get_mouse_button+0x3e>
10000adc7: b8 03 00 00 00              	movl	$3, %eax
10000adcc: 5d                          	popq	%rbp
10000adcd: c3                          	retq
10000adce: 31 c0                       	xorl	%eax, %eax
10000add0: 5d                          	popq	%rbp
10000add1: c3                          	retq
10000add2: 66 66 66 66 66 2e 0f 1f 84 00 00 00 00 00   	nopw	%cs:(%rax,%rax)

000000010000ade0 -[NSWindowEvent initWithContentRect:styleMask:backing:defer:]:
10000ade0: 55                          	pushq	%rbp
10000ade1: 48 89 e5                    	movq	%rsp, %rbp
10000ade4: 48 83 ec 30                 	subq	$48, %rsp
10000ade8: 48 89 7d f0                 	movq	%rdi, -16(%rbp)
10000adec: 48 8b 05 75 1d 02 00        	movq	138613(%rip), %rax
10000adf3: 48 89 45 f8                 	movq	%rax, -8(%rbp)
10000adf7: 48 8b 35 72 1b 02 00        	movq	138098(%rip), %rsi
10000adfe: 48 8b 45 28                 	movq	40(%rbp), %rax
10000ae02: 48 89 44 24 18              	movq	%rax, 24(%rsp)
10000ae07: 48 8b 45 20                 	movq	32(%rbp), %rax
10000ae0b: 48 89 44 24 10              	movq	%rax, 16(%rsp)
10000ae10: 48 8b 45 10                 	movq	16(%rbp), %rax
10000ae14: 48 8b 7d 18                 	movq	24(%rbp), %rdi
10000ae18: 48 89 7c 24 08              	movq	%rdi, 8(%rsp)
10000ae1d: 48 89 04 24                 	movq	%rax, (%rsp)
10000ae21: 48 8d 7d f0                 	leaq	-16(%rbp), %rdi
10000ae25: e8 28 35 00 00              	callq	13608 <dyld_stub_binder+0x10000e352>
10000ae2a: 48 85 c0                    	testq	%rax, %rax
10000ae2d: 0f 84 a6 00 00 00           	je	166 <-[NSWindowEvent initWithContentRect:styleMask:backing:defer:]+0xf9>
10000ae33: 48 8d 4d 10                 	leaq	16(%rbp), %rcx
10000ae37: 48 8b 15 3a 1d 02 00        	movq	138554(%rip), %rdx
10000ae3e: 48 01 c2                    	addq	%rax, %rdx
10000ae41: 48 89 c6                    	movq	%rax, %rsi
10000ae44: 48 03 35 35 1d 02 00        	addq	138549(%rip), %rsi
10000ae4b: bf 1f 00 00 00              	movl	$31, %edi
10000ae50: 48 c7 04 fa 00 00 00 00     	movq	$0, (%rdx,%rdi,8)
10000ae58: 48 c7 04 fe 00 00 00 00     	movq	$0, (%rsi,%rdi,8)
10000ae60: 48 c7 44 fa f8 00 00 00 00  	movq	$0, -8(%rdx,%rdi,8)
10000ae69: 48 c7 44 fe f8 00 00 00 00  	movq	$0, -8(%rsi,%rdi,8)
10000ae72: 48 c7 44 fa f0 00 00 00 00  	movq	$0, -16(%rdx,%rdi,8)
10000ae7b: 48 c7 44 fe f0 00 00 00 00  	movq	$0, -16(%rsi,%rdi,8)
10000ae84: 48 c7 44 fa e8 00 00 00 00  	movq	$0, -24(%rdx,%rdi,8)
10000ae8d: 48 c7 44 fe e8 00 00 00 00  	movq	$0, -24(%rsi,%rdi,8)
10000ae96: 48 83 c7 fc                 	addq	$-4, %rdi
10000ae9a: 83 ff ff                    	cmpl	$-1, %edi
10000ae9d: 75 b1                       	jne	-79 <-[NSWindowEvent initWithContentRect:styleMask:backing:defer:]+0x70>
10000ae9f: 48 8b 15 e2 1c 02 00        	movq	138466(%rip), %rdx
10000aea6: c7 04 10 00 00 00 00        	movl	$0, (%rax,%rdx)
10000aead: 48 8b 15 dc 1c 02 00        	movq	138460(%rip), %rdx
10000aeb4: c7 04 10 00 00 00 00        	movl	$0, (%rax,%rdx)
10000aebb: f2 0f 2c 51 10              	cvttsd2si	16(%rcx), %edx
10000aec0: 48 8b 35 d1 1c 02 00        	movq	138449(%rip), %rsi
10000aec7: 89 14 30                    	movl	%edx, (%rax,%rsi)
10000aeca: f2 0f 2c 49 18              	cvttsd2si	24(%rcx), %ecx
10000aecf: 48 8b 15 ca 1c 02 00        	movq	138442(%rip), %rdx
10000aed6: 89 0c 10                    	movl	%ecx, (%rax,%rdx)
10000aed9: 48 83 c4 30                 	addq	$48, %rsp
10000aedd: 5d                          	popq	%rbp
10000aede: c3                          	retq
10000aedf: 90                          	nop

000000010000aee0 -[NSWindowEvent setEvent:andFunc:andParam:]:
10000aee0: 55                          	pushq	%rbp
10000aee1: 48 89 e5                    	movq	%rsp, %rbp
10000aee4: 48 63 c2                    	movslq	%edx, %rax
10000aee7: 48 8b 15 8a 1c 02 00        	movq	138378(%rip), %rdx
10000aeee: 48 01 fa                    	addq	%rdi, %rdx
10000aef1: 48 89 0c c2                 	movq	%rcx, (%rdx,%rax,8)
10000aef5: 48 8b 15 84 1c 02 00        	movq	138372(%rip), %rdx
10000aefc: 48 01 fa                    	addq	%rdi, %rdx
10000aeff: 4c 89 04 c2                 	movq	%r8, (%rdx,%rax,8)
10000af03: 83 f8 06                    	cmpl	$6, %eax
10000af06: 75 18                       	jne	24 <-[NSWindowEvent setEvent:andFunc:andParam:]+0x40>
10000af08: 48 8b 35 69 1a 02 00        	movq	137833(%rip), %rsi
10000af0f: 48 85 c9                    	testq	%rcx, %rcx
10000af12: 74 0e                       	je	14 <-[NSWindowEvent setEvent:andFunc:andParam:]+0x42>
10000af14: ba 01 00 00 00              	movl	$1, %edx
10000af19: 5d                          	popq	%rbp
10000af1a: ff 25 18 d1 01 00           	jmpq	*119064(%rip)
10000af20: 5d                          	popq	%rbp
10000af21: c3                          	retq
10000af22: 31 d2                       	xorl	%edx, %edx
10000af24: 5d                          	popq	%rbp
10000af25: ff 25 0d d1 01 00           	jmpq	*119053(%rip)
10000af2b: 0f 1f 44 00 00              	nopl	(%rax,%rax)

000000010000af30 -[NSWindowEvent setKeyRepeat:]:
10000af30: 55                          	pushq	%rbp
10000af31: 48 89 e5                    	movq	%rsp, %rbp
10000af34: 48 8b 05 4d 1c 02 00        	movq	138317(%rip), %rax
10000af3b: 89 14 07                    	movl	%edx, (%rdi,%rax)
10000af3e: 5d                          	popq	%rbp
10000af3f: c3                          	retq

000000010000af40 -[NSWindowEvent acceptsFirstResponder]:
10000af40: 55                          	pushq	%rbp
10000af41: 48 89 e5                    	movq	%rsp, %rbp
10000af44: b8 01 00 00 00              	movl	$1, %eax
10000af49: 5d                          	popq	%rbp
10000af4a: c3                          	retq
10000af4b: 0f 1f 44 00 00              	nopl	(%rax,%rax)

000000010000af50 -[NSWindowEvent flagsChanged:]:
10000af50: 55                          	pushq	%rbp
10000af51: 48 89 e5                    	movq	%rsp, %rbp
10000af54: 41 57                       	pushq	%r15
10000af56: 41 56                       	pushq	%r14
10000af58: 53                          	pushq	%rbx
10000af59: 50                          	pushq	%rax
10000af5a: 49 89 fe                    	movq	%rdi, %r14
10000af5d: 48 8b 35 1c 1a 02 00        	movq	137756(%rip), %rsi
10000af64: 48 89 d7                    	movq	%rdx, %rdi
10000af67: ff 15 cb d0 01 00           	callq	*118987(%rip)
10000af6d: 49 89 c7                    	movq	%rax, %r15
10000af70: 48 8b 05 19 1c 02 00        	movq	138265(%rip), %rax
10000af77: 41 8b 0c 06                 	movl	(%r14,%rax), %ecx
10000af7b: 44 39 f9                    	cmpl	%r15d, %ecx
10000af7e: 0f 84 84 00 00 00           	je	132 <-[NSWindowEvent flagsChanged:]+0xb8>
10000af84: 89 ca                       	movl	%ecx, %edx
10000af86: 44 31 fa                    	xorl	%r15d, %edx
10000af89: 31 db                       	xorl	%ebx, %ebx
10000af8b: 0f 1f 44 00 00              	nopl	(%rax,%rax)
10000af90: 0f a3 da                    	btl	%ebx, %edx
10000af93: 8d 5b 01                    	leal	1(%rbx), %ebx
10000af96: 73 f8                       	jae	-8 <-[NSWindowEvent flagsChanged:]+0x40>
10000af98: 41 39 cf                    	cmpl	%ecx, %r15d
10000af9b: 76 32                       	jbe	50 <-[NSWindowEvent flagsChanged:]+0x7f>
10000af9d: 48 8b 15 d4 1b 02 00        	movq	138196(%rip), %rdx
10000afa4: 4a 8b 54 32 10              	movq	16(%rdx,%r14), %rdx
10000afa9: 48 85 d2                    	testq	%rdx, %rdx
10000afac: 74 21                       	je	33 <-[NSWindowEvent flagsChanged:]+0x7f>
10000afae: 8d bb ff 00 00 00           	leal	255(%rbx), %edi
10000afb4: 48 8b 05 c5 1b 02 00        	movq	138181(%rip), %rax
10000afbb: 4a 8b 74 30 10              	movq	16(%rax,%r14), %rsi
10000afc0: 31 c0                       	xorl	%eax, %eax
10000afc2: ff d2                       	callq	*%rdx
10000afc4: 48 8b 05 c5 1b 02 00        	movq	138181(%rip), %rax
10000afcb: 41 8b 0c 06                 	movl	(%r14,%rax), %ecx
10000afcf: 41 39 cf                    	cmpl	%ecx, %r15d
10000afd2: 73 30                       	jae	48 <-[NSWindowEvent flagsChanged:]+0xb4>
10000afd4: 48 8b 0d 9d 1b 02 00        	movq	138141(%rip), %rcx
10000afdb: 4a 8b 4c 31 18              	movq	24(%rcx,%r14), %rcx
10000afe0: 48 85 c9                    	testq	%rcx, %rcx
10000afe3: 74 1f                       	je	31 <-[NSWindowEvent flagsChanged:]+0xb4>
10000afe5: 81 c3 ff 00 00 00           	addl	$255, %ebx
10000afeb: 48 8b 05 8e 1b 02 00        	movq	138126(%rip), %rax
10000aff2: 4a 8b 74 30 18              	movq	24(%rax,%r14), %rsi
10000aff7: 31 c0                       	xorl	%eax, %eax
10000aff9: 89 df                       	movl	%ebx, %edi
10000affb: ff d1                       	callq	*%rcx
10000affd: 48 8b 05 8c 1b 02 00        	movq	138124(%rip), %rax
10000b004: 45 89 3c 06                 	movl	%r15d, (%r14,%rax)
10000b008: 48 83 c4 08                 	addq	$8, %rsp
10000b00c: 5b                          	popq	%rbx
10000b00d: 41 5e                       	popq	%r14
10000b00f: 41 5f                       	popq	%r15
10000b011: 5d                          	popq	%rbp
10000b012: c3                          	retq
10000b013: 66 66 66 66 2e 0f 1f 84 00 00 00 00 00      	nopw	%cs:(%rax,%rax)

000000010000b020 -[NSWindowEvent keyDown:]:
10000b020: 55                          	pushq	%rbp
10000b021: 48 89 e5                    	movq	%rsp, %rbp
10000b024: 41 56                       	pushq	%r14
10000b026: 53                          	pushq	%rbx
10000b027: 49 89 d6                    	movq	%rdx, %r14
10000b02a: 48 89 fb                    	movq	%rdi, %rbx
10000b02d: 48 8b 05 54 1b 02 00        	movq	138068(%rip), %rax
10000b034: 83 3c 03 00                 	cmpl	$0, (%rbx,%rax)
10000b038: 75 14                       	jne	20 <-[NSWindowEvent keyDown:]+0x2e>
10000b03a: 48 8b 35 47 19 02 00        	movq	137543(%rip), %rsi
10000b041: 4c 89 f7                    	movq	%r14, %rdi
10000b044: ff 15 ee cf 01 00           	callq	*118766(%rip)
10000b04a: 84 c0                       	testb	%al, %al
10000b04c: 75 3e                       	jne	62 <-[NSWindowEvent keyDown:]+0x6c>
10000b04e: 48 8b 05 23 1b 02 00        	movq	138019(%rip), %rax
10000b055: 48 8b 44 18 10              	movq	16(%rax,%rbx), %rax
10000b05a: 48 85 c0                    	testq	%rax, %rax
10000b05d: 74 2d                       	je	45 <-[NSWindowEvent keyDown:]+0x6c>
10000b05f: 48 8b 35 2a 19 02 00        	movq	137514(%rip), %rsi
10000b066: 4c 89 f7                    	movq	%r14, %rdi
10000b069: 49 89 c6                    	movq	%rax, %r14
10000b06c: ff 15 c6 cf 01 00           	callq	*118726(%rip)
10000b072: 0f b7 f8                    	movzwl	%ax, %edi
10000b075: 48 8b 05 04 1b 02 00        	movq	137988(%rip), %rax
10000b07c: 48 8b 74 18 10              	movq	16(%rax,%rbx), %rsi
10000b081: 31 c0                       	xorl	%eax, %eax
10000b083: 4c 89 f1                    	movq	%r14, %rcx
10000b086: 5b                          	popq	%rbx
10000b087: 41 5e                       	popq	%r14
10000b089: 5d                          	popq	%rbp
10000b08a: ff e1                       	jmpq	*%rcx
10000b08c: 5b                          	popq	%rbx
10000b08d: 41 5e                       	popq	%r14
10000b08f: 5d                          	popq	%rbp
10000b090: c3                          	retq
10000b091: 66 66 66 66 66 66 2e 0f 1f 84 00 00 00 00 00	nopw	%cs:(%rax,%rax)

000000010000b0a0 -[NSWindowEvent keyUp:]:
10000b0a0: 55                          	pushq	%rbp
10000b0a1: 48 89 e5                    	movq	%rsp, %rbp
10000b0a4: 41 56                       	pushq	%r14
10000b0a6: 53                          	pushq	%rbx
10000b0a7: 48 89 fb                    	movq	%rdi, %rbx
10000b0aa: 48 8b 05 c7 1a 02 00        	movq	137927(%rip), %rax
10000b0b1: 48 8b 44 18 18              	movq	24(%rax,%rbx), %rax
10000b0b6: 48 85 c0                    	testq	%rax, %rax
10000b0b9: 74 2d                       	je	45 <-[NSWindowEvent keyUp:]+0x48>
10000b0bb: 48 8b 35 ce 18 02 00        	movq	137422(%rip), %rsi
10000b0c2: 48 89 d7                    	movq	%rdx, %rdi
10000b0c5: 49 89 c6                    	movq	%rax, %r14
10000b0c8: ff 15 6a cf 01 00           	callq	*118634(%rip)
10000b0ce: 0f b7 f8                    	movzwl	%ax, %edi
10000b0d1: 48 8b 05 a8 1a 02 00        	movq	137896(%rip), %rax
10000b0d8: 48 8b 74 18 18              	movq	24(%rax,%rbx), %rsi
10000b0dd: 31 c0                       	xorl	%eax, %eax
10000b0df: 4c 89 f1                    	movq	%r14, %rcx
10000b0e2: 5b                          	popq	%rbx
10000b0e3: 41 5e                       	popq	%r14
10000b0e5: 5d                          	popq	%rbp
10000b0e6: ff e1                       	jmpq	*%rcx
10000b0e8: 5b                          	popq	%rbx
10000b0e9: 41 5e                       	popq	%r14
10000b0eb: 5d                          	popq	%rbp
10000b0ec: c3                          	retq
10000b0ed: 0f 1f 00                    	nopl	(%rax)

000000010000b0f0 -[NSWindowEvent mouseDown:]:
10000b0f0: 55                          	pushq	%rbp
10000b0f1: 48 89 e5                    	movq	%rsp, %rbp
10000b0f4: 41 57                       	pushq	%r15
10000b0f6: 41 56                       	pushq	%r14
10000b0f8: 53                          	pushq	%rbx
10000b0f9: 48 83 ec 18                 	subq	$24, %rsp
10000b0fd: 48 89 d3                    	movq	%rdx, %rbx
10000b100: 49 89 fe                    	movq	%rdi, %r14
10000b103: 48 8b 35 8e 18 02 00        	movq	137358(%rip), %rsi
10000b10a: 4c 8b 3d 27 cf 01 00        	movq	118567(%rip), %r15
10000b111: 48 89 df                    	movq	%rbx, %rdi
10000b114: 41 ff d7                    	callq	*%r15
10000b117: f2 0f 11 45 d8              	movsd	%xmm0, -40(%rbp)
10000b11c: f2 0f 11 4d e0              	movsd	%xmm1, -32(%rbp)
10000b121: 48 8b 35 78 18 02 00        	movq	137336(%rip), %rsi
10000b128: 48 89 df                    	movq	%rbx, %rdi
10000b12b: 41 ff d7                    	callq	*%r15
10000b12e: 48 83 f8 1b                 	cmpq	$27, %rax
10000b132: 77 34                       	ja	52 <-[NSWindowEvent mouseDown:]+0x78>
10000b134: bf 01 00 00 00              	movl	$1, %edi
10000b139: b9 46 00 00 00              	movl	$70, %ecx
10000b13e: 48 0f a3 c1                 	btq	%rax, %rcx
10000b142: 72 26                       	jb	38 <-[NSWindowEvent mouseDown:]+0x7a>
10000b144: b9 98 00 00 00              	movl	$152, %ecx
10000b149: 48 0f a3 c1                 	btq	%rax, %rcx
10000b14d: 73 07                       	jae	7 <-[NSWindowEvent mouseDown:]+0x66>
10000b14f: bf 02 00 00 00              	movl	$2, %edi
10000b154: eb 14                       	jmp	20 <-[NSWindowEvent mouseDown:]+0x7a>
10000b156: b9 00 00 00 0e              	movl	$234881024, %ecx
10000b15b: 48 0f a3 c1                 	btq	%rax, %rcx
10000b15f: 73 07                       	jae	7 <-[NSWindowEvent mouseDown:]+0x78>
10000b161: bf 03 00 00 00              	movl	$3, %edi
10000b166: eb 02                       	jmp	2 <-[NSWindowEvent mouseDown:]+0x7a>
10000b168: 31 ff                       	xorl	%edi, %edi
10000b16a: 48 8b 05 07 1a 02 00        	movq	137735(%rip), %rax
10000b171: 4e 8b 44 30 20              	movq	32(%rax,%r14), %r8
10000b176: 4d 85 c0                    	testq	%r8, %r8
10000b179: 74 32                       	je	50 <-[NSWindowEvent mouseDown:]+0xbd>
10000b17b: f2 0f 2c 75 d8              	cvttsd2si	-40(%rbp), %esi
10000b180: 48 8b 05 19 1a 02 00        	movq	137753(%rip), %rax
10000b187: f2 0f 2c 55 e0              	cvttsd2si	-32(%rbp), %edx
10000b18c: f7 d2                       	notl	%edx
10000b18e: 41 03 14 06                 	addl	(%r14,%rax), %edx
10000b192: 48 8b 05 e7 19 02 00        	movq	137703(%rip), %rax
10000b199: 4a 8b 4c 30 20              	movq	32(%rax,%r14), %rcx
10000b19e: 31 c0                       	xorl	%eax, %eax
10000b1a0: 48 83 c4 18                 	addq	$24, %rsp
10000b1a4: 5b                          	popq	%rbx
10000b1a5: 41 5e                       	popq	%r14
10000b1a7: 41 5f                       	popq	%r15
10000b1a9: 5d                          	popq	%rbp
10000b1aa: 41 ff e0                    	jmpq	*%r8
10000b1ad: 48 83 c4 18                 	addq	$24, %rsp
10000b1b1: 5b                          	popq	%rbx
10000b1b2: 41 5e                       	popq	%r14
10000b1b4: 41 5f                       	popq	%r15
10000b1b6: 5d                          	popq	%rbp
10000b1b7: c3                          	retq
10000b1b8: 0f 1f 84 00 00 00 00 00     	nopl	(%rax,%rax)

000000010000b1c0 -[NSWindowEvent rightMouseDown:]:
10000b1c0: 55                          	pushq	%rbp
10000b1c1: 48 89 e5                    	movq	%rsp, %rbp
10000b1c4: 41 57                       	pushq	%r15
10000b1c6: 41 56                       	pushq	%r14
10000b1c8: 53                          	pushq	%rbx
10000b1c9: 48 83 ec 18                 	subq	$24, %rsp
10000b1cd: 48 89 d3                    	movq	%rdx, %rbx
10000b1d0: 49 89 fe                    	movq	%rdi, %r14
10000b1d3: 48 8b 35 be 17 02 00        	movq	137150(%rip), %rsi
10000b1da: 4c 8b 3d 57 ce 01 00        	movq	118359(%rip), %r15
10000b1e1: 48 89 df                    	movq	%rbx, %rdi
10000b1e4: 41 ff d7                    	callq	*%r15
10000b1e7: f2 0f 11 45 d8              	movsd	%xmm0, -40(%rbp)
10000b1ec: f2 0f 11 4d e0              	movsd	%xmm1, -32(%rbp)
10000b1f1: 48 8b 35 a8 17 02 00        	movq	137128(%rip), %rsi
10000b1f8: 48 89 df                    	movq	%rbx, %rdi
10000b1fb: 41 ff d7                    	callq	*%r15
10000b1fe: 48 83 f8 1b                 	cmpq	$27, %rax
10000b202: 77 34                       	ja	52 <-[NSWindowEvent rightMouseDown:]+0x78>
10000b204: bf 01 00 00 00              	movl	$1, %edi
10000b209: b9 46 00 00 00              	movl	$70, %ecx
10000b20e: 48 0f a3 c1                 	btq	%rax, %rcx
10000b212: 72 26                       	jb	38 <-[NSWindowEvent rightMouseDown:]+0x7a>
10000b214: b9 98 00 00 00              	movl	$152, %ecx
10000b219: 48 0f a3 c1                 	btq	%rax, %rcx
10000b21d: 73 07                       	jae	7 <-[NSWindowEvent rightMouseDown:]+0x66>
10000b21f: bf 02 00 00 00              	movl	$2, %edi
10000b224: eb 14                       	jmp	20 <-[NSWindowEvent rightMouseDown:]+0x7a>
10000b226: b9 00 00 00 0e              	movl	$234881024, %ecx
10000b22b: 48 0f a3 c1                 	btq	%rax, %rcx
10000b22f: 73 07                       	jae	7 <-[NSWindowEvent rightMouseDown:]+0x78>
10000b231: bf 03 00 00 00              	movl	$3, %edi
10000b236: eb 02                       	jmp	2 <-[NSWindowEvent rightMouseDown:]+0x7a>
10000b238: 31 ff                       	xorl	%edi, %edi
10000b23a: 48 8b 05 37 19 02 00        	movq	137527(%rip), %rax
10000b241: 4e 8b 44 30 20              	movq	32(%rax,%r14), %r8
10000b246: 4d 85 c0                    	testq	%r8, %r8
10000b249: 74 32                       	je	50 <-[NSWindowEvent rightMouseDown:]+0xbd>
10000b24b: f2 0f 2c 75 d8              	cvttsd2si	-40(%rbp), %esi
10000b250: 48 8b 05 49 19 02 00        	movq	137545(%rip), %rax
10000b257: f2 0f 2c 55 e0              	cvttsd2si	-32(%rbp), %edx
10000b25c: f7 d2                       	notl	%edx
10000b25e: 41 03 14 06                 	addl	(%r14,%rax), %edx
10000b262: 48 8b 05 17 19 02 00        	movq	137495(%rip), %rax
10000b269: 4a 8b 4c 30 20              	movq	32(%rax,%r14), %rcx
10000b26e: 31 c0                       	xorl	%eax, %eax
10000b270: 48 83 c4 18                 	addq	$24, %rsp
10000b274: 5b                          	popq	%rbx
10000b275: 41 5e                       	popq	%r14
10000b277: 41 5f                       	popq	%r15
10000b279: 5d                          	popq	%rbp
10000b27a: 41 ff e0                    	jmpq	*%r8
10000b27d: 48 83 c4 18                 	addq	$24, %rsp
10000b281: 5b                          	popq	%rbx
10000b282: 41 5e                       	popq	%r14
10000b284: 41 5f                       	popq	%r15
10000b286: 5d                          	popq	%rbp
10000b287: c3                          	retq
10000b288: 0f 1f 84 00 00 00 00 00     	nopl	(%rax,%rax)

000000010000b290 -[NSWindowEvent otherMouseDown:]:
10000b290: 55                          	pushq	%rbp
10000b291: 48 89 e5                    	movq	%rsp, %rbp
10000b294: 41 57                       	pushq	%r15
10000b296: 41 56                       	pushq	%r14
10000b298: 53                          	pushq	%rbx
10000b299: 48 83 ec 18                 	subq	$24, %rsp
10000b29d: 48 89 d3                    	movq	%rdx, %rbx
10000b2a0: 49 89 fe                    	movq	%rdi, %r14
10000b2a3: 48 8b 35 ee 16 02 00        	movq	136942(%rip), %rsi
10000b2aa: 4c 8b 3d 87 cd 01 00        	movq	118151(%rip), %r15
10000b2b1: 48 89 df                    	movq	%rbx, %rdi
10000b2b4: 41 ff d7                    	callq	*%r15
10000b2b7: f2 0f 11 45 d8              	movsd	%xmm0, -40(%rbp)
10000b2bc: f2 0f 11 4d e0              	movsd	%xmm1, -32(%rbp)
10000b2c1: 48 8b 35 d8 16 02 00        	movq	136920(%rip), %rsi
10000b2c8: 48 89 df                    	movq	%rbx, %rdi
10000b2cb: 41 ff d7                    	callq	*%r15
10000b2ce: 48 83 f8 1b                 	cmpq	$27, %rax
10000b2d2: 77 34                       	ja	52 <-[NSWindowEvent otherMouseDown:]+0x78>
10000b2d4: bf 01 00 00 00              	movl	$1, %edi
10000b2d9: b9 46 00 00 00              	movl	$70, %ecx
10000b2de: 48 0f a3 c1                 	btq	%rax, %rcx
10000b2e2: 72 26                       	jb	38 <-[NSWindowEvent otherMouseDown:]+0x7a>
10000b2e4: b9 98 00 00 00              	movl	$152, %ecx
10000b2e9: 48 0f a3 c1                 	btq	%rax, %rcx
10000b2ed: 73 07                       	jae	7 <-[NSWindowEvent otherMouseDown:]+0x66>
10000b2ef: bf 02 00 00 00              	movl	$2, %edi
10000b2f4: eb 14                       	jmp	20 <-[NSWindowEvent otherMouseDown:]+0x7a>
10000b2f6: b9 00 00 00 0e              	movl	$234881024, %ecx
10000b2fb: 48 0f a3 c1                 	btq	%rax, %rcx
10000b2ff: 73 07                       	jae	7 <-[NSWindowEvent otherMouseDown:]+0x78>
10000b301: bf 03 00 00 00              	movl	$3, %edi
10000b306: eb 02                       	jmp	2 <-[NSWindowEvent otherMouseDown:]+0x7a>
10000b308: 31 ff                       	xorl	%edi, %edi
10000b30a: 48 8b 05 67 18 02 00        	movq	137319(%rip), %rax
10000b311: 4e 8b 44 30 20              	movq	32(%rax,%r14), %r8
10000b316: 4d 85 c0                    	testq	%r8, %r8
10000b319: 74 32                       	je	50 <-[NSWindowEvent otherMouseDown:]+0xbd>
10000b31b: f2 0f 2c 75 d8              	cvttsd2si	-40(%rbp), %esi
10000b320: 48 8b 05 79 18 02 00        	movq	137337(%rip), %rax
10000b327: f2 0f 2c 55 e0              	cvttsd2si	-32(%rbp), %edx
10000b32c: f7 d2                       	notl	%edx
10000b32e: 41 03 14 06                 	addl	(%r14,%rax), %edx
10000b332: 48 8b 05 47 18 02 00        	movq	137287(%rip), %rax
10000b339: 4a 8b 4c 30 20              	movq	32(%rax,%r14), %rcx
10000b33e: 31 c0                       	xorl	%eax, %eax
10000b340: 48 83 c4 18                 	addq	$24, %rsp
10000b344: 5b                          	popq	%rbx
10000b345: 41 5e                       	popq	%r14
10000b347: 41 5f                       	popq	%r15
10000b349: 5d                          	popq	%rbp
10000b34a: 41 ff e0                    	jmpq	*%r8
10000b34d: 48 83 c4 18                 	addq	$24, %rsp
10000b351: 5b                          	popq	%rbx
10000b352: 41 5e                       	popq	%r14
10000b354: 41 5f                       	popq	%r15
10000b356: 5d                          	popq	%rbp
10000b357: c3                          	retq
10000b358: 0f 1f 84 00 00 00 00 00     	nopl	(%rax,%rax)

000000010000b360 -[NSWindowEvent mouseUp:]:
10000b360: 55                          	pushq	%rbp
10000b361: 48 89 e5                    	movq	%rsp, %rbp
10000b364: 41 57                       	pushq	%r15
10000b366: 41 56                       	pushq	%r14
10000b368: 53                          	pushq	%rbx
10000b369: 48 83 ec 18                 	subq	$24, %rsp
10000b36d: 48 89 d3                    	movq	%rdx, %rbx
10000b370: 49 89 fe                    	movq	%rdi, %r14
10000b373: 48 8b 35 1e 16 02 00        	movq	136734(%rip), %rsi
10000b37a: 4c 8b 3d b7 cc 01 00        	movq	117943(%rip), %r15
10000b381: 48 89 df                    	movq	%rbx, %rdi
10000b384: 41 ff d7                    	callq	*%r15
10000b387: f2 0f 11 45 d8              	movsd	%xmm0, -40(%rbp)
10000b38c: f2 0f 11 4d e0              	movsd	%xmm1, -32(%rbp)
10000b391: 48 8b 35 08 16 02 00        	movq	136712(%rip), %rsi
10000b398: 48 89 df                    	movq	%rbx, %rdi
10000b39b: 41 ff d7                    	callq	*%r15
10000b39e: 48 83 f8 1b                 	cmpq	$27, %rax
10000b3a2: 77 34                       	ja	52 <-[NSWindowEvent mouseUp:]+0x78>
10000b3a4: bf 01 00 00 00              	movl	$1, %edi
10000b3a9: b9 46 00 00 00              	movl	$70, %ecx
10000b3ae: 48 0f a3 c1                 	btq	%rax, %rcx
10000b3b2: 72 26                       	jb	38 <-[NSWindowEvent mouseUp:]+0x7a>
10000b3b4: b9 98 00 00 00              	movl	$152, %ecx
10000b3b9: 48 0f a3 c1                 	btq	%rax, %rcx
10000b3bd: 73 07                       	jae	7 <-[NSWindowEvent mouseUp:]+0x66>
10000b3bf: bf 02 00 00 00              	movl	$2, %edi
10000b3c4: eb 14                       	jmp	20 <-[NSWindowEvent mouseUp:]+0x7a>
10000b3c6: b9 00 00 00 0e              	movl	$234881024, %ecx
10000b3cb: 48 0f a3 c1                 	btq	%rax, %rcx
10000b3cf: 73 07                       	jae	7 <-[NSWindowEvent mouseUp:]+0x78>
10000b3d1: bf 03 00 00 00              	movl	$3, %edi
10000b3d6: eb 02                       	jmp	2 <-[NSWindowEvent mouseUp:]+0x7a>
10000b3d8: 31 ff                       	xorl	%edi, %edi
10000b3da: 48 8b 05 97 17 02 00        	movq	137111(%rip), %rax
10000b3e1: 4e 8b 44 30 28              	movq	40(%rax,%r14), %r8
10000b3e6: 4d 85 c0                    	testq	%r8, %r8
10000b3e9: 74 32                       	je	50 <-[NSWindowEvent mouseUp:]+0xbd>
10000b3eb: f2 0f 2c 75 d8              	cvttsd2si	-40(%rbp), %esi
10000b3f0: 48 8b 05 a9 17 02 00        	movq	137129(%rip), %rax
10000b3f7: f2 0f 2c 55 e0              	cvttsd2si	-32(%rbp), %edx
10000b3fc: f7 d2                       	notl	%edx
10000b3fe: 41 03 14 06                 	addl	(%r14,%rax), %edx
10000b402: 48 8b 05 77 17 02 00        	movq	137079(%rip), %rax
10000b409: 4a 8b 4c 30 28              	movq	40(%rax,%r14), %rcx
10000b40e: 31 c0                       	xorl	%eax, %eax
10000b410: 48 83 c4 18                 	addq	$24, %rsp
10000b414: 5b                          	popq	%rbx
10000b415: 41 5e                       	popq	%r14
10000b417: 41 5f                       	popq	%r15
10000b419: 5d                          	popq	%rbp
10000b41a: 41 ff e0                    	jmpq	*%r8
10000b41d: 48 83 c4 18                 	addq	$24, %rsp
10000b421: 5b                          	popq	%rbx
10000b422: 41 5e                       	popq	%r14
10000b424: 41 5f                       	popq	%r15
10000b426: 5d                          	popq	%rbp
10000b427: c3                          	retq
10000b428: 0f 1f 84 00 00 00 00 00     	nopl	(%rax,%rax)

000000010000b430 -[NSWindowEvent rightMouseUp:]:
10000b430: 55                          	pushq	%rbp
10000b431: 48 89 e5                    	movq	%rsp, %rbp
10000b434: 41 57                       	pushq	%r15
10000b436: 41 56                       	pushq	%r14
10000b438: 53                          	pushq	%rbx
10000b439: 48 83 ec 18                 	subq	$24, %rsp
10000b43d: 48 89 d3                    	movq	%rdx, %rbx
10000b440: 49 89 fe                    	movq	%rdi, %r14
10000b443: 48 8b 35 4e 15 02 00        	movq	136526(%rip), %rsi
10000b44a: 4c 8b 3d e7 cb 01 00        	movq	117735(%rip), %r15
10000b451: 48 89 df                    	movq	%rbx, %rdi
10000b454: 41 ff d7                    	callq	*%r15
10000b457: f2 0f 11 45 d8              	movsd	%xmm0, -40(%rbp)
10000b45c: f2 0f 11 4d e0              	movsd	%xmm1, -32(%rbp)
10000b461: 48 8b 35 38 15 02 00        	movq	136504(%rip), %rsi
10000b468: 48 89 df                    	movq	%rbx, %rdi
10000b46b: 41 ff d7                    	callq	*%r15
10000b46e: 48 83 f8 1b                 	cmpq	$27, %rax
10000b472: 77 34                       	ja	52 <-[NSWindowEvent rightMouseUp:]+0x78>
10000b474: bf 01 00 00 00              	movl	$1, %edi
10000b479: b9 46 00 00 00              	movl	$70, %ecx
10000b47e: 48 0f a3 c1                 	btq	%rax, %rcx
10000b482: 72 26                       	jb	38 <-[NSWindowEvent rightMouseUp:]+0x7a>
10000b484: b9 98 00 00 00              	movl	$152, %ecx
10000b489: 48 0f a3 c1                 	btq	%rax, %rcx
10000b48d: 73 07                       	jae	7 <-[NSWindowEvent rightMouseUp:]+0x66>
10000b48f: bf 02 00 00 00              	movl	$2, %edi
10000b494: eb 14                       	jmp	20 <-[NSWindowEvent rightMouseUp:]+0x7a>
10000b496: b9 00 00 00 0e              	movl	$234881024, %ecx
10000b49b: 48 0f a3 c1                 	btq	%rax, %rcx
10000b49f: 73 07                       	jae	7 <-[NSWindowEvent rightMouseUp:]+0x78>
10000b4a1: bf 03 00 00 00              	movl	$3, %edi
10000b4a6: eb 02                       	jmp	2 <-[NSWindowEvent rightMouseUp:]+0x7a>
10000b4a8: 31 ff                       	xorl	%edi, %edi
10000b4aa: 48 8b 05 c7 16 02 00        	movq	136903(%rip), %rax
10000b4b1: 4e 8b 44 30 28              	movq	40(%rax,%r14), %r8
10000b4b6: 4d 85 c0                    	testq	%r8, %r8
10000b4b9: 74 32                       	je	50 <-[NSWindowEvent rightMouseUp:]+0xbd>
10000b4bb: f2 0f 2c 75 d8              	cvttsd2si	-40(%rbp), %esi
10000b4c0: 48 8b 05 d9 16 02 00        	movq	136921(%rip), %rax
10000b4c7: f2 0f 2c 55 e0              	cvttsd2si	-32(%rbp), %edx
10000b4cc: f7 d2                       	notl	%edx
10000b4ce: 41 03 14 06                 	addl	(%r14,%rax), %edx
10000b4d2: 48 8b 05 a7 16 02 00        	movq	136871(%rip), %rax
10000b4d9: 4a 8b 4c 30 28              	movq	40(%rax,%r14), %rcx
10000b4de: 31 c0                       	xorl	%eax, %eax
10000b4e0: 48 83 c4 18                 	addq	$24, %rsp
10000b4e4: 5b                          	popq	%rbx
10000b4e5: 41 5e                       	popq	%r14
10000b4e7: 41 5f                       	popq	%r15
10000b4e9: 5d                          	popq	%rbp
10000b4ea: 41 ff e0                    	jmpq	*%r8
10000b4ed: 48 83 c4 18                 	addq	$24, %rsp
10000b4f1: 5b                          	popq	%rbx
10000b4f2: 41 5e                       	popq	%r14
10000b4f4: 41 5f                       	popq	%r15
10000b4f6: 5d                          	popq	%rbp
10000b4f7: c3                          	retq
10000b4f8: 0f 1f 84 00 00 00 00 00     	nopl	(%rax,%rax)

000000010000b500 -[NSWindowEvent otherMouseUp:]:
10000b500: 55                          	pushq	%rbp
10000b501: 48 89 e5                    	movq	%rsp, %rbp
10000b504: 41 57                       	pushq	%r15
10000b506: 41 56                       	pushq	%r14
10000b508: 53                          	pushq	%rbx
10000b509: 48 83 ec 18                 	subq	$24, %rsp
10000b50d: 48 89 d3                    	movq	%rdx, %rbx
10000b510: 49 89 fe                    	movq	%rdi, %r14
10000b513: 48 8b 35 7e 14 02 00        	movq	136318(%rip), %rsi
10000b51a: 4c 8b 3d 17 cb 01 00        	movq	117527(%rip), %r15
10000b521: 48 89 df                    	movq	%rbx, %rdi
10000b524: 41 ff d7                    	callq	*%r15
10000b527: f2 0f 11 45 d8              	movsd	%xmm0, -40(%rbp)
10000b52c: f2 0f 11 4d e0              	movsd	%xmm1, -32(%rbp)
10000b531: 48 8b 35 68 14 02 00        	movq	136296(%rip), %rsi
10000b538: 48 89 df                    	movq	%rbx, %rdi
10000b53b: 41 ff d7                    	callq	*%r15
10000b53e: 48 83 f8 1b                 	cmpq	$27, %rax
10000b542: 77 34                       	ja	52 <-[NSWindowEvent otherMouseUp:]+0x78>
10000b544: bf 01 00 00 00              	movl	$1, %edi
10000b549: b9 46 00 00 00              	movl	$70, %ecx
10000b54e: 48 0f a3 c1                 	btq	%rax, %rcx
10000b552: 72 26                       	jb	38 <-[NSWindowEvent otherMouseUp:]+0x7a>
10000b554: b9 98 00 00 00              	movl	$152, %ecx
10000b559: 48 0f a3 c1                 	btq	%rax, %rcx
10000b55d: 73 07                       	jae	7 <-[NSWindowEvent otherMouseUp:]+0x66>
10000b55f: bf 02 00 00 00              	movl	$2, %edi
10000b564: eb 14                       	jmp	20 <-[NSWindowEvent otherMouseUp:]+0x7a>
10000b566: b9 00 00 00 0e              	movl	$234881024, %ecx
10000b56b: 48 0f a3 c1                 	btq	%rax, %rcx
10000b56f: 73 07                       	jae	7 <-[NSWindowEvent otherMouseUp:]+0x78>
10000b571: bf 03 00 00 00              	movl	$3, %edi
10000b576: eb 02                       	jmp	2 <-[NSWindowEvent otherMouseUp:]+0x7a>
10000b578: 31 ff                       	xorl	%edi, %edi
10000b57a: 48 8b 05 f7 15 02 00        	movq	136695(%rip), %rax
10000b581: 4e 8b 44 30 28              	movq	40(%rax,%r14), %r8
10000b586: 4d 85 c0                    	testq	%r8, %r8
10000b589: 74 32                       	je	50 <-[NSWindowEvent otherMouseUp:]+0xbd>
10000b58b: f2 0f 2c 75 d8              	cvttsd2si	-40(%rbp), %esi
10000b590: 48 8b 05 09 16 02 00        	movq	136713(%rip), %rax
10000b597: f2 0f 2c 55 e0              	cvttsd2si	-32(%rbp), %edx
10000b59c: f7 d2                       	notl	%edx
10000b59e: 41 03 14 06                 	addl	(%r14,%rax), %edx
10000b5a2: 48 8b 05 d7 15 02 00        	movq	136663(%rip), %rax
10000b5a9: 4a 8b 4c 30 28              	movq	40(%rax,%r14), %rcx
10000b5ae: 31 c0                       	xorl	%eax, %eax
10000b5b0: 48 83 c4 18                 	addq	$24, %rsp
10000b5b4: 5b                          	popq	%rbx
10000b5b5: 41 5e                       	popq	%r14
10000b5b7: 41 5f                       	popq	%r15
10000b5b9: 5d                          	popq	%rbp
10000b5ba: 41 ff e0                    	jmpq	*%r8
10000b5bd: 48 83 c4 18                 	addq	$24, %rsp
10000b5c1: 5b                          	popq	%rbx
10000b5c2: 41 5e                       	popq	%r14
10000b5c4: 41 5f                       	popq	%r15
10000b5c6: 5d                          	popq	%rbp
10000b5c7: c3                          	retq
10000b5c8: 0f 1f 84 00 00 00 00 00     	nopl	(%rax,%rax)

000000010000b5d0 -[NSWindowEvent mouseMoved:]:
10000b5d0: 55                          	pushq	%rbp
10000b5d1: 48 89 e5                    	movq	%rsp, %rbp
10000b5d4: 53                          	pushq	%rbx
10000b5d5: 50                          	pushq	%rax
10000b5d6: 48 89 fb                    	movq	%rdi, %rbx
10000b5d9: 48 8b 35 b8 13 02 00        	movq	136120(%rip), %rsi
10000b5e0: 48 89 d7                    	movq	%rdx, %rdi
10000b5e3: ff 15 4f ca 01 00           	callq	*117327(%rip)
10000b5e9: 48 8b 05 88 15 02 00        	movq	136584(%rip), %rax
10000b5f0: 48 8b 4c 18 30              	movq	48(%rax,%rbx), %rcx
10000b5f5: 48 85 c9                    	testq	%rcx, %rcx
10000b5f8: 74 2a                       	je	42 <-[NSWindowEvent mouseMoved:]+0x54>
10000b5fa: f2 0f 2c f8                 	cvttsd2si	%xmm0, %edi
10000b5fe: 48 8b 05 9b 15 02 00        	movq	136603(%rip), %rax
10000b605: f2 0f 2c f1                 	cvttsd2si	%xmm1, %esi
10000b609: f7 d6                       	notl	%esi
10000b60b: 03 34 03                    	addl	(%rbx,%rax), %esi
10000b60e: 48 8b 05 6b 15 02 00        	movq	136555(%rip), %rax
10000b615: 48 8b 54 18 30              	movq	48(%rax,%rbx), %rdx
10000b61a: 31 c0                       	xorl	%eax, %eax
10000b61c: 48 83 c4 08                 	addq	$8, %rsp
10000b620: 5b                          	popq	%rbx
10000b621: 5d                          	popq	%rbp
10000b622: ff e1                       	jmpq	*%rcx
10000b624: 48 83 c4 08                 	addq	$8, %rsp
10000b628: 5b                          	popq	%rbx
10000b629: 5d                          	popq	%rbp
10000b62a: c3                          	retq
10000b62b: 0f 1f 44 00 00              	nopl	(%rax,%rax)

000000010000b630 -[NSWindowEvent mouseDragged:]:
10000b630: 55                          	pushq	%rbp
10000b631: 48 89 e5                    	movq	%rsp, %rbp
10000b634: 53                          	pushq	%rbx
10000b635: 50                          	pushq	%rax
10000b636: 48 89 fb                    	movq	%rdi, %rbx
10000b639: 48 8b 35 58 13 02 00        	movq	136024(%rip), %rsi
10000b640: 48 89 d7                    	movq	%rdx, %rdi
10000b643: ff 15 ef c9 01 00           	callq	*117231(%rip)
10000b649: 48 8b 05 28 15 02 00        	movq	136488(%rip), %rax
10000b650: 48 8b 4c 18 30              	movq	48(%rax,%rbx), %rcx
10000b655: 48 85 c9                    	testq	%rcx, %rcx
10000b658: 74 2a                       	je	42 <-[NSWindowEvent mouseDragged:]+0x54>
10000b65a: f2 0f 2c f8                 	cvttsd2si	%xmm0, %edi
10000b65e: 48 8b 05 3b 15 02 00        	movq	136507(%rip), %rax
10000b665: f2 0f 2c f1                 	cvttsd2si	%xmm1, %esi
10000b669: f7 d6                       	notl	%esi
10000b66b: 03 34 03                    	addl	(%rbx,%rax), %esi
10000b66e: 48 8b 05 0b 15 02 00        	movq	136459(%rip), %rax
10000b675: 48 8b 54 18 30              	movq	48(%rax,%rbx), %rdx
10000b67a: 31 c0                       	xorl	%eax, %eax
10000b67c: 48 83 c4 08                 	addq	$8, %rsp
10000b680: 5b                          	popq	%rbx
10000b681: 5d                          	popq	%rbp
10000b682: ff e1                       	jmpq	*%rcx
10000b684: 48 83 c4 08                 	addq	$8, %rsp
10000b688: 5b                          	popq	%rbx
10000b689: 5d                          	popq	%rbp
10000b68a: c3                          	retq
10000b68b: 0f 1f 44 00 00              	nopl	(%rax,%rax)

000000010000b690 -[NSWindowEvent rightMouseDragged:]:
10000b690: 55                          	pushq	%rbp
10000b691: 48 89 e5                    	movq	%rsp, %rbp
10000b694: 53                          	pushq	%rbx
10000b695: 50                          	pushq	%rax
10000b696: 48 89 fb                    	movq	%rdi, %rbx
10000b699: 48 8b 35 f8 12 02 00        	movq	135928(%rip), %rsi
10000b6a0: 48 89 d7                    	movq	%rdx, %rdi
10000b6a3: ff 15 8f c9 01 00           	callq	*117135(%rip)
10000b6a9: 48 8b 05 c8 14 02 00        	movq	136392(%rip), %rax
10000b6b0: 48 8b 4c 18 30              	movq	48(%rax,%rbx), %rcx
10000b6b5: 48 85 c9                    	testq	%rcx, %rcx
10000b6b8: 74 2a                       	je	42 <-[NSWindowEvent rightMouseDragged:]+0x54>
10000b6ba: f2 0f 2c f8                 	cvttsd2si	%xmm0, %edi
10000b6be: 48 8b 05 db 14 02 00        	movq	136411(%rip), %rax
10000b6c5: f2 0f 2c f1                 	cvttsd2si	%xmm1, %esi
10000b6c9: f7 d6                       	notl	%esi
10000b6cb: 03 34 03                    	addl	(%rbx,%rax), %esi
10000b6ce: 48 8b 05 ab 14 02 00        	movq	136363(%rip), %rax
10000b6d5: 48 8b 54 18 30              	movq	48(%rax,%rbx), %rdx
10000b6da: 31 c0                       	xorl	%eax, %eax
10000b6dc: 48 83 c4 08                 	addq	$8, %rsp
10000b6e0: 5b                          	popq	%rbx
10000b6e1: 5d                          	popq	%rbp
10000b6e2: ff e1                       	jmpq	*%rcx
10000b6e4: 48 83 c4 08                 	addq	$8, %rsp
10000b6e8: 5b                          	popq	%rbx
10000b6e9: 5d                          	popq	%rbp
10000b6ea: c3                          	retq
10000b6eb: 0f 1f 44 00 00              	nopl	(%rax,%rax)

000000010000b6f0 -[NSWindowEvent otherMouseDragged:]:
10000b6f0: 55                          	pushq	%rbp
10000b6f1: 48 89 e5                    	movq	%rsp, %rbp
10000b6f4: 53                          	pushq	%rbx
10000b6f5: 50                          	pushq	%rax
10000b6f6: 48 89 fb                    	movq	%rdi, %rbx
10000b6f9: 48 8b 35 98 12 02 00        	movq	135832(%rip), %rsi
10000b700: 48 89 d7                    	movq	%rdx, %rdi
10000b703: ff 15 2f c9 01 00           	callq	*117039(%rip)
10000b709: 48 8b 05 68 14 02 00        	movq	136296(%rip), %rax
10000b710: 48 8b 4c 18 30              	movq	48(%rax,%rbx), %rcx
10000b715: 48 85 c9                    	testq	%rcx, %rcx
10000b718: 74 2a                       	je	42 <-[NSWindowEvent otherMouseDragged:]+0x54>
10000b71a: f2 0f 2c f8                 	cvttsd2si	%xmm0, %edi
10000b71e: 48 8b 05 7b 14 02 00        	movq	136315(%rip), %rax
10000b725: f2 0f 2c f1                 	cvttsd2si	%xmm1, %esi
10000b729: f7 d6                       	notl	%esi
10000b72b: 03 34 03                    	addl	(%rbx,%rax), %esi
10000b72e: 48 8b 05 4b 14 02 00        	movq	136267(%rip), %rax
10000b735: 48 8b 54 18 30              	movq	48(%rax,%rbx), %rdx
10000b73a: 31 c0                       	xorl	%eax, %eax
10000b73c: 48 83 c4 08                 	addq	$8, %rsp
10000b740: 5b                          	popq	%rbx
10000b741: 5d                          	popq	%rbp
10000b742: ff e1                       	jmpq	*%rcx
10000b744: 48 83 c4 08                 	addq	$8, %rsp
10000b748: 5b                          	popq	%rbx
10000b749: 5d                          	popq	%rbp
10000b74a: c3                          	retq
10000b74b: 0f 1f 44 00 00              	nopl	(%rax,%rax)

000000010000b750 -[NSWindowEvent scrollWheel:]:
10000b750: 55                          	pushq	%rbp
10000b751: 48 89 e5                    	movq	%rsp, %rbp
10000b754: 41 57                       	pushq	%r15
10000b756: 41 56                       	pushq	%r14
10000b758: 41 55                       	pushq	%r13
10000b75a: 41 54                       	pushq	%r12
10000b75c: 53                          	pushq	%rbx
10000b75d: 48 83 ec 18                 	subq	$24, %rsp
10000b761: 49 89 d5                    	movq	%rdx, %r13
10000b764: 49 89 fe                    	movq	%rdi, %r14
10000b767: 4c 8b 3d 0a 14 02 00        	movq	136202(%rip), %r15
10000b76e: 4b 83 7c 37 20 00           	cmpq	$0, 32(%r15,%r14)
10000b774: 0f 84 d0 00 00 00           	je	208 <-[NSWindowEvent scrollWheel:]+0xfa>
10000b77a: 48 8b 35 17 12 02 00        	movq	135703(%rip), %rsi
10000b781: 4c 8b 25 b0 c8 01 00        	movq	116912(%rip), %r12
10000b788: 4c 89 ef                    	movq	%r13, %rdi
10000b78b: 41 ff d4                    	callq	*%r12
10000b78e: f2 0f 11 45 c8              	movsd	%xmm0, -56(%rbp)
10000b793: f2 0f 11 4d d0              	movsd	%xmm1, -48(%rbp)
10000b798: 48 8b 35 09 12 02 00        	movq	135689(%rip), %rsi
10000b79f: 4c 89 ef                    	movq	%r13, %rdi
10000b7a2: 41 ff d4                    	callq	*%r12
10000b7a5: f2 0f 5a c0                 	cvtsd2ss	%xmm0, %xmm0
10000b7a9: f3 0f 5a c0                 	cvtss2sd	%xmm0, %xmm0
10000b7ad: 66 0f 2e 05 13 58 00 00     	ucomisd	22547(%rip), %xmm0
10000b7b5: 0f 97 c0                    	seta	%al
10000b7b8: 0f b6 c0                    	movzbl	%al, %eax
10000b7bb: c1 e0 02                    	shll	$2, %eax
10000b7be: f2 0f 10 0d 62 57 00 00     	movsd	22370(%rip), %xmm1
10000b7c6: 66 0f 2e c8                 	ucomisd	%xmm0, %xmm1
10000b7ca: bb 05 00 00 00              	movl	$5, %ebx
10000b7cf: 0f 46 d8                    	cmovbel	%eax, %ebx
10000b7d2: 48 8b 35 d7 11 02 00        	movq	135639(%rip), %rsi
10000b7d9: 4c 89 ef                    	movq	%r13, %rdi
10000b7dc: 41 ff d4                    	callq	*%r12
10000b7df: f2 0f 5a c0                 	cvtsd2ss	%xmm0, %xmm0
10000b7e3: f3 0f 5a c0                 	cvtss2sd	%xmm0, %xmm0
10000b7e7: 66 0f 2e 05 d9 57 00 00     	ucomisd	22489(%rip), %xmm0
10000b7ef: b8 06 00 00 00              	movl	$6, %eax
10000b7f4: 0f 46 c3                    	cmovbel	%ebx, %eax
10000b7f7: f2 0f 10 0d 29 57 00 00     	movsd	22313(%rip), %xmm1
10000b7ff: 66 0f 2e c8                 	ucomisd	%xmm0, %xmm1
10000b803: bf 07 00 00 00              	movl	$7, %edi
10000b808: 0f 46 f8                    	cmovbel	%eax, %edi
10000b80b: 85 ff                       	testl	%edi, %edi
10000b80d: 74 3b                       	je	59 <-[NSWindowEvent scrollWheel:]+0xfa>
10000b80f: 4f 8b 44 37 20              	movq	32(%r15,%r14), %r8
10000b814: f2 0f 2c 75 c8              	cvttsd2si	-56(%rbp), %esi
10000b819: 48 8b 05 80 13 02 00        	movq	136064(%rip), %rax
10000b820: f2 0f 2c 55 d0              	cvttsd2si	-48(%rbp), %edx
10000b825: f7 d2                       	notl	%edx
10000b827: 41 03 14 06                 	addl	(%r14,%rax), %edx
10000b82b: 48 8b 05 4e 13 02 00        	movq	136014(%rip), %rax
10000b832: 4a 8b 4c 30 20              	movq	32(%rax,%r14), %rcx
10000b837: 31 c0                       	xorl	%eax, %eax
10000b839: 48 83 c4 18                 	addq	$24, %rsp
10000b83d: 5b                          	popq	%rbx
10000b83e: 41 5c                       	popq	%r12
10000b840: 41 5d                       	popq	%r13
10000b842: 41 5e                       	popq	%r14
10000b844: 41 5f                       	popq	%r15
10000b846: 5d                          	popq	%rbp
10000b847: 41 ff e0                    	jmpq	*%r8
10000b84a: 48 83 c4 18                 	addq	$24, %rsp
10000b84e: 5b                          	popq	%rbx
10000b84f: 41 5c                       	popq	%r12
10000b851: 41 5d                       	popq	%r13
10000b853: 41 5e                       	popq	%r14
10000b855: 41 5f                       	popq	%r15
10000b857: 5d                          	popq	%rbp
10000b858: c3                          	retq
10000b859: 0f 1f 80 00 00 00 00        	nopl	(%rax)

000000010000b860 -[NSWindowEvent exposeNotification:]:
10000b860: 55                          	pushq	%rbp
10000b861: 48 89 e5                    	movq	%rsp, %rbp
10000b864: 48 8b 05 0d 13 02 00        	movq	135949(%rip), %rax
10000b86b: 48 8b 4c 38 60              	movq	96(%rax,%rdi), %rcx
10000b870: 48 85 c9                    	testq	%rcx, %rcx
10000b873: 74 11                       	je	17 <-[NSWindowEvent exposeNotification:]+0x26>
10000b875: 48 8b 05 04 13 02 00        	movq	135940(%rip), %rax
10000b87c: 48 8b 7c 38 60              	movq	96(%rax,%rdi), %rdi
10000b881: 31 c0                       	xorl	%eax, %eax
10000b883: 5d                          	popq	%rbp
10000b884: ff e1                       	jmpq	*%rcx
10000b886: 5d                          	popq	%rbp
10000b887: c3                          	retq
10000b888: 0f 1f 84 00 00 00 00 00     	nopl	(%rax,%rax)

000000010000b890 -[NSWindowEvent closeNotification:]:
10000b890: 55                          	pushq	%rbp
10000b891: 48 89 e5                    	movq	%rsp, %rbp
10000b894: 48 8b 05 dd 12 02 00        	movq	135901(%rip), %rax
10000b89b: 48 8b 8c 38 88 00 00 00     	movq	136(%rax,%rdi), %rcx
10000b8a3: 48 85 c9                    	testq	%rcx, %rcx
10000b8a6: 74 14                       	je	20 <-[NSWindowEvent closeNotification:]+0x2c>
10000b8a8: 48 8b 05 d1 12 02 00        	movq	135889(%rip), %rax
10000b8af: 48 8b bc 38 88 00 00 00     	movq	136(%rax,%rdi), %rdi
10000b8b7: 31 c0                       	xorl	%eax, %eax
10000b8b9: 5d                          	popq	%rbp
10000b8ba: ff e1                       	jmpq	*%rcx
10000b8bc: 5d                          	popq	%rbp
10000b8bd: c3                          	retq
10000b8be: 66 90                       	nop

000000010000b8c0 -[NSWindowEvent deminiaturizeNotification:]:
10000b8c0: 55                          	pushq	%rbp
10000b8c1: 48 89 e5                    	movq	%rsp, %rbp
10000b8c4: 48 8b 35 ed 10 02 00        	movq	135405(%rip), %rsi
10000b8cb: 5d                          	popq	%rbp
10000b8cc: ff 25 66 c7 01 00           	jmpq	*116582(%rip)
10000b8d2: 66 66 66 66 66 2e 0f 1f 84 00 00 00 00 00   	nopw	%cs:(%rax,%rax)

000000010000b8e0 -[MlxWin initWithRect:andTitle:pfaAttrs:]:
10000b8e0: 55                          	pushq	%rbp
10000b8e1: 48 89 e5                    	movq	%rsp, %rbp
10000b8e4: 41 57                       	pushq	%r15
10000b8e6: 41 56                       	pushq	%r14
10000b8e8: 41 55                       	pushq	%r13
10000b8ea: 41 54                       	pushq	%r12
10000b8ec: 53                          	pushq	%rbx
10000b8ed: 48 83 ec 38                 	subq	$56, %rsp
10000b8f1: 48 89 cb                    	movq	%rcx, %rbx
10000b8f4: 49 89 d7                    	movq	%rdx, %r15
10000b8f7: 49 89 fc                    	movq	%rdi, %r12
10000b8fa: 48 8b 3d 1f 12 02 00        	movq	135711(%rip), %rdi
10000b901: 48 8b 35 b8 10 02 00        	movq	135352(%rip), %rsi
10000b908: 4c 8b 2d 29 c7 01 00        	movq	116521(%rip), %r13
10000b90f: 41 ff d5                    	callq	*%r13
10000b912: 48 8b 35 af 10 02 00        	movq	135343(%rip), %rsi
10000b919: 48 89 c7                    	movq	%rax, %rdi
10000b91c: 48 89 da                    	movq	%rbx, %rdx
10000b91f: 41 ff d5                    	callq	*%r13
10000b922: 49 89 c6                    	movq	%rax, %r14
10000b925: 4c 89 65 c8                 	movq	%r12, -56(%rbp)
10000b929: 48 8b 05 40 12 02 00        	movq	135744(%rip), %rax
10000b930: 48 89 45 d0                 	movq	%rax, -48(%rbp)
10000b934: 48 8b 35 95 10 02 00        	movq	135317(%rip), %rsi
10000b93b: 48 8b 45 28                 	movq	40(%rbp), %rax
10000b93f: 48 89 44 24 18              	movq	%rax, 24(%rsp)
10000b944: 48 8b 45 20                 	movq	32(%rbp), %rax
10000b948: 48 89 44 24 10              	movq	%rax, 16(%rsp)
10000b94d: 48 8b 45 10                 	movq	16(%rbp), %rax
10000b951: 48 8b 4d 18                 	movq	24(%rbp), %rcx
10000b955: 48 89 4c 24 08              	movq	%rcx, 8(%rsp)
10000b95a: 48 89 04 24                 	movq	%rax, (%rsp)
10000b95e: 48 8d 7d c8                 	leaq	-56(%rbp), %rdi
10000b962: 4c 89 f2                    	movq	%r14, %rdx
10000b965: e8 e8 29 00 00              	callq	10728 <dyld_stub_binder+0x10000e352>
10000b96a: 48 89 c3                    	movq	%rax, %rbx
10000b96d: 48 85 db                    	testq	%rbx, %rbx
10000b970: 0f 84 e6 01 00 00           	je	486 <-[MlxWin initWithRect:andTitle:pfaAttrs:]+0x27c>
10000b976: 4c 8d 65 10                 	leaq	16(%rbp), %r12
10000b97a: 48 8b 3d a7 11 02 00        	movq	135591(%rip), %rdi
10000b981: 48 8b 35 38 10 02 00        	movq	135224(%rip), %rsi
10000b988: 41 ff d5                    	callq	*%r13
10000b98b: 48 8b 35 de 0f 02 00        	movq	135134(%rip), %rsi
10000b992: 49 8b 4c 24 18              	movq	24(%r12), %rcx
10000b997: 48 89 4c 24 18              	movq	%rcx, 24(%rsp)
10000b99c: 49 8b 4c 24 10              	movq	16(%r12), %rcx
10000b9a1: 48 89 4c 24 10              	movq	%rcx, 16(%rsp)
10000b9a6: 49 8b 0c 24                 	movq	(%r12), %rcx
10000b9aa: 49 8b 54 24 08              	movq	8(%r12), %rdx
10000b9af: 48 89 54 24 08              	movq	%rdx, 8(%rsp)
10000b9b4: 48 89 0c 24                 	movq	%rcx, (%rsp)
10000b9b8: ba 07 00 00 00              	movl	$7, %edx
10000b9bd: b9 02 00 00 00              	movl	$2, %ecx
10000b9c2: 45 31 c0                    	xorl	%r8d, %r8d
10000b9c5: 48 89 c7                    	movq	%rax, %rdi
10000b9c8: 41 ff d5                    	callq	*%r13
10000b9cb: 4c 89 75 c0                 	movq	%r14, -64(%rbp)
10000b9cf: 4c 8b 35 d2 11 02 00        	movq	135634(%rip), %r14
10000b9d6: 4a 89 04 33                 	movq	%rax, (%rbx,%r14)
10000b9da: 48 8b 35 f7 0f 02 00        	movq	135159(%rip), %rsi
10000b9e1: 48 89 c7                    	movq	%rax, %rdi
10000b9e4: 48 89 da                    	movq	%rbx, %rdx
10000b9e7: 41 ff d5                    	callq	*%r13
10000b9ea: 4a 8b 3c 33                 	movq	(%rbx,%r14), %rdi
10000b9ee: 48 8b 35 eb 0f 02 00        	movq	135147(%rip), %rsi
10000b9f5: 4c 89 fa                    	movq	%r15, %rdx
10000b9f8: 41 ff d5                    	callq	*%r13
10000b9fb: 4a 8b 3c 33                 	movq	(%rbx,%r14), %rdi
10000b9ff: 48 8b 35 e2 0f 02 00        	movq	135138(%rip), %rsi
10000ba06: ba 01 00 00 00              	movl	$1, %edx
10000ba0b: 41 ff d5                    	callq	*%r13
10000ba0e: 4a 8b 3c 33                 	movq	(%rbx,%r14), %rdi
10000ba12: 48 8b 35 d7 0f 02 00        	movq	135127(%rip), %rsi
10000ba19: 48 89 da                    	movq	%rbx, %rdx
10000ba1c: 41 ff d5                    	callq	*%r13
10000ba1f: 48 8b 35 d2 0f 02 00        	movq	135122(%rip), %rsi
10000ba26: 48 89 df                    	movq	%rbx, %rdi
10000ba29: 41 ff d5                    	callq	*%r13
10000ba2c: 48 8b 35 cd 0f 02 00        	movq	135117(%rip), %rsi
10000ba33: 48 89 c7                    	movq	%rax, %rdi
10000ba36: 41 ff d5                    	callq	*%r13
10000ba39: 48 8b 35 b8 0f 02 00        	movq	135096(%rip), %rsi
10000ba40: 48 89 df                    	movq	%rbx, %rdi
10000ba43: 41 ff d5                    	callq	*%r13
10000ba46: 48 8b 35 bb 0f 02 00        	movq	135099(%rip), %rsi
10000ba4d: 48 89 c7                    	movq	%rax, %rdi
10000ba50: 48 89 da                    	movq	%rbx, %rdx
10000ba53: 41 ff d5                    	callq	*%r13
10000ba56: 48 8b 35 b3 0f 02 00        	movq	135091(%rip), %rsi
10000ba5d: 48 89 df                    	movq	%rbx, %rdi
10000ba60: 41 ff d5                    	callq	*%r13
10000ba63: 48 8b 35 ae 0f 02 00        	movq	135086(%rip), %rsi
10000ba6a: 48 89 df                    	movq	%rbx, %rdi
10000ba6d: 48 89 da                    	movq	%rbx, %rdx
10000ba70: 41 ff d5                    	callq	*%r13
10000ba73: 48 8b 3d b6 10 02 00        	movq	135350(%rip), %rdi
10000ba7a: 48 8b 35 9f 0f 02 00        	movq	135071(%rip), %rsi
10000ba81: 41 ff d5                    	callq	*%r13
10000ba84: 4a 8b 14 33                 	movq	(%rbx,%r14), %rdx
10000ba88: 48 8b 0d 29 0f 02 00        	movq	134953(%rip), %rcx
10000ba8f: 48 8b 35 92 0f 02 00        	movq	135058(%rip), %rsi
10000ba96: 4c 8d 05 ab c5 01 00        	leaq	116139(%rip), %r8
10000ba9d: 48 89 c7                    	movq	%rax, %rdi
10000baa0: 49 89 d1                    	movq	%rdx, %r9
10000baa3: 41 ff d5                    	callq	*%r13
10000baa6: 48 8b 3d 83 10 02 00        	movq	135299(%rip), %rdi
10000baad: 48 8b 35 6c 0f 02 00        	movq	135020(%rip), %rsi
10000bab4: 41 ff d5                    	callq	*%r13
10000bab7: 4a 8b 14 33                 	movq	(%rbx,%r14), %rdx
10000babb: 48 8b 0d 6e 0f 02 00        	movq	135022(%rip), %rcx
10000bac2: 48 8b 35 5f 0f 02 00        	movq	135007(%rip), %rsi
10000bac9: 4c 8d 05 98 c5 01 00        	leaq	116120(%rip), %r8
10000bad0: 48 89 c7                    	movq	%rax, %rdi
10000bad3: 49 89 d1                    	movq	%rdx, %r9
10000bad6: 41 ff d5                    	callq	*%r13
10000bad9: 48 8b 3d 50 10 02 00        	movq	135248(%rip), %rdi
10000bae0: 48 8b 35 39 0f 02 00        	movq	134969(%rip), %rsi
10000bae7: 41 ff d5                    	callq	*%r13
10000baea: 4a 8b 14 33                 	movq	(%rbx,%r14), %rdx
10000baee: 48 8b 0d 43 0f 02 00        	movq	134979(%rip), %rcx
10000baf5: 48 8b 35 2c 0f 02 00        	movq	134956(%rip), %rsi
10000bafc: 4c 8d 05 85 c5 01 00        	leaq	116101(%rip), %r8
10000bb03: 48 89 c7                    	movq	%rax, %rdi
10000bb06: 49 89 d1                    	movq	%rdx, %r9
10000bb09: 41 ff d5                    	callq	*%r13
10000bb0c: f2 41 0f 2c 44 24 10        	cvttsd2si	16(%r12), %eax
10000bb13: 48 8b 0d 96 10 02 00        	movq	135318(%rip), %rcx
10000bb1a: 89 04 0b                    	movl	%eax, (%rbx,%rcx)
10000bb1d: f2 41 0f 2c 44 24 18        	cvttsd2si	24(%r12), %eax
10000bb24: 48 8b 0d 8d 10 02 00        	movq	135309(%rip), %rcx
10000bb2b: 89 04 0b                    	movl	%eax, (%rbx,%rcx)
10000bb2e: 0f 57 c0                    	xorps	%xmm0, %xmm0
10000bb31: 0f 57 c9                    	xorps	%xmm1, %xmm1
10000bb34: 0f 57 d2                    	xorps	%xmm2, %xmm2
10000bb37: 0f 57 db                    	xorps	%xmm3, %xmm3
10000bb3a: e8 2f 27 00 00              	callq	10031 <dyld_stub_binder+0x10000e26e>
10000bb3f: bf 00 40 00 00              	movl	$16384, %edi
10000bb44: e8 1f 27 00 00              	callq	10015 <dyld_stub_binder+0x10000e268>
10000bb49: e8 6e 27 00 00              	callq	10094 <dyld_stub_binder+0x10000e2bc>
10000bb4e: 48 8b 35 eb 0e 02 00        	movq	134891(%rip), %rsi
10000bb55: 48 8b 7d c0                 	movq	-64(%rbp), %rdi
10000bb59: 41 ff d5                    	callq	*%r13
10000bb5c: 48 89 d8                    	movq	%rbx, %rax
10000bb5f: 48 83 c4 38                 	addq	$56, %rsp
10000bb63: 5b                          	popq	%rbx
10000bb64: 41 5c                       	popq	%r12
10000bb66: 41 5d                       	popq	%r13
10000bb68: 41 5e                       	popq	%r14
10000bb6a: 41 5f                       	popq	%r15
10000bb6c: 5d                          	popq	%rbp
10000bb6d: c3                          	retq
10000bb6e: 66 90                       	nop

000000010000bb70 -[MlxWin pixel_management]:
10000bb70: 55                          	pushq	%rbp
10000bb71: 48 89 e5                    	movq	%rsp, %rbp
10000bb74: 41 57                       	pushq	%r15
10000bb76: 41 56                       	pushq	%r14
10000bb78: 41 55                       	pushq	%r13
10000bb7a: 41 54                       	pushq	%r12
10000bb7c: 53                          	pushq	%rbx
10000bb7d: 48 83 ec 18                 	subq	$24, %rsp
10000bb81: 48 89 fb                    	movq	%rdi, %rbx
10000bb84: 4c 8b 2d 35 10 02 00        	movq	135221(%rip), %r13
10000bb8b: 4a c7 44 2b 58 00 00 00 00  	movq	$0, 88(%rbx,%r13)
10000bb94: 4a c7 44 2b 50 00 00 00 00  	movq	$0, 80(%rbx,%r13)
10000bb9d: 4a c7 44 2b 48 00 00 00 00  	movq	$0, 72(%rbx,%r13)
10000bba6: 4a c7 44 2b 40 00 00 00 00  	movq	$0, 64(%rbx,%r13)
10000bbaf: 4a c7 44 2b 38 00 00 00 00  	movq	$0, 56(%rbx,%r13)
10000bbb8: 4a c7 44 2b 30 00 00 00 00  	movq	$0, 48(%rbx,%r13)
10000bbc1: 4a c7 44 2b 28 00 00 00 00  	movq	$0, 40(%rbx,%r13)
10000bbca: 4a c7 44 2b 20 00 00 00 00  	movq	$0, 32(%rbx,%r13)
10000bbd3: 4a c7 44 2b 18 00 00 00 00  	movq	$0, 24(%rbx,%r13)
10000bbdc: 4a c7 44 2b 10 00 00 00 00  	movq	$0, 16(%rbx,%r13)
10000bbe5: 4a c7 44 2b 08 00 00 00 00  	movq	$0, 8(%rbx,%r13)
10000bbee: 4a c7 04 2b 00 00 00 00     	movq	$0, (%rbx,%r13)
10000bbf6: bf 71 0b 00 00              	movl	$2929, %edi
10000bbfb: e8 9e 26 00 00              	callq	9886 <dyld_stub_binder+0x10000e29e>
10000bc00: 4c 8b 35 c1 0f 02 00        	movq	135105(%rip), %r14
10000bc07: 4a 8d 34 33                 	leaq	(%rbx,%r14), %rsi
10000bc0b: bf 01 00 00 00              	movl	$1, %edi
10000bc10: e8 ad 26 00 00              	callq	9901 <dyld_stub_binder+0x10000e2c2>
10000bc15: 42 8b 34 33                 	movl	(%rbx,%r14), %esi
10000bc19: bf 92 88 00 00              	movl	$34962, %edi
10000bc1e: e8 27 26 00 00              	callq	9767 <dyld_stub_binder+0x10000e24a>
10000bc23: 48 8d 15 c6 53 00 00        	leaq	21446(%rip), %rdx
10000bc2a: bf 92 88 00 00              	movl	$34962, %edi
10000bc2f: be 20 00 00 00              	movl	$32, %esi
10000bc34: b9 e8 88 00 00              	movl	$35048, %ecx
10000bc39: e8 24 26 00 00              	callq	9764 <dyld_stub_binder+0x10000e262>
10000bc3e: 4c 8b 35 8b 0f 02 00        	movq	135051(%rip), %r14
10000bc45: 4a 8d 34 33                 	leaq	(%rbx,%r14), %rsi
10000bc49: bf 01 00 00 00              	movl	$1, %edi
10000bc4e: e8 75 26 00 00              	callq	9845 <dyld_stub_binder+0x10000e2c8>
10000bc53: 42 8b 34 33                 	movl	(%rbx,%r14), %esi
10000bc57: bf e1 0d 00 00              	movl	$3553, %edi
10000bc5c: e8 ef 25 00 00              	callq	9711 <dyld_stub_binder+0x10000e250>
10000bc61: bf e1 0d 00 00              	movl	$3553, %edi
10000bc66: be 01 28 00 00              	movl	$10241, %esi
10000bc6b: ba 00 26 00 00              	movl	$9728, %edx
10000bc70: e8 8f 26 00 00              	callq	9871 <dyld_stub_binder+0x10000e304>
10000bc75: bf e1 0d 00 00              	movl	$3553, %edi
10000bc7a: be 00 28 00 00              	movl	$10240, %esi
10000bc7f: ba 00 26 00 00              	movl	$9728, %edx
10000bc84: e8 7b 26 00 00              	callq	9851 <dyld_stub_binder+0x10000e304>
10000bc89: bf e1 0d 00 00              	movl	$3553, %edi
10000bc8e: be 02 28 00 00              	movl	$10242, %esi
10000bc93: ba 2f 81 00 00              	movl	$33071, %edx
10000bc98: e8 67 26 00 00              	callq	9831 <dyld_stub_binder+0x10000e304>
10000bc9d: bf e1 0d 00 00              	movl	$3553, %edi
10000bca2: be 03 28 00 00              	movl	$10243, %esi
10000bca7: ba 2f 81 00 00              	movl	$33071, %edx
10000bcac: e8 53 26 00 00              	callq	9811 <dyld_stub_binder+0x10000e304>
10000bcb1: 4c 8b 35 f8 0e 02 00        	movq	134904(%rip), %r14
10000bcb8: 4a 63 04 33                 	movslq	(%rbx,%r14), %rax
10000bcbc: 4c 8b 3d f5 0e 02 00        	movq	134901(%rip), %r15
10000bcc3: 4a 63 3c 3b                 	movslq	(%rbx,%r15), %rdi
10000bcc7: 48 0f af f8                 	imulq	%rax, %rdi
10000bccb: 48 c1 e7 02                 	shlq	$2, %rdi
10000bccf: e8 60 26 00 00              	callq	9824 <dyld_stub_binder+0x10000e334>
10000bcd4: 48 8b 15 fd 0e 02 00        	movq	134909(%rip), %rdx
10000bcdb: 48 89 04 13                 	movq	%rax, (%rbx,%rdx)
10000bcdf: 42 8b 34 3b                 	movl	(%rbx,%r15), %esi
10000bce3: 42 0f af 34 33              	imull	(%rbx,%r14), %esi
10000bce8: 48 8b 05 f1 0e 02 00        	movq	134897(%rip), %rax
10000bcef: eb 20                       	jmp	32 <-[MlxWin pixel_management]+0x1a1>
10000bcf1: 66 66 66 66 66 66 2e 0f 1f 84 00 00 00 00 00	nopw	%cs:(%rax,%rax)
10000bd00: 48 63 c9                    	movslq	%ecx, %rcx
10000bd03: 48 8b 34 13                 	movq	(%rbx,%rdx), %rsi
10000bd07: c7 04 8e 00 00 00 ff        	movl	$4278190080, (%rsi,%rcx,4)
10000bd0e: 8b 34 03                    	movl	(%rbx,%rax), %esi
10000bd11: 8d 4e ff                    	leal	-1(%rsi), %ecx
10000bd14: 89 0c 03                    	movl	%ecx, (%rbx,%rax)
10000bd17: 85 f6                       	testl	%esi, %esi
10000bd19: 75 e5                       	jne	-27 <-[MlxWin pixel_management]+0x190>
10000bd1b: c7 04 03 00 00 00 00        	movl	$0, (%rbx,%rax)
10000bd22: 42 8b 0c 33                 	movl	(%rbx,%r14), %ecx
10000bd26: 46 8b 04 3b                 	movl	(%rbx,%r15), %r8d
10000bd2a: 48 8b 04 13                 	movq	(%rbx,%rdx), %rax
10000bd2e: 48 89 44 24 10              	movq	%rax, 16(%rsp)
10000bd33: c7 44 24 08 01 14 00 00     	movl	$5121, 8(%rsp)
10000bd3b: c7 04 24 e1 80 00 00        	movl	$32993, (%rsp)
10000bd42: 45 31 f6                    	xorl	%r14d, %r14d
10000bd45: bf e1 0d 00 00              	movl	$3553, %edi
10000bd4a: 31 f6                       	xorl	%esi, %esi
10000bd4c: ba 58 80 00 00              	movl	$32856, %edx
10000bd51: 45 31 c9                    	xorl	%r9d, %r9d
10000bd54: e8 a5 25 00 00              	callq	9637 <dyld_stub_binder+0x10000e2fe>
10000bd59: 4a 8d 3c 2b                 	leaq	(%rbx,%r13), %rdi
10000bd5d: e8 ee ef ff ff              	callq	-4114 <_mlx_shaders>
10000bd62: 85 c0                       	testl	%eax, %eax
10000bd64: 0f 85 52 01 00 00           	jne	338 <-[MlxWin pixel_management]+0x34c>
10000bd6a: 41 8b 7c 1d 08              	movl	8(%r13,%rbx), %edi
10000bd6f: e8 ae 25 00 00              	callq	9646 <dyld_stub_binder+0x10000e322>
10000bd74: 41 8b 7c 1d 08              	movl	8(%r13,%rbx), %edi
10000bd79: 4c 8d 3d 36 34 00 00        	leaq	13366(%rip), %r15
10000bd80: 4c 89 fe                    	movq	%r15, %rsi
10000bd83: e8 64 25 00 00              	callq	9572 <dyld_stub_binder+0x10000e2ec>
10000bd88: 41 89 44 1d 10              	movl	%eax, 16(%r13,%rbx)
10000bd8d: 41 8b 7c 1d 08              	movl	8(%r13,%rbx), %edi
10000bd92: 4c 8d 35 25 34 00 00        	leaq	13349(%rip), %r14
10000bd99: 4c 89 f6                    	movq	%r14, %rsi
10000bd9c: e8 2d 25 00 00              	callq	9517 <dyld_stub_binder+0x10000e2ce>
10000bda1: 41 89 44 1d 0c              	movl	%eax, 12(%r13,%rbx)
10000bda6: 41 8b 7c 1d 20              	movl	32(%r13,%rbx), %edi
10000bdab: e8 72 25 00 00              	callq	9586 <dyld_stub_binder+0x10000e322>
10000bdb0: 41 8b 7c 1d 20              	movl	32(%r13,%rbx), %edi
10000bdb5: 4c 89 fe                    	movq	%r15, %rsi
10000bdb8: e8 2f 25 00 00              	callq	9519 <dyld_stub_binder+0x10000e2ec>
10000bdbd: 41 89 44 1d 2c              	movl	%eax, 44(%r13,%rbx)
10000bdc2: 41 8b 7c 1d 20              	movl	32(%r13,%rbx), %edi
10000bdc7: 48 8d 35 f9 33 00 00        	leaq	13305(%rip), %rsi
10000bdce: e8 19 25 00 00              	callq	9497 <dyld_stub_binder+0x10000e2ec>
10000bdd3: 41 89 44 1d 30              	movl	%eax, 48(%r13,%rbx)
10000bdd8: 41 8b 7c 1d 20              	movl	32(%r13,%rbx), %edi
10000bddd: 48 8d 35 ec 33 00 00        	leaq	13292(%rip), %rsi
10000bde4: e8 03 25 00 00              	callq	9475 <dyld_stub_binder+0x10000e2ec>
10000bde9: 41 89 44 1d 34              	movl	%eax, 52(%r13,%rbx)
10000bdee: 41 8b 7c 1d 20              	movl	32(%r13,%rbx), %edi
10000bdf3: 4c 8d 25 e0 33 00 00        	leaq	13280(%rip), %r12
10000bdfa: 4c 89 e6                    	movq	%r12, %rsi
10000bdfd: e8 ea 24 00 00              	callq	9450 <dyld_stub_binder+0x10000e2ec>
10000be02: 41 89 44 1d 28              	movl	%eax, 40(%r13,%rbx)
10000be07: 41 8b 7c 1d 20              	movl	32(%r13,%rbx), %edi
10000be0c: 4c 89 f6                    	movq	%r14, %rsi
10000be0f: e8 ba 24 00 00              	callq	9402 <dyld_stub_binder+0x10000e2ce>
10000be14: 41 89 44 1d 24              	movl	%eax, 36(%r13,%rbx)
10000be19: 41 8b 7c 1d 40              	movl	64(%r13,%rbx), %edi
10000be1e: e8 ff 24 00 00              	callq	9471 <dyld_stub_binder+0x10000e322>
10000be23: 41 8b 7c 1d 40              	movl	64(%r13,%rbx), %edi
10000be28: 4c 89 fe                    	movq	%r15, %rsi
10000be2b: e8 bc 24 00 00              	callq	9404 <dyld_stub_binder+0x10000e2ec>
10000be30: 41 89 44 1d 4c              	movl	%eax, 76(%r13,%rbx)
10000be35: 41 8b 7c 1d 40              	movl	64(%r13,%rbx), %edi
10000be3a: 48 8d 35 a5 33 00 00        	leaq	13221(%rip), %rsi
10000be41: e8 a6 24 00 00              	callq	9382 <dyld_stub_binder+0x10000e2ec>
10000be46: 41 89 44 1d 50              	movl	%eax, 80(%r13,%rbx)
10000be4b: 41 8b 7c 1d 40              	movl	64(%r13,%rbx), %edi
10000be50: 48 8d 35 95 33 00 00        	leaq	13205(%rip), %rsi
10000be57: e8 90 24 00 00              	callq	9360 <dyld_stub_binder+0x10000e2ec>
10000be5c: 41 89 44 1d 54              	movl	%eax, 84(%r13,%rbx)
10000be61: 41 8b 7c 1d 40              	movl	64(%r13,%rbx), %edi
10000be66: 48 8d 35 8c 33 00 00        	leaq	13196(%rip), %rsi
10000be6d: e8 7a 24 00 00              	callq	9338 <dyld_stub_binder+0x10000e2ec>
10000be72: 41 89 44 1d 58              	movl	%eax, 88(%r13,%rbx)
10000be77: 41 8b 7c 1d 40              	movl	64(%r13,%rbx), %edi
10000be7c: 48 8d 35 85 33 00 00        	leaq	13189(%rip), %rsi
10000be83: e8 64 24 00 00              	callq	9316 <dyld_stub_binder+0x10000e2ec>
10000be88: 41 89 44 1d 5c              	movl	%eax, 92(%r13,%rbx)
10000be8d: 41 8b 7c 1d 40              	movl	64(%r13,%rbx), %edi
10000be92: 4c 89 e6                    	movq	%r12, %rsi
10000be95: e8 52 24 00 00              	callq	9298 <dyld_stub_binder+0x10000e2ec>
10000be9a: 41 89 44 1d 48              	movl	%eax, 72(%r13,%rbx)
10000be9f: 41 8b 7c 1d 40              	movl	64(%r13,%rbx), %edi
10000bea4: 4c 89 f6                    	movq	%r14, %rsi
10000bea7: e8 22 24 00 00              	callq	9250 <dyld_stub_binder+0x10000e2ce>
10000beac: 41 89 44 1d 44              	movl	%eax, 68(%r13,%rbx)
10000beb1: e8 06 24 00 00              	callq	9222 <dyld_stub_binder+0x10000e2bc>
10000beb6: 41 be 01 00 00 00           	movl	$1, %r14d
10000bebc: 44 89 f0                    	movl	%r14d, %eax
10000bebf: 48 83 c4 18                 	addq	$24, %rsp
10000bec3: 5b                          	popq	%rbx
10000bec4: 41 5c                       	popq	%r12
10000bec6: 41 5d                       	popq	%r13
10000bec8: 41 5e                       	popq	%r14
10000beca: 41 5f                       	popq	%r15
10000becc: 5d                          	popq	%rbp
10000becd: c3                          	retq
10000bece: 66 90                       	nop

000000010000bed0 -[MlxWin ctxNeedsUpdate]:
10000bed0: 55                          	pushq	%rbp
10000bed1: 48 89 e5                    	movq	%rsp, %rbp
10000bed4: 48 8b 05 0d 0d 02 00        	movq	134413(%rip), %rax
10000bedb: 48 8b 3c 07                 	movq	(%rdi,%rax), %rdi
10000bedf: 48 8b 35 62 0b 02 00        	movq	133986(%rip), %rsi
10000bee6: 5d                          	popq	%rbp
10000bee7: ff 25 4b c1 01 00           	jmpq	*115019(%rip)
10000beed: 0f 1f 00                    	nopl	(%rax)

000000010000bef0 -[MlxWin selectGLContext]:
10000bef0: 55                          	pushq	%rbp
10000bef1: 48 89 e5                    	movq	%rsp, %rbp
10000bef4: 41 57                       	pushq	%r15
10000bef6: 41 56                       	pushq	%r14
10000bef8: 53                          	pushq	%rbx
10000bef9: 50                          	pushq	%rax
10000befa: 49 89 fe                    	movq	%rdi, %r14
10000befd: 48 8b 3d 34 0c 02 00        	movq	134196(%rip), %rdi
10000bf04: 48 8b 35 45 0b 02 00        	movq	133957(%rip), %rsi
10000bf0b: 4c 8b 3d 26 c1 01 00        	movq	114982(%rip), %r15
10000bf12: 41 ff d7                    	callq	*%r15
10000bf15: 48 89 c3                    	movq	%rax, %rbx
10000bf18: 48 8b 35 d9 0a 02 00        	movq	133849(%rip), %rsi
10000bf1f: 4c 89 f7                    	movq	%r14, %rdi
10000bf22: 41 ff d7                    	callq	*%r15
10000bf25: 4c 89 f9                    	movq	%r15, %rcx
10000bf28: 48 39 c3                    	cmpq	%rax, %rbx
10000bf2b: 74 28                       	je	40 <-[MlxWin selectGLContext]+0x65>
10000bf2d: 48 8b 35 c4 0a 02 00        	movq	133828(%rip), %rsi
10000bf34: 4c 89 f7                    	movq	%r14, %rdi
10000bf37: 48 89 cb                    	movq	%rcx, %rbx
10000bf3a: ff d3                       	callq	*%rbx
10000bf3c: 48 8b 35 bd 0a 02 00        	movq	133821(%rip), %rsi
10000bf43: 48 89 c7                    	movq	%rax, %rdi
10000bf46: 48 89 d8                    	movq	%rbx, %rax
10000bf49: 48 83 c4 08                 	addq	$8, %rsp
10000bf4d: 5b                          	popq	%rbx
10000bf4e: 41 5e                       	popq	%r14
10000bf50: 41 5f                       	popq	%r15
10000bf52: 5d                          	popq	%rbp
10000bf53: ff e0                       	jmpq	*%rax
10000bf55: 48 83 c4 08                 	addq	$8, %rsp
10000bf59: 5b                          	popq	%rbx
10000bf5a: 41 5e                       	popq	%r14
10000bf5c: 41 5f                       	popq	%r15
10000bf5e: 5d                          	popq	%rbp
10000bf5f: c3                          	retq

000000010000bf60 -[MlxWin flushGLContext]:
10000bf60: 55                          	pushq	%rbp
10000bf61: 48 89 e5                    	movq	%rsp, %rbp
10000bf64: 53                          	pushq	%rbx
10000bf65: 50                          	pushq	%rax
10000bf66: 48 8b 35 8b 0a 02 00        	movq	133771(%rip), %rsi
10000bf6d: 48 8b 1d c4 c0 01 00        	movq	114884(%rip), %rbx
10000bf74: ff d3                       	callq	*%rbx
10000bf76: 48 8b 35 db 0a 02 00        	movq	133851(%rip), %rsi
10000bf7d: 48 89 c7                    	movq	%rax, %rdi
10000bf80: 48 89 d8                    	movq	%rbx, %rax
10000bf83: 48 83 c4 08                 	addq	$8, %rsp
10000bf87: 5b                          	popq	%rbx
10000bf88: 5d                          	popq	%rbp
10000bf89: ff e0                       	jmpq	*%rax
10000bf8b: 0f 1f 44 00 00              	nopl	(%rax,%rax)

000000010000bf90 -[MlxWin ctx]:
10000bf90: 55                          	pushq	%rbp
10000bf91: 48 89 e5                    	movq	%rsp, %rbp
10000bf94: 48 8b 05 4d 0c 02 00        	movq	134221(%rip), %rax
10000bf9b: 48 8b 04 07                 	movq	(%rdi,%rax), %rax
10000bf9f: 5d                          	popq	%rbp
10000bfa0: c3                          	retq
10000bfa1: 66 66 66 66 66 66 2e 0f 1f 84 00 00 00 00 00	nopw	%cs:(%rax,%rax)

000000010000bfb0 -[MlxWin pixelPutColor:X:Y:]:
10000bfb0: 55                          	pushq	%rbp
10000bfb1: 48 89 e5                    	movq	%rsp, %rbp
10000bfb4: 41 57                       	pushq	%r15
10000bfb6: 41 56                       	pushq	%r14
10000bfb8: 41 54                       	pushq	%r12
10000bfba: 53                          	pushq	%rbx
10000bfbb: 48 83 ec 20                 	subq	$32, %rsp
10000bfbf: 45 89 c6                    	movl	%r8d, %r14d
10000bfc2: 41 89 cf                    	movl	%ecx, %r15d
10000bfc5: 48 89 fb                    	movq	%rdi, %rbx
10000bfc8: 89 55 dc                    	movl	%edx, -36(%rbp)
10000bfcb: 4c 8b 25 0e 0c 02 00        	movq	134158(%rip), %r12
10000bfd2: 42 ff 04 23                 	incl	(%rbx,%r12)
10000bfd6: 48 8b 05 eb 0b 02 00        	movq	134123(%rip), %rax
10000bfdd: 8b 34 03                    	movl	(%rbx,%rax), %esi
10000bfe0: bf e1 0d 00 00              	movl	$3553, %edi
10000bfe5: e8 66 22 00 00              	callq	8806 <dyld_stub_binder+0x10000e250>
10000bfea: 48 8d 45 dc                 	leaq	-36(%rbp), %rax
10000bfee: 48 89 44 24 10              	movq	%rax, 16(%rsp)
10000bff3: c7 44 24 08 01 14 00 00     	movl	$5121, 8(%rsp)
10000bffb: c7 04 24 e1 80 00 00        	movl	$32993, (%rsp)
10000c002: bf e1 0d 00 00              	movl	$3553, %edi
10000c007: 31 f6                       	xorl	%esi, %esi
10000c009: 41 b8 01 00 00 00           	movl	$1, %r8d
10000c00f: 41 b9 01 00 00 00           	movl	$1, %r9d
10000c015: 44 89 fa                    	movl	%r15d, %edx
10000c018: 44 89 f1                    	movl	%r14d, %ecx
10000c01b: e8 ea 22 00 00              	callq	8938 <dyld_stub_binder+0x10000e30a>
10000c020: 42 81 3c 23 40 0d 03 00     	cmpl	$200000, (%rbx,%r12)
10000c028: 7c 10                       	jl	16 <-[MlxWin pixelPutColor:X:Y:]+0x8a>
10000c02a: 48 8b 35 2f 0a 02 00        	movq	133679(%rip), %rsi
10000c031: 48 89 df                    	movq	%rbx, %rdi
10000c034: ff 15 fe bf 01 00           	callq	*114686(%rip)
10000c03a: 48 83 c4 20                 	addq	$32, %rsp
10000c03e: 5b                          	popq	%rbx
10000c03f: 41 5c                       	popq	%r12
10000c041: 41 5e                       	popq	%r14
10000c043: 41 5f                       	popq	%r15
10000c045: 5d                          	popq	%rbp
10000c046: c3                          	retq
10000c047: 66 0f 1f 84 00 00 00 00 00  	nopw	(%rax,%rax)

000000010000c050 -[MlxWin destroyPixelManagement]:
10000c050: 55                          	pushq	%rbp
10000c051: 48 89 e5                    	movq	%rsp, %rbp
10000c054: 41 56                       	pushq	%r14
10000c056: 53                          	pushq	%rbx
10000c057: 48 89 fb                    	movq	%rdi, %rbx
10000c05a: 48 8b 05 77 0b 02 00        	movq	134007(%rip), %rax
10000c061: 48 8b 3c 03                 	movq	(%rbx,%rax), %rdi
10000c065: e8 c8 21 00 00              	callq	8648 <dyld_stub_binder+0x10000e232>
10000c06a: 48 8b 35 97 0a 02 00        	movq	133783(%rip), %rsi
10000c071: 48 89 df                    	movq	%rbx, %rdi
10000c074: ff 15 be bf 01 00           	callq	*114622(%rip)
10000c07a: 48 8b 35 47 0b 02 00        	movq	133959(%rip), %rsi
10000c081: 48 01 de                    	addq	%rbx, %rsi
10000c084: bf 01 00 00 00              	movl	$1, %edi
10000c089: e8 f8 21 00 00              	callq	8696 <dyld_stub_binder+0x10000e286>
10000c08e: 48 8b 35 3b 0b 02 00        	movq	133947(%rip), %rsi
10000c095: 48 01 de                    	addq	%rbx, %rsi
10000c098: bf 01 00 00 00              	movl	$1, %edi
10000c09d: e8 f6 21 00 00              	callq	8694 <dyld_stub_binder+0x10000e298>
10000c0a2: 4c 8b 35 17 0b 02 00        	movq	133911(%rip), %r14
10000c0a9: 41 8b 7c 1e 08              	movl	8(%r14,%rbx), %edi
10000c0ae: e8 d9 21 00 00              	callq	8665 <dyld_stub_binder+0x10000e28c>
10000c0b3: 41 8b 7c 1e 20              	movl	32(%r14,%rbx), %edi
10000c0b8: e8 cf 21 00 00              	callq	8655 <dyld_stub_binder+0x10000e28c>
10000c0bd: 42 8b 3c 33                 	movl	(%rbx,%r14), %edi
10000c0c1: e8 cc 21 00 00              	callq	8652 <dyld_stub_binder+0x10000e292>
10000c0c6: 41 8b 7c 1e 04              	movl	4(%r14,%rbx), %edi
10000c0cb: e8 c2 21 00 00              	callq	8642 <dyld_stub_binder+0x10000e292>
10000c0d0: 41 8b 7c 1e 18              	movl	24(%r14,%rbx), %edi
10000c0d5: e8 b8 21 00 00              	callq	8632 <dyld_stub_binder+0x10000e292>
10000c0da: 41 8b 7c 1e 1c              	movl	28(%r14,%rbx), %edi
10000c0df: 5b                          	popq	%rbx
10000c0e0: 41 5e                       	popq	%r14
10000c0e2: 5d                          	popq	%rbp
10000c0e3: e9 aa 21 00 00              	jmp	8618 <dyld_stub_binder+0x10000e292>
10000c0e8: 0f 1f 84 00 00 00 00 00     	nopl	(%rax,%rax)

000000010000c0f0 -[MlxWin destroyMe]:
10000c0f0: 55                          	pushq	%rbp
10000c0f1: 48 89 e5                    	movq	%rsp, %rbp
10000c0f4: 41 57                       	pushq	%r15
10000c0f6: 41 56                       	pushq	%r14
10000c0f8: 53                          	pushq	%rbx
10000c0f9: 50                          	pushq	%rax
10000c0fa: 48 89 fb                    	movq	%rdi, %rbx
10000c0fd: 48 8b 3d 2c 0a 02 00        	movq	133676(%rip), %rdi
10000c104: 48 8b 35 15 09 02 00        	movq	133397(%rip), %rsi
10000c10b: 4c 8b 3d 26 bf 01 00        	movq	114470(%rip), %r15
10000c112: 41 ff d7                    	callq	*%r15
10000c115: 4c 8b 35 8c 0a 02 00        	movq	133772(%rip), %r14
10000c11c: 4a 8b 14 33                 	movq	(%rbx,%r14), %rdx
10000c120: 48 8b 35 41 09 02 00        	movq	133441(%rip), %rsi
10000c127: 48 89 c7                    	movq	%rax, %rdi
10000c12a: 41 ff d7                    	callq	*%r15
10000c12d: 48 8b 3d fc 09 02 00        	movq	133628(%rip), %rdi
10000c134: 48 8b 35 e5 08 02 00        	movq	133349(%rip), %rsi
10000c13b: 41 ff d7                    	callq	*%r15
10000c13e: 48 8b 35 23 09 02 00        	movq	133411(%rip), %rsi
10000c145: 48 89 c7                    	movq	%rax, %rdi
10000c148: 48 89 da                    	movq	%rbx, %rdx
10000c14b: 41 ff d7                    	callq	*%r15
10000c14e: 4a 8b 3c 33                 	movq	(%rbx,%r14), %rdi
10000c152: 48 8b 35 17 09 02 00        	movq	133399(%rip), %rsi
10000c159: 41 ff d7                    	callq	*%r15
10000c15c: 48 8b 35 dd 08 02 00        	movq	133341(%rip), %rsi
10000c163: 48 89 df                    	movq	%rbx, %rdi
10000c166: 4c 89 f8                    	movq	%r15, %rax
10000c169: 48 83 c4 08                 	addq	$8, %rsp
10000c16d: 5b                          	popq	%rbx
10000c16e: 41 5e                       	popq	%r14
10000c170: 41 5f                       	popq	%r15
10000c172: 5d                          	popq	%rbp
10000c173: ff e0                       	jmpq	*%rax
10000c175: 66 66 2e 0f 1f 84 00 00 00 00 00    	nopw	%cs:(%rax,%rax)

000000010000c180 -[MlxWin setEvent:andFunc:andParam:]:
10000c180: 55                          	pushq	%rbp
10000c181: 48 89 e5                    	movq	%rsp, %rbp
10000c184: 48 8b 05 1d 0a 02 00        	movq	133661(%rip), %rax
10000c18b: 48 8b 3c 07                 	movq	(%rdi,%rax), %rdi
10000c18f: 48 8b 35 e2 08 02 00        	movq	133346(%rip), %rsi
10000c196: 5d                          	popq	%rbp
10000c197: ff 25 9b be 01 00           	jmpq	*114331(%rip)
10000c19d: 0f 1f 00                    	nopl	(%rax)

000000010000c1a0 -[MlxWin setKeyRepeat:]:
10000c1a0: 55                          	pushq	%rbp
10000c1a1: 48 89 e5                    	movq	%rsp, %rbp
10000c1a4: 48 8b 05 fd 09 02 00        	movq	133629(%rip), %rax
10000c1ab: 48 8b 3c 07                 	movq	(%rdi,%rax), %rdi
10000c1af: 48 8b 35 32 08 02 00        	movq	133170(%rip), %rsi
10000c1b6: 5d                          	popq	%rbp
10000c1b7: ff 25 7b be 01 00           	jmpq	*114299(%rip)
10000c1bd: 0f 1f 00                    	nopl	(%rax)

000000010000c1c0 -[MlxWin clearWin]:
10000c1c0: 55                          	pushq	%rbp
10000c1c1: 48 89 e5                    	movq	%rsp, %rbp
10000c1c4: 0f 57 c0                    	xorps	%xmm0, %xmm0
10000c1c7: 0f 57 c9                    	xorps	%xmm1, %xmm1
10000c1ca: 0f 57 d2                    	xorps	%xmm2, %xmm2
10000c1cd: 0f 57 db                    	xorps	%xmm3, %xmm3
10000c1d0: e8 99 20 00 00              	callq	8345 <dyld_stub_binder+0x10000e26e>
10000c1d5: bf 00 40 00 00              	movl	$16384, %edi
10000c1da: 5d                          	popq	%rbp
10000c1db: e9 88 20 00 00              	jmp	8328 <dyld_stub_binder+0x10000e268>

000000010000c1e0 -[MlxWin mlx_gl_draw_img:andCtx:andX:andY:]:
10000c1e0: 55                          	pushq	%rbp
10000c1e1: 48 89 e5                    	movq	%rsp, %rbp
10000c1e4: 41 57                       	pushq	%r15
10000c1e6: 41 56                       	pushq	%r14
10000c1e8: 41 55                       	pushq	%r13
10000c1ea: 41 54                       	pushq	%r12
10000c1ec: 53                          	pushq	%rbx
10000c1ed: 48 83 ec 18                 	subq	$24, %rsp
10000c1f1: 44 89 4d cc                 	movl	%r9d, -52(%rbp)
10000c1f5: 44 89 45 c8                 	movl	%r8d, -56(%rbp)
10000c1f9: 49 89 cf                    	movq	%rcx, %r15
10000c1fc: 48 89 55 d0                 	movq	%rdx, -48(%rbp)
10000c200: 48 89 fb                    	movq	%rdi, %rbx
10000c203: 48 8b 05 d6 09 02 00        	movq	133590(%rip), %rax
10000c20a: 83 3c 03 00                 	cmpl	$0, (%rbx,%rax)
10000c20e: 7e 10                       	jle	16 <-[MlxWin mlx_gl_draw_img:andCtx:andX:andY:]+0x40>
10000c210: 48 8b 35 49 08 02 00        	movq	133193(%rip), %rsi
10000c217: 48 89 df                    	movq	%rbx, %rdi
10000c21a: ff 15 18 be 01 00           	callq	*114200(%rip)
10000c220: 4c 8b 25 99 09 02 00        	movq	133529(%rip), %r12
10000c227: 41 8b 7c 1c 20              	movl	32(%r12,%rbx), %edi
10000c22c: e8 f1 20 00 00              	callq	8433 <dyld_stub_binder+0x10000e322>
10000c231: bf c0 84 00 00              	movl	$33984, %edi
10000c236: e8 03 20 00 00              	callq	8195 <dyld_stub_binder+0x10000e23e>
10000c23b: 41 8b 37                    	movl	(%r15), %esi
10000c23e: bf e1 0d 00 00              	movl	$3553, %edi
10000c243: e8 08 20 00 00              	callq	8200 <dyld_stub_binder+0x10000e250>
10000c248: 41 8b 7c 1c 2c              	movl	44(%r12,%rbx), %edi
10000c24d: 45 31 ed                    	xorl	%r13d, %r13d
10000c250: 31 f6                       	xorl	%esi, %esi
10000c252: e8 b9 20 00 00              	callq	8377 <dyld_stub_binder+0x10000e310>
10000c257: 41 8b 7c 1c 28              	movl	40(%r12,%rbx), %edi
10000c25c: 48 8b 05 4d 09 02 00        	movq	133453(%rip), %rax
10000c263: 8b 04 03                    	movl	(%rbx,%rax), %eax
10000c266: 89 c1                       	movl	%eax, %ecx
10000c268: c1 e9 1f                    	shrl	$31, %ecx
10000c26b: 01 c1                       	addl	%eax, %ecx
10000c26d: d1 f9                       	sarl	%ecx
10000c26f: f3 0f 2a c1                 	cvtsi2ss	%ecx, %xmm0
10000c273: 4c 8b 35 3e 09 02 00        	movq	133438(%rip), %r14
10000c27a: 42 8b 04 33                 	movl	(%rbx,%r14), %eax
10000c27e: 89 c1                       	movl	%eax, %ecx
10000c280: c1 e9 1f                    	shrl	$31, %ecx
10000c283: 01 c1                       	addl	%eax, %ecx
10000c285: d1 f9                       	sarl	%ecx
10000c287: f3 0f 2a c9                 	cvtsi2ss	%ecx, %xmm1
10000c28b: e8 86 20 00 00              	callq	8326 <dyld_stub_binder+0x10000e316>
10000c290: 41 8b 7c 1c 30              	movl	48(%r12,%rbx), %edi
10000c295: 8b 45 c8                    	movl	-56(%rbp), %eax
10000c298: 0f 57 c0                    	xorps	%xmm0, %xmm0
10000c29b: f3 0f 2a c0                 	cvtsi2ss	%eax, %xmm0
10000c29f: 42 8b 04 33                 	movl	(%rbx,%r14), %eax
10000c2a3: 2b 45 cc                    	subl	-52(%rbp), %eax
10000c2a6: 0f 57 c9                    	xorps	%xmm1, %xmm1
10000c2a9: f3 0f 2a c8                 	cvtsi2ss	%eax, %xmm1
10000c2ad: e8 64 20 00 00              	callq	8292 <dyld_stub_binder+0x10000e316>
10000c2b2: 41 8b 7c 1c 34              	movl	52(%r12,%rbx), %edi
10000c2b7: 48 8b 45 d0                 	movq	-48(%rbp), %rax
10000c2bb: 0f 57 c0                    	xorps	%xmm0, %xmm0
10000c2be: f3 0f 2a 00                 	cvtsi2ssl	(%rax), %xmm0
10000c2c2: 44 2b 68 04                 	subl	4(%rax), %r13d
10000c2c6: 0f 57 c9                    	xorps	%xmm1, %xmm1
10000c2c9: f3 41 0f 2a cd              	cvtsi2ss	%r13d, %xmm1
10000c2ce: e8 43 20 00 00              	callq	8259 <dyld_stub_binder+0x10000e316>
10000c2d3: 41 8b 77 04                 	movl	4(%r15), %esi
10000c2d7: bf 92 88 00 00              	movl	$34962, %edi
10000c2dc: e8 69 1f 00 00              	callq	8041 <dyld_stub_binder+0x10000e24a>
10000c2e1: bf 00 00 00 00              	movl	$0, %edi
10000c2e6: be 02 00 00 00              	movl	$2, %esi
10000c2eb: ba 06 14 00 00              	movl	$5126, %edx
10000c2f0: 31 c9                       	xorl	%ecx, %ecx
10000c2f2: 41 b8 08 00 00 00           	movl	$8, %r8d
10000c2f8: 45 31 c9                    	xorl	%r9d, %r9d
10000c2fb: e8 28 20 00 00              	callq	8232 <dyld_stub_binder+0x10000e328>
10000c300: 31 ff                       	xorl	%edi, %edi
10000c302: e8 af 1f 00 00              	callq	8111 <dyld_stub_binder+0x10000e2b6>
10000c307: bf e2 0b 00 00              	movl	$3042, %edi
10000c30c: e8 9f 1f 00 00              	callq	8095 <dyld_stub_binder+0x10000e2b0>
10000c311: bf 03 03 00 00              	movl	$771, %edi
10000c316: be 02 03 00 00              	movl	$770, %esi
10000c31b: e8 3c 1f 00 00              	callq	7996 <dyld_stub_binder+0x10000e25c>
10000c320: bf 06 80 00 00              	movl	$32774, %edi
10000c325: e8 2c 1f 00 00              	callq	7980 <dyld_stub_binder+0x10000e256>
10000c32a: bf 06 00 00 00              	movl	$6, %edi
10000c32f: 31 f6                       	xorl	%esi, %esi
10000c331: ba 04 00 00 00              	movl	$4, %edx
10000c336: e8 6f 1f 00 00              	callq	8047 <dyld_stub_binder+0x10000e2aa>
10000c33b: 31 ff                       	xorl	%edi, %edi
10000c33d: 48 83 c4 18                 	addq	$24, %rsp
10000c341: 5b                          	popq	%rbx
10000c342: 41 5c                       	popq	%r12
10000c344: 41 5d                       	popq	%r13
10000c346: 41 5e                       	popq	%r14
10000c348: 41 5f                       	popq	%r15
10000c34a: 5d                          	popq	%rbp
10000c34b: e9 54 1f 00 00              	jmp	8020 <dyld_stub_binder+0x10000e2a4>

000000010000c350 -[MlxWin mlx_gl_draw_font:andCtx:andX:andY:andColor:glyphX:glyphY:]:
10000c350: 55                          	pushq	%rbp
10000c351: 48 89 e5                    	movq	%rsp, %rbp
10000c354: 41 57                       	pushq	%r15
10000c356: 41 56                       	pushq	%r14
10000c358: 41 55                       	pushq	%r13
10000c35a: 41 54                       	pushq	%r12
10000c35c: 53                          	pushq	%rbx
10000c35d: 48 83 ec 28                 	subq	$40, %rsp
10000c361: 45 89 cc                    	movl	%r9d, %r12d
10000c364: 44 89 45 b4                 	movl	%r8d, -76(%rbp)
10000c368: 49 89 ce                    	movq	%rcx, %r14
10000c36b: 48 89 55 b8                 	movq	%rdx, -72(%rbp)
10000c36f: 48 89 fb                    	movq	%rdi, %rbx
10000c372: 8b 4d 10                    	movl	16(%rbp), %ecx
10000c375: 48 8b 05 94 bc 01 00        	movq	113812(%rip), %rax
10000c37c: 48 8b 00                    	movq	(%rax), %rax
10000c37f: 48 89 45 d0                 	movq	%rax, -48(%rbp)
10000c383: 48 8b 05 56 08 02 00        	movq	133206(%rip), %rax
10000c38a: 83 3c 03 00                 	cmpl	$0, (%rbx,%rax)
10000c38e: 7e 16                       	jle	22 <-[MlxWin mlx_gl_draw_font:andCtx:andX:andY:andColor:glyphX:glyphY:]+0x56>
10000c390: 48 8b 35 c9 06 02 00        	movq	132809(%rip), %rsi
10000c397: 48 89 df                    	movq	%rbx, %rdi
10000c39a: 41 89 cf                    	movl	%ecx, %r15d
10000c39d: ff 15 95 bc 01 00           	callq	*113813(%rip)
10000c3a3: 44 89 f9                    	movl	%r15d, %ecx
10000c3a6: 89 c8                       	movl	%ecx, %eax
10000c3a8: c1 e8 10                    	shrl	$16, %eax
10000c3ab: 0f b6 c0                    	movzbl	%al, %eax
10000c3ae: f3 0f 2a c0                 	cvtsi2ss	%eax, %xmm0
10000c3b2: f3 0f 10 0d 16 4c 00 00     	movss	19478(%rip), %xmm1
10000c3ba: f3 0f 5e c1                 	divss	%xmm1, %xmm0
10000c3be: f3 0f 11 45 c0              	movss	%xmm0, -64(%rbp)
10000c3c3: 0f b6 c5                    	movzbl	%ch, %eax
10000c3c6: 0f 57 c0                    	xorps	%xmm0, %xmm0
10000c3c9: f3 0f 2a c0                 	cvtsi2ss	%eax, %xmm0
10000c3cd: f3 0f 5e c1                 	divss	%xmm1, %xmm0
10000c3d1: f3 0f 11 45 c4              	movss	%xmm0, -60(%rbp)
10000c3d6: 0f b6 c1                    	movzbl	%cl, %eax
10000c3d9: 0f 57 c0                    	xorps	%xmm0, %xmm0
10000c3dc: f3 0f 2a c0                 	cvtsi2ss	%eax, %xmm0
10000c3e0: f3 0f 5e c1                 	divss	%xmm1, %xmm0
10000c3e4: f3 0f 11 45 c8              	movss	%xmm0, -56(%rbp)
10000c3e9: c7 45 cc 00 00 80 3f        	movl	$1065353216, -52(%rbp)
10000c3f0: 4c 8b 2d c9 07 02 00        	movq	133065(%rip), %r13
10000c3f7: 41 8b 7c 1d 40              	movl	64(%r13,%rbx), %edi
10000c3fc: e8 21 1f 00 00              	callq	7969 <dyld_stub_binder+0x10000e322>
10000c401: bf c0 84 00 00              	movl	$33984, %edi
10000c406: e8 33 1e 00 00              	callq	7731 <dyld_stub_binder+0x10000e23e>
10000c40b: 41 8b 36                    	movl	(%r14), %esi
10000c40e: bf e1 0d 00 00              	movl	$3553, %edi
10000c413: e8 38 1e 00 00              	callq	7736 <dyld_stub_binder+0x10000e250>
10000c418: 41 8b 7c 1d 4c              	movl	76(%r13,%rbx), %edi
10000c41d: 31 f6                       	xorl	%esi, %esi
10000c41f: e8 ec 1e 00 00              	callq	7916 <dyld_stub_binder+0x10000e310>
10000c424: 41 8b 7c 1d 50              	movl	80(%r13,%rbx), %edi
10000c429: 48 8d 55 c0                 	leaq	-64(%rbp), %rdx
10000c42d: be 01 00 00 00              	movl	$1, %esi
10000c432: e8 e5 1e 00 00              	callq	7909 <dyld_stub_binder+0x10000e31c>
10000c437: 41 8b 7c 1d 48              	movl	72(%r13,%rbx), %edi
10000c43c: 48 8b 05 6d 07 02 00        	movq	132973(%rip), %rax
10000c443: 8b 04 03                    	movl	(%rbx,%rax), %eax
10000c446: 89 c1                       	movl	%eax, %ecx
10000c448: c1 e9 1f                    	shrl	$31, %ecx
10000c44b: 01 c1                       	addl	%eax, %ecx
10000c44d: d1 f9                       	sarl	%ecx
10000c44f: f3 0f 2a c1                 	cvtsi2ss	%ecx, %xmm0
10000c453: 4d 89 f7                    	movq	%r14, %r15
10000c456: 4c 8b 35 5b 07 02 00        	movq	132955(%rip), %r14
10000c45d: 42 8b 04 33                 	movl	(%rbx,%r14), %eax
10000c461: 89 c1                       	movl	%eax, %ecx
10000c463: c1 e9 1f                    	shrl	$31, %ecx
10000c466: 01 c1                       	addl	%eax, %ecx
10000c468: d1 f9                       	sarl	%ecx
10000c46a: f3 0f 2a c9                 	cvtsi2ss	%ecx, %xmm1
10000c46e: e8 a3 1e 00 00              	callq	7843 <dyld_stub_binder+0x10000e316>
10000c473: 41 8b 7c 1d 54              	movl	84(%r13,%rbx), %edi
10000c478: 8b 45 b4                    	movl	-76(%rbp), %eax
10000c47b: 0f 57 c0                    	xorps	%xmm0, %xmm0
10000c47e: f3 0f 2a c0                 	cvtsi2ss	%eax, %xmm0
10000c482: 41 f7 d4                    	notl	%r12d
10000c485: 46 03 24 33                 	addl	(%rbx,%r14), %r12d
10000c489: 0f 57 c9                    	xorps	%xmm1, %xmm1
10000c48c: f3 41 0f 2a cc              	cvtsi2ss	%r12d, %xmm1
10000c491: e8 80 1e 00 00              	callq	7808 <dyld_stub_binder+0x10000e316>
10000c496: 41 8b 7c 1d 58              	movl	88(%r13,%rbx), %edi
10000c49b: 8b 45 18                    	movl	24(%rbp), %eax
10000c49e: 0f 57 c0                    	xorps	%xmm0, %xmm0
10000c4a1: f3 0f 2a c0                 	cvtsi2ss	%eax, %xmm0
10000c4a5: 8b 45 20                    	movl	32(%rbp), %eax
10000c4a8: 0f 57 c9                    	xorps	%xmm1, %xmm1
10000c4ab: f3 0f 2a c8                 	cvtsi2ss	%eax, %xmm1
10000c4af: e8 62 1e 00 00              	callq	7778 <dyld_stub_binder+0x10000e316>
10000c4b4: 41 8b 7c 1d 5c              	movl	92(%r13,%rbx), %edi
10000c4b9: 48 8b 45 b8                 	movq	-72(%rbp), %rax
10000c4bd: 0f 57 c0                    	xorps	%xmm0, %xmm0
10000c4c0: f3 0f 2a 00                 	cvtsi2ssl	(%rax), %xmm0
10000c4c4: 0f 57 c9                    	xorps	%xmm1, %xmm1
10000c4c7: f3 0f 2a 48 04              	cvtsi2ssl	4(%rax), %xmm1
10000c4cc: e8 45 1e 00 00              	callq	7749 <dyld_stub_binder+0x10000e316>
10000c4d1: 41 8b 77 04                 	movl	4(%r15), %esi
10000c4d5: bf 92 88 00 00              	movl	$34962, %edi
10000c4da: e8 6b 1d 00 00              	callq	7531 <dyld_stub_binder+0x10000e24a>
10000c4df: bf 00 00 00 00              	movl	$0, %edi
10000c4e4: be 02 00 00 00              	movl	$2, %esi
10000c4e9: ba 06 14 00 00              	movl	$5126, %edx
10000c4ee: 31 c9                       	xorl	%ecx, %ecx
10000c4f0: 41 b8 08 00 00 00           	movl	$8, %r8d
10000c4f6: 45 31 c9                    	xorl	%r9d, %r9d
10000c4f9: e8 2a 1e 00 00              	callq	7722 <dyld_stub_binder+0x10000e328>
10000c4fe: 31 ff                       	xorl	%edi, %edi
10000c500: e8 b1 1d 00 00              	callq	7601 <dyld_stub_binder+0x10000e2b6>
10000c505: bf e2 0b 00 00              	movl	$3042, %edi
10000c50a: e8 a1 1d 00 00              	callq	7585 <dyld_stub_binder+0x10000e2b0>
10000c50f: bf 03 03 00 00              	movl	$771, %edi
10000c514: be 02 03 00 00              	movl	$770, %esi
10000c519: e8 3e 1d 00 00              	callq	7486 <dyld_stub_binder+0x10000e25c>
10000c51e: bf 06 80 00 00              	movl	$32774, %edi
10000c523: e8 2e 1d 00 00              	callq	7470 <dyld_stub_binder+0x10000e256>
10000c528: bf 06 00 00 00              	movl	$6, %edi
10000c52d: 31 f6                       	xorl	%esi, %esi
10000c52f: ba 04 00 00 00              	movl	$4, %edx
10000c534: e8 71 1d 00 00              	callq	7537 <dyld_stub_binder+0x10000e2aa>
10000c539: 31 ff                       	xorl	%edi, %edi
10000c53b: e8 64 1d 00 00              	callq	7524 <dyld_stub_binder+0x10000e2a4>
10000c540: 48 8b 05 c9 ba 01 00        	movq	113353(%rip), %rax
10000c547: 48 8b 00                    	movq	(%rax), %rax
10000c54a: 48 3b 45 d0                 	cmpq	-48(%rbp), %rax
10000c54e: 75 0f                       	jne	15 <-[MlxWin mlx_gl_draw_font:andCtx:andX:andY:andColor:glyphX:glyphY:]+0x20f>
10000c550: 48 83 c4 28                 	addq	$40, %rsp
10000c554: 5b                          	popq	%rbx
10000c555: 41 5c                       	popq	%r12
10000c557: 41 5d                       	popq	%r13
10000c559: 41 5e                       	popq	%r14
10000c55b: 41 5f                       	popq	%r15
10000c55d: 5d                          	popq	%rbp
10000c55e: c3                          	retq
10000c55f: e8 8c 1c 00 00              	callq	7308 <dyld_stub_binder+0x10000e1f0>
10000c564: 66 66 66 2e 0f 1f 84 00 00 00 00 00 	nopw	%cs:(%rax,%rax)

000000010000c570 -[MlxWin mlx_gl_draw]:
10000c570: 55                          	pushq	%rbp
10000c571: 48 89 e5                    	movq	%rsp, %rbp
10000c574: 41 57                       	pushq	%r15
10000c576: 41 56                       	pushq	%r14
10000c578: 41 54                       	pushq	%r12
10000c57a: 53                          	pushq	%rbx
10000c57b: 48 83 ec 20                 	subq	$32, %rsp
10000c57f: 48 89 fb                    	movq	%rdi, %rbx
10000c582: 4c 8b 35 57 06 02 00        	movq	132695(%rip), %r14
10000c589: 42 83 3c 33 00              	cmpl	$0, (%rbx,%r14)
10000c58e: 0f 8e 34 01 00 00           	jle	308 <-[MlxWin mlx_gl_draw]+0x158>
10000c594: 4c 8b 3d 25 06 02 00        	movq	132645(%rip), %r15
10000c59b: 41 8b 7c 1f 08              	movl	8(%r15,%rbx), %edi
10000c5a0: e8 7d 1d 00 00              	callq	7549 <dyld_stub_binder+0x10000e322>
10000c5a5: bf c0 84 00 00              	movl	$33984, %edi
10000c5aa: e8 8f 1c 00 00              	callq	7311 <dyld_stub_binder+0x10000e23e>
10000c5af: 4c 8b 25 12 06 02 00        	movq	132626(%rip), %r12
10000c5b6: 42 8b 34 23                 	movl	(%rbx,%r12), %esi
10000c5ba: bf e1 0d 00 00              	movl	$3553, %edi
10000c5bf: e8 8c 1c 00 00              	callq	7308 <dyld_stub_binder+0x10000e250>
10000c5c4: 41 8b 7c 1f 10              	movl	16(%r15,%rbx), %edi
10000c5c9: 31 f6                       	xorl	%esi, %esi
10000c5cb: e8 40 1d 00 00              	callq	7488 <dyld_stub_binder+0x10000e310>
10000c5d0: 42 8b 34 23                 	movl	(%rbx,%r12), %esi
10000c5d4: bf 92 88 00 00              	movl	$34962, %edi
10000c5d9: e8 6c 1c 00 00              	callq	7276 <dyld_stub_binder+0x10000e24a>
10000c5de: bf 00 00 00 00              	movl	$0, %edi
10000c5e3: be 02 00 00 00              	movl	$2, %esi
10000c5e8: ba 06 14 00 00              	movl	$5126, %edx
10000c5ed: 31 c9                       	xorl	%ecx, %ecx
10000c5ef: 41 b8 08 00 00 00           	movl	$8, %r8d
10000c5f5: 45 31 c9                    	xorl	%r9d, %r9d
10000c5f8: e8 2b 1d 00 00              	callq	7467 <dyld_stub_binder+0x10000e328>
10000c5fd: 31 ff                       	xorl	%edi, %edi
10000c5ff: e8 b2 1c 00 00              	callq	7346 <dyld_stub_binder+0x10000e2b6>
10000c604: bf e2 0b 00 00              	movl	$3042, %edi
10000c609: e8 a2 1c 00 00              	callq	7330 <dyld_stub_binder+0x10000e2b0>
10000c60e: bf 03 03 00 00              	movl	$771, %edi
10000c613: be 02 03 00 00              	movl	$770, %esi
10000c618: e8 3f 1c 00 00              	callq	7231 <dyld_stub_binder+0x10000e25c>
10000c61d: bf 06 80 00 00              	movl	$32774, %edi
10000c622: e8 2f 1c 00 00              	callq	7215 <dyld_stub_binder+0x10000e256>
10000c627: bf 06 00 00 00              	movl	$6, %edi
10000c62c: 31 f6                       	xorl	%esi, %esi
10000c62e: ba 04 00 00 00              	movl	$4, %edx
10000c633: e8 72 1c 00 00              	callq	7282 <dyld_stub_binder+0x10000e2aa>
10000c638: 31 ff                       	xorl	%edi, %edi
10000c63a: e8 65 1c 00 00              	callq	7269 <dyld_stub_binder+0x10000e2a4>
10000c63f: 48 8b 05 6a 05 02 00        	movq	132458(%rip), %rax
10000c646: 48 8b 15 6b 05 02 00        	movq	132459(%rip), %rdx
10000c64d: 8b 34 13                    	movl	(%rbx,%rdx), %esi
10000c650: 0f af 34 03                 	imull	(%rbx,%rax), %esi
10000c654: 8d 4e ff                    	leal	-1(%rsi), %ecx
10000c657: 42 89 0c 33                 	movl	%ecx, (%rbx,%r14)
10000c65b: 85 f6                       	testl	%esi, %esi
10000c65d: 48 8b 35 74 05 02 00        	movq	132468(%rip), %rsi
10000c664: 74 27                       	je	39 <-[MlxWin mlx_gl_draw]+0x11d>
10000c666: 66 2e 0f 1f 84 00 00 00 00 00       	nopw	%cs:(%rax,%rax)
10000c670: 48 63 c9                    	movslq	%ecx, %rcx
10000c673: 48 8b 3c 33                 	movq	(%rbx,%rsi), %rdi
10000c677: c7 04 8f 00 00 00 ff        	movl	$4278190080, (%rdi,%rcx,4)
10000c67e: 42 8b 3c 33                 	movl	(%rbx,%r14), %edi
10000c682: 8d 4f ff                    	leal	-1(%rdi), %ecx
10000c685: 42 89 0c 33                 	movl	%ecx, (%rbx,%r14)
10000c689: 85 ff                       	testl	%edi, %edi
10000c68b: 75 e3                       	jne	-29 <-[MlxWin mlx_gl_draw]+0x100>
10000c68d: 8b 0c 03                    	movl	(%rbx,%rax), %ecx
10000c690: 44 8b 04 13                 	movl	(%rbx,%rdx), %r8d
10000c694: 48 8b 04 33                 	movq	(%rbx,%rsi), %rax
10000c698: 48 89 44 24 10              	movq	%rax, 16(%rsp)
10000c69d: c7 44 24 08 01 14 00 00     	movl	$5121, 8(%rsp)
10000c6a5: c7 04 24 e1 80 00 00        	movl	$32993, (%rsp)
10000c6ac: bf e1 0d 00 00              	movl	$3553, %edi
10000c6b1: 31 f6                       	xorl	%esi, %esi
10000c6b3: ba 58 80 00 00              	movl	$32856, %edx
10000c6b8: 45 31 c9                    	xorl	%r9d, %r9d
10000c6bb: e8 3e 1c 00 00              	callq	7230 <dyld_stub_binder+0x10000e2fe>
10000c6c0: 42 c7 04 33 00 00 00 00     	movl	$0, (%rbx,%r14)
10000c6c8: 48 83 c4 20                 	addq	$32, %rsp
10000c6cc: 5b                          	popq	%rbx
10000c6cd: 41 5c                       	popq	%r12
10000c6cf: 41 5e                       	popq	%r14
10000c6d1: 41 5f                       	popq	%r15
10000c6d3: 5d                          	popq	%rbp
10000c6d4: c3                          	retq
10000c6d5: 66 66 2e 0f 1f 84 00 00 00 00 00    	nopw	%cs:(%rax,%rax)

000000010000c6e0 _mlx_new_window:
10000c6e0: 55                          	pushq	%rbp
10000c6e1: 48 89 e5                    	movq	%rsp, %rbp
10000c6e4: 41 57                       	pushq	%r15
10000c6e6: 41 56                       	pushq	%r14
10000c6e8: 41 55                       	pushq	%r13
10000c6ea: 41 54                       	pushq	%r12
10000c6ec: 53                          	pushq	%rbx
10000c6ed: 48 83 ec 48                 	subq	$72, %rsp
10000c6f1: 49 89 ce                    	movq	%rcx, %r14
10000c6f4: 41 89 d7                    	movl	%edx, %r15d
10000c6f7: 41 89 f4                    	movl	%esi, %r12d
10000c6fa: 49 89 fd                    	movq	%rdi, %r13
10000c6fd: bf 20 00 00 00              	movl	$32, %edi
10000c702: e8 2d 1c 00 00              	callq	7213 <dyld_stub_binder+0x10000e334>
10000c707: 48 89 c3                    	movq	%rax, %rbx
10000c70a: 31 c0                       	xorl	%eax, %eax
10000c70c: 48 85 db                    	testq	%rbx, %rbx
10000c70f: 0f 84 e8 00 00 00           	je	232 <_mlx_new_window+0x11d>
10000c715: 48 c7 43 08 00 00 00 00     	movq	$0, 8(%rbx)
10000c71d: 49 8b 45 08                 	movq	8(%r13), %rax
10000c721: 48 89 43 18                 	movq	%rax, 24(%rbx)
10000c725: c7 43 10 00 00 00 00        	movl	$0, 16(%rbx)
10000c72c: c7 43 14 01 00 00 00        	movl	$1, 20(%rbx)
10000c733: 49 89 5d 08                 	movq	%rbx, 8(%r13)
10000c737: f2 41 0f 2a c4              	cvtsi2sd	%r12d, %xmm0
10000c73c: f2 41 0f 2a cf              	cvtsi2sd	%r15d, %xmm1
10000c741: 0f 28 15 98 48 00 00        	movaps	18584(%rip), %xmm2
10000c748: 0f 29 55 b0                 	movaps	%xmm2, -80(%rbp)
10000c74c: f2 0f 11 45 c0              	movsd	%xmm0, -64(%rbp)
10000c751: f2 0f 11 4d c8              	movsd	%xmm1, -56(%rbp)
10000c756: 48 8b 3d e3 03 02 00        	movq	132067(%rip), %rdi
10000c75d: 48 8b 35 1c 03 02 00        	movq	131868(%rip), %rsi
10000c764: 4c 8b 3d cd b8 01 00        	movq	112845(%rip), %r15
10000c76b: b9 01 00 00 00              	movl	$1, %ecx
10000c770: 4c 89 f2                    	movq	%r14, %rdx
10000c773: 41 ff d7                    	callq	*%r15
10000c776: 49 89 c6                    	movq	%rax, %r14
10000c779: 48 8b 3d c8 03 02 00        	movq	132040(%rip), %rdi
10000c780: 48 8b 35 39 02 02 00        	movq	131641(%rip), %rsi
10000c787: 41 ff d7                    	callq	*%r15
10000c78a: 48 8b 35 f7 02 02 00        	movq	131831(%rip), %rsi
10000c791: 48 8b 4d c8                 	movq	-56(%rbp), %rcx
10000c795: 48 89 4c 24 18              	movq	%rcx, 24(%rsp)
10000c79a: 48 8b 4d c0                 	movq	-64(%rbp), %rcx
10000c79e: 48 89 4c 24 10              	movq	%rcx, 16(%rsp)
10000c7a3: 48 8b 4d b0                 	movq	-80(%rbp), %rcx
10000c7a7: 48 8b 55 b8                 	movq	-72(%rbp), %rdx
10000c7ab: 48 89 54 24 08              	movq	%rdx, 8(%rsp)
10000c7b0: 48 89 0c 24                 	movq	%rcx, (%rsp)
10000c7b4: 48 8d 0d f5 04 02 00        	leaq	132341(%rip), %rcx
10000c7bb: 48 89 c7                    	movq	%rax, %rdi
10000c7be: 4c 89 f2                    	movq	%r14, %rdx
10000c7c1: 41 ff d7                    	callq	*%r15
10000c7c4: 48 89 03                    	movq	%rax, (%rbx)
10000c7c7: 48 85 c0                    	testq	%rax, %rax
10000c7ca: 74 2e                       	je	46 <_mlx_new_window+0x11a>
10000c7cc: 48 8b 35 bd 02 02 00        	movq	131773(%rip), %rsi
10000c7d3: 48 89 c7                    	movq	%rax, %rdi
10000c7d6: ff 15 5c b8 01 00           	callq	*112732(%rip)
10000c7dc: 85 c0                       	testl	%eax, %eax
10000c7de: 75 1a                       	jne	26 <_mlx_new_window+0x11a>
10000c7e0: 48 8b 3b                    	movq	(%rbx), %rdi
10000c7e3: 48 8b 35 ae 02 02 00        	movq	131758(%rip), %rsi
10000c7ea: 41 ff d7                    	callq	*%r15
10000c7ed: 48 8b 3b                    	movq	(%rbx), %rdi
10000c7f0: 48 8b 35 a9 02 02 00        	movq	131753(%rip), %rsi
10000c7f7: 41 ff d7                    	callq	*%r15
10000c7fa: 48 89 d8                    	movq	%rbx, %rax
10000c7fd: 48 83 c4 48                 	addq	$72, %rsp
10000c801: 5b                          	popq	%rbx
10000c802: 41 5c                       	popq	%r12
10000c804: 41 5d                       	popq	%r13
10000c806: 41 5e                       	popq	%r14
10000c808: 41 5f                       	popq	%r15
10000c80a: 5d                          	popq	%rbp
10000c80b: c3                          	retq
10000c80c: 0f 1f 40 00                 	nopl	(%rax)

000000010000c810 _mlx_clear_window:
10000c810: 55                          	pushq	%rbp
10000c811: 48 89 e5                    	movq	%rsp, %rbp
10000c814: 41 56                       	pushq	%r14
10000c816: 53                          	pushq	%rbx
10000c817: 48 89 f3                    	movq	%rsi, %rbx
10000c81a: 48 8b 3b                    	movq	(%rbx), %rdi
10000c81d: 48 8b 35 e4 02 02 00        	movq	131812(%rip), %rsi
10000c824: 4c 8b 35 0d b8 01 00        	movq	112653(%rip), %r14
10000c82b: 41 ff d6                    	callq	*%r14
10000c82e: 48 8b 3b                    	movq	(%rbx), %rdi
10000c831: 48 8b 35 70 02 02 00        	movq	131696(%rip), %rsi
10000c838: 41 ff d6                    	callq	*%r14
10000c83b: ff 43 10                    	incl	16(%rbx)
10000c83e: 5b                          	popq	%rbx
10000c83f: 41 5e                       	popq	%r14
10000c841: 5d                          	popq	%rbp
10000c842: c3                          	retq
10000c843: 66 66 66 66 2e 0f 1f 84 00 00 00 00 00      	nopw	%cs:(%rax,%rax)

000000010000c850 _mlx_expose_hook:
10000c850: 55                          	pushq	%rbp
10000c851: 48 89 e5                    	movq	%rsp, %rbp
10000c854: 48 89 d0                    	movq	%rdx, %rax
10000c857: 48 89 f1                    	movq	%rsi, %rcx
10000c85a: 48 8b 3f                    	movq	(%rdi), %rdi
10000c85d: 48 8b 35 14 02 02 00        	movq	131604(%rip), %rsi
10000c864: ba 0c 00 00 00              	movl	$12, %edx
10000c869: 49 89 c0                    	movq	%rax, %r8
10000c86c: 5d                          	popq	%rbp
10000c86d: ff 25 c5 b7 01 00           	jmpq	*112581(%rip)
10000c873: 66 66 66 66 2e 0f 1f 84 00 00 00 00 00      	nopw	%cs:(%rax,%rax)

000000010000c880 _mlx_key_hook:
10000c880: 55                          	pushq	%rbp
10000c881: 48 89 e5                    	movq	%rsp, %rbp
10000c884: 48 89 d0                    	movq	%rdx, %rax
10000c887: 48 89 f1                    	movq	%rsi, %rcx
10000c88a: 48 8b 3f                    	movq	(%rdi), %rdi
10000c88d: 48 8b 35 e4 01 02 00        	movq	131556(%rip), %rsi
10000c894: ba 03 00 00 00              	movl	$3, %edx
10000c899: 49 89 c0                    	movq	%rax, %r8
10000c89c: 5d                          	popq	%rbp
10000c89d: ff 25 95 b7 01 00           	jmpq	*112533(%rip)
10000c8a3: 66 66 66 66 2e 0f 1f 84 00 00 00 00 00      	nopw	%cs:(%rax,%rax)

000000010000c8b0 _mlx_mouse_hook:
10000c8b0: 55                          	pushq	%rbp
10000c8b1: 48 89 e5                    	movq	%rsp, %rbp
10000c8b4: 48 89 d0                    	movq	%rdx, %rax
10000c8b7: 48 89 f1                    	movq	%rsi, %rcx
10000c8ba: 48 8b 3f                    	movq	(%rdi), %rdi
10000c8bd: 48 8b 35 b4 01 02 00        	movq	131508(%rip), %rsi
10000c8c4: ba 04 00 00 00              	movl	$4, %edx
10000c8c9: 49 89 c0                    	movq	%rax, %r8
10000c8cc: 5d                          	popq	%rbp
10000c8cd: ff 25 65 b7 01 00           	jmpq	*112485(%rip)
10000c8d3: 66 66 66 66 2e 0f 1f 84 00 00 00 00 00      	nopw	%cs:(%rax,%rax)

000000010000c8e0 _mlx_hook:
10000c8e0: 55                          	pushq	%rbp
10000c8e1: 48 89 e5                    	movq	%rsp, %rbp
10000c8e4: 89 f0                       	movl	%esi, %eax
10000c8e6: 48 8b 3f                    	movq	(%rdi), %rdi
10000c8e9: 48 8b 35 88 01 02 00        	movq	131464(%rip), %rsi
10000c8f0: 89 c2                       	movl	%eax, %edx
10000c8f2: 5d                          	popq	%rbp
10000c8f3: ff 25 3f b7 01 00           	jmpq	*112447(%rip)
10000c8f9: 0f 1f 80 00 00 00 00        	nopl	(%rax)

000000010000c900 _mlx_do_key_autorepeatoff:
10000c900: 55                          	pushq	%rbp
10000c901: 48 89 e5                    	movq	%rsp, %rbp
10000c904: 41 56                       	pushq	%r14
10000c906: 53                          	pushq	%rbx
10000c907: 48 8b 5f 08                 	movq	8(%rdi), %rbx
10000c90b: 48 85 db                    	testq	%rbx, %rbx
10000c90e: 74 27                       	je	39 <_mlx_do_key_autorepeatoff+0x37>
10000c910: 4c 8b 35 d1 00 02 00        	movq	131281(%rip), %r14
10000c917: 66 0f 1f 84 00 00 00 00 00  	nopw	(%rax,%rax)
10000c920: 48 8b 3b                    	movq	(%rbx), %rdi
10000c923: 31 d2                       	xorl	%edx, %edx
10000c925: 4c 89 f6                    	movq	%r14, %rsi
10000c928: ff 15 0a b7 01 00           	callq	*112394(%rip)
10000c92e: 48 8b 5b 18                 	movq	24(%rbx), %rbx
10000c932: 48 85 db                    	testq	%rbx, %rbx
10000c935: 75 e9                       	jne	-23 <_mlx_do_key_autorepeatoff+0x20>
10000c937: 31 c0                       	xorl	%eax, %eax
10000c939: 5b                          	popq	%rbx
10000c93a: 41 5e                       	popq	%r14
10000c93c: 5d                          	popq	%rbp
10000c93d: c3                          	retq
10000c93e: 66 90                       	nop

000000010000c940 _mlx_do_key_autorepeaton:
10000c940: 55                          	pushq	%rbp
10000c941: 48 89 e5                    	movq	%rsp, %rbp
10000c944: 41 56                       	pushq	%r14
10000c946: 53                          	pushq	%rbx
10000c947: 48 8b 5f 08                 	movq	8(%rdi), %rbx
10000c94b: 48 85 db                    	testq	%rbx, %rbx
10000c94e: 74 2a                       	je	42 <_mlx_do_key_autorepeaton+0x3a>
10000c950: 4c 8b 35 91 00 02 00        	movq	131217(%rip), %r14
10000c957: 66 0f 1f 84 00 00 00 00 00  	nopw	(%rax,%rax)
10000c960: 48 8b 3b                    	movq	(%rbx), %rdi
10000c963: ba 01 00 00 00              	movl	$1, %edx
10000c968: 4c 89 f6                    	movq	%r14, %rsi
10000c96b: ff 15 c7 b6 01 00           	callq	*112327(%rip)
10000c971: 48 8b 5b 18                 	movq	24(%rbx), %rbx
10000c975: 48 85 db                    	testq	%rbx, %rbx
10000c978: 75 e6                       	jne	-26 <_mlx_do_key_autorepeaton+0x20>
10000c97a: 31 c0                       	xorl	%eax, %eax
10000c97c: 5b                          	popq	%rbx
10000c97d: 41 5e                       	popq	%r14
10000c97f: 5d                          	popq	%rbp
10000c980: c3                          	retq
10000c981: 66 66 66 66 66 66 2e 0f 1f 84 00 00 00 00 00	nopw	%cs:(%rax,%rax)

000000010000c990 _mlx_destroy_window:
10000c990: 55                          	pushq	%rbp
10000c991: 48 89 e5                    	movq	%rsp, %rbp
10000c994: 41 57                       	pushq	%r15
10000c996: 41 56                       	pushq	%r14
10000c998: 41 54                       	pushq	%r12
10000c99a: 53                          	pushq	%rbx
10000c99b: 48 83 ec 20                 	subq	$32, %rsp
10000c99f: 49 89 f7                    	movq	%rsi, %r15
10000c9a2: 49 89 fe                    	movq	%rdi, %r14
10000c9a5: 49 8b 46 08                 	movq	8(%r14), %rax
10000c9a9: 48 89 45 d8                 	movq	%rax, -40(%rbp)
10000c9ad: 48 85 c0                    	testq	%rax, %rax
10000c9b0: 74 2c                       	je	44 <_mlx_destroy_window+0x4e>
10000c9b2: 48 8d 4d c0                 	leaq	-64(%rbp), %rcx
10000c9b6: 66 2e 0f 1f 84 00 00 00 00 00       	nopw	%cs:(%rax,%rax)
10000c9c0: 4c 39 f8                    	cmpq	%r15, %rax
10000c9c3: 75 08                       	jne	8 <_mlx_destroy_window+0x3d>
10000c9c5: 49 8b 47 18                 	movq	24(%r15), %rax
10000c9c9: 48 89 41 18                 	movq	%rax, 24(%rcx)
10000c9cd: 48 85 c0                    	testq	%rax, %rax
10000c9d0: 74 0c                       	je	12 <_mlx_destroy_window+0x4e>
10000c9d2: 48 89 c1                    	movq	%rax, %rcx
10000c9d5: 48 8b 40 18                 	movq	24(%rax), %rax
10000c9d9: 48 85 c0                    	testq	%rax, %rax
10000c9dc: 75 e2                       	jne	-30 <_mlx_destroy_window+0x30>
10000c9de: 48 8b 45 d8                 	movq	-40(%rbp), %rax
10000c9e2: 49 89 46 08                 	movq	%rax, 8(%r14)
10000c9e6: 41 83 7f 14 00              	cmpl	$0, 20(%r15)
10000c9eb: 74 62                       	je	98 <_mlx_destroy_window+0xbf>
10000c9ed: 49 8b 3f                    	movq	(%r15), %rdi
10000c9f0: 48 8b 35 11 01 02 00        	movq	131345(%rip), %rsi
10000c9f7: ff 15 3b b6 01 00           	callq	*112187(%rip)
10000c9fd: 49 8b 5f 08                 	movq	8(%r15), %rbx
10000ca01: 48 85 db                    	testq	%rbx, %rbx
10000ca04: 74 39                       	je	57 <_mlx_destroy_window+0xaf>
10000ca06: 66 2e 0f 1f 84 00 00 00 00 00       	nopw	%cs:(%rax,%rax)
10000ca10: 48 8d 73 04                 	leaq	4(%rbx), %rsi
10000ca14: bf 01 00 00 00              	movl	$1, %edi
10000ca19: e8 68 18 00 00              	callq	6248 <dyld_stub_binder+0x10000e286>
10000ca1e: bf 01 00 00 00              	movl	$1, %edi
10000ca23: 48 89 de                    	movq	%rbx, %rsi
10000ca26: e8 6d 18 00 00              	callq	6253 <dyld_stub_binder+0x10000e298>
10000ca2b: 4c 8b 63 10                 	movq	16(%rbx), %r12
10000ca2f: 48 89 df                    	movq	%rbx, %rdi
10000ca32: e8 fb 17 00 00              	callq	6139 <dyld_stub_binder+0x10000e232>
10000ca37: 4d 85 e4                    	testq	%r12, %r12
10000ca3a: 4c 89 e3                    	movq	%r12, %rbx
10000ca3d: 75 d1                       	jne	-47 <_mlx_destroy_window+0x80>
10000ca3f: 49 8b 3f                    	movq	(%r15), %rdi
10000ca42: 48 8b 35 4f 00 02 00        	movq	131151(%rip), %rsi
10000ca49: ff 15 e9 b5 01 00           	callq	*112105(%rip)
10000ca4f: 49 8b 3f                    	movq	(%r15), %rdi
10000ca52: 48 8b 35 47 00 02 00        	movq	131143(%rip), %rsi
10000ca59: ff 15 d9 b5 01 00           	callq	*112089(%rip)
10000ca5f: 4c 89 ff                    	movq	%r15, %rdi
10000ca62: e8 cb 17 00 00              	callq	6091 <dyld_stub_binder+0x10000e232>
10000ca67: 4c 89 f7                    	movq	%r14, %rdi
10000ca6a: e8 61 04 00 00              	callq	1121 <_mlx_do_sync>
10000ca6f: 31 c0                       	xorl	%eax, %eax
10000ca71: 48 83 c4 20                 	addq	$32, %rsp
10000ca75: 5b                          	popq	%rbx
10000ca76: 41 5c                       	popq	%r12
10000ca78: 41 5e                       	popq	%r14
10000ca7a: 41 5f                       	popq	%r15
10000ca7c: 5d                          	popq	%rbp
10000ca7d: c3                          	retq
10000ca7e: 90                          	nop
10000ca7f: 90                          	nop

000000010000ca80 _do_loop_hook2:
10000ca80: 55                          	pushq	%rbp
10000ca81: 48 89 e5                    	movq	%rsp, %rbp
10000ca84: 48 8b 7e 20                 	movq	32(%rsi), %rdi
10000ca88: 5d                          	popq	%rbp
10000ca89: ff 66 18                    	jmpq	*24(%rsi)
10000ca8c: 0f 1f 40 00                 	nopl	(%rax)

000000010000ca90 _do_loop_flush:
10000ca90: 55                          	pushq	%rbp
10000ca91: 48 89 e5                    	movq	%rsp, %rbp
10000ca94: 41 57                       	pushq	%r15
10000ca96: 41 56                       	pushq	%r14
10000ca98: 41 54                       	pushq	%r12
10000ca9a: 53                          	pushq	%rbx
10000ca9b: 48 8b 5a 08                 	movq	8(%rdx), %rbx
10000ca9f: 48 85 db                    	testq	%rbx, %rbx
10000caa2: 74 4f                       	je	79 <_do_loop_flush+0x63>
10000caa4: 4c 8b 35 5d 00 02 00        	movq	131165(%rip), %r14
10000caab: 4c 8b 3d ae ff 01 00        	movq	130990(%rip), %r15
10000cab2: 4c 8b 25 7f b5 01 00        	movq	111999(%rip), %r12
10000cab9: 0f 1f 80 00 00 00 00        	nopl	(%rax)
10000cac0: 83 7b 10 00                 	cmpl	$0, 16(%rbx)
10000cac4: 7e 24                       	jle	36 <_do_loop_flush+0x5a>
10000cac6: 83 7b 14 00                 	cmpl	$0, 20(%rbx)
10000caca: 74 1e                       	je	30 <_do_loop_flush+0x5a>
10000cacc: 48 8b 3b                    	movq	(%rbx), %rdi
10000cacf: 4c 89 f6                    	movq	%r14, %rsi
10000cad2: 41 ff d4                    	callq	*%r12
10000cad5: 48 8b 3b                    	movq	(%rbx), %rdi
10000cad8: 4c 89 fe                    	movq	%r15, %rsi
10000cadb: 41 ff d4                    	callq	*%r12
10000cade: e8 d9 17 00 00              	callq	6105 <dyld_stub_binder+0x10000e2bc>
10000cae3: c7 43 10 00 00 00 00        	movl	$0, 16(%rbx)
10000caea: 48 8b 5b 18                 	movq	24(%rbx), %rbx
10000caee: 48 85 db                    	testq	%rbx, %rbx
10000caf1: 75 cd                       	jne	-51 <_do_loop_flush+0x30>
10000caf3: 5b                          	popq	%rbx
10000caf4: 41 5c                       	popq	%r12
10000caf6: 41 5e                       	popq	%r14
10000caf8: 41 5f                       	popq	%r15
10000cafa: 5d                          	popq	%rbp
10000cafb: c3                          	retq
10000cafc: 0f 1f 40 00                 	nopl	(%rax)

000000010000cb00 _mlx_init:
10000cb00: 55                          	pushq	%rbp
10000cb01: 48 89 e5                    	movq	%rsp, %rbp
10000cb04: 41 57                       	pushq	%r15
10000cb06: 41 56                       	pushq	%r14
10000cb08: 41 54                       	pushq	%r12
10000cb0a: 53                          	pushq	%rbx
10000cb0b: 48 81 ec e0 00 00 00        	subq	$224, %rsp
10000cb12: 4c 8b 35 f7 b4 01 00        	movq	111863(%rip), %r14
10000cb19: 4d 8b 36                    	movq	(%r14), %r14
10000cb1c: 4c 89 75 d8                 	movq	%r14, -40(%rbp)
10000cb20: bf 40 00 00 00              	movl	$64, %edi
10000cb25: e8 0a 18 00 00              	callq	6154 <dyld_stub_binder+0x10000e334>
10000cb2a: 49 89 c4                    	movq	%rax, %r12
10000cb2d: 31 c0                       	xorl	%eax, %eax
10000cb2f: 4d 85 e4                    	testq	%r12, %r12
10000cb32: 0f 84 b9 01 00 00           	je	441 <_mlx_init+0x1f1>
10000cb38: 41 c7 44 24 38 00 00 00 00  	movl	$0, 56(%r12)
10000cb41: 49 c7 44 24 20 00 00 00 00  	movq	$0, 32(%r12)
10000cb4a: 49 c7 44 24 18 00 00 00 00  	movq	$0, 24(%r12)
10000cb53: 49 c7 44 24 10 00 00 00 00  	movq	$0, 16(%r12)
10000cb5c: 49 c7 44 24 08 00 00 00 00  	movq	$0, 8(%r12)
10000cb65: 48 8b 3d e4 ff 01 00        	movq	131044(%rip), %rdi
10000cb6c: 48 8b 35 3d ff 01 00        	movq	130877(%rip), %rsi
10000cb73: 4c 8b 3d be b4 01 00        	movq	111806(%rip), %r15
10000cb7a: 41 ff d7                    	callq	*%r15
10000cb7d: 49 89 04 24                 	movq	%rax, (%r12)
10000cb81: 0f 57 c0                    	xorps	%xmm0, %xmm0
10000cb84: 0f 29 85 40 ff ff ff        	movaps	%xmm0, -192(%rbp)
10000cb8b: 0f 29 85 30 ff ff ff        	movaps	%xmm0, -208(%rbp)
10000cb92: 0f 29 85 20 ff ff ff        	movaps	%xmm0, -224(%rbp)
10000cb99: 0f 29 85 10 ff ff ff        	movaps	%xmm0, -240(%rbp)
10000cba0: 48 8b 3d b1 ff 01 00        	movq	130993(%rip), %rdi
10000cba7: 48 8b 35 0a ff 01 00        	movq	130826(%rip), %rsi
10000cbae: 48 8d 15 f3 b4 01 00        	leaq	111859(%rip), %rdx
10000cbb5: 41 ff d7                    	callq	*%r15
10000cbb8: 48 8b 35 01 ff 01 00        	movq	130817(%rip), %rsi
10000cbbf: 48 8d 95 10 ff ff ff        	leaq	-240(%rbp), %rdx
10000cbc6: 48 8d 8d 58 ff ff ff        	leaq	-168(%rbp), %rcx
10000cbcd: 41 b8 10 00 00 00           	movl	$16, %r8d
10000cbd3: 48 89 c7                    	movq	%rax, %rdi
10000cbd6: 41 ff d7                    	callq	*%r15
10000cbd9: 48 85 c0                    	testq	%rax, %rax
10000cbdc: 74 1c                       	je	28 <_mlx_init+0xfa>
10000cbde: 48 8b 85 18 ff ff ff        	movq	-232(%rbp), %rax
10000cbe5: 48 8b 38                    	movq	(%rax), %rdi
10000cbe8: 48 8b 35 d9 fe 01 00        	movq	130777(%rip), %rsi
10000cbef: ba 02 00 00 00              	movl	$2, %edx
10000cbf4: ff 15 3e b4 01 00           	callq	*111678(%rip)
10000cbfa: bf a0 86 01 00              	movl	$100000, %edi
10000cbff: e8 ba 17 00 00              	callq	6074 <dyld_stub_binder+0x10000e3be>
10000cc04: 48 b8 00 00 00 00 02 00 00 00       	movabsq	$8589934592, %rax
10000cc0e: 48 89 85 08 ff ff ff        	movq	%rax, -248(%rbp)
10000cc15: 48 8d bd 08 ff ff ff        	leaq	-248(%rbp), %rdi
10000cc1c: be 01 00 00 00              	movl	$1, %esi
10000cc21: e8 ac 15 00 00              	callq	5548 <dyld_stub_binder+0x10000e1d2>
10000cc26: bf a0 86 01 00              	movl	$100000, %edi
10000cc2b: e8 8e 17 00 00              	callq	6030 <dyld_stub_binder+0x10000e3be>
10000cc30: 48 8b 3d 21 ff 01 00        	movq	130849(%rip), %rdi
10000cc37: 48 8b 35 92 fe 01 00        	movq	130706(%rip), %rsi
10000cc3e: 41 ff d7                    	callq	*%r15
10000cc41: 48 8b 35 80 fe 01 00        	movq	130688(%rip), %rsi
10000cc48: ba 02 00 00 00              	movl	$2, %edx
10000cc4d: 48 89 c7                    	movq	%rax, %rdi
10000cc50: 41 ff d7                    	callq	*%r15
10000cc53: 31 db                       	xorl	%ebx, %ebx
10000cc55: be 74 04 00 00              	movl	$1140, %esi
10000cc5a: ba 14 00 00 00              	movl	$20, %edx
10000cc5f: 31 c0                       	xorl	%eax, %eax
10000cc61: 4c 89 e7                    	movq	%r12, %rdi
10000cc64: e8 97 04 00 00              	callq	1175 <_mlx_new_image>
10000cc69: 49 89 44 24 30              	movq	%rax, 48(%r12)
10000cc6e: 48 8d 0d a3 43 00 00        	leaq	17315(%rip), %rcx
10000cc75: 66 66 2e 0f 1f 84 00 00 00 00 00    	nopw	%cs:(%rax,%rax)
10000cc80: 8a 54 0b 0e                 	movb	14(%rbx,%rcx), %dl
10000cc84: 48 8b 40 08                 	movq	8(%rax), %rax
10000cc88: 88 14 18                    	movb	%dl, (%rax,%rbx)
10000cc8b: 8a 44 0b 0c                 	movb	12(%rbx,%rcx), %al
10000cc8f: 8a 54 0b 0d                 	movb	13(%rbx,%rcx), %dl
10000cc93: 49 8b 74 24 30              	movq	48(%r12), %rsi
10000cc98: 48 8b 76 08                 	movq	8(%rsi), %rsi
10000cc9c: 88 54 1e 01                 	movb	%dl, 1(%rsi,%rbx)
10000cca0: 49 8b 54 24 30              	movq	48(%r12), %rdx
10000cca5: 48 8b 52 08                 	movq	8(%rdx), %rdx
10000cca9: 88 44 1a 02                 	movb	%al, 2(%rdx,%rbx)
10000ccad: 8a 44 0b 0f                 	movb	15(%rbx,%rcx), %al
10000ccb1: f6 d0                       	notb	%al
10000ccb3: 49 8b 54 24 30              	movq	48(%r12), %rdx
10000ccb8: 48 8b 52 08                 	movq	8(%rdx), %rdx
10000ccbc: 88 44 1a 03                 	movb	%al, 3(%rdx,%rbx)
10000ccc0: 48 83 c3 04                 	addq	$4, %rbx
10000ccc4: 49 8b 44 24 30              	movq	48(%r12), %rax
10000ccc9: 48 81 fb 40 64 01 00        	cmpq	$91200, %rbx
10000ccd0: 7c ae                       	jl	-82 <_mlx_init+0x180>
10000ccd2: c7 40 18 00 00 20 41        	movl	$1092616192, 24(%rax)
10000ccd9: c7 40 20 00 00 20 41        	movl	$1092616192, 32(%rax)
10000cce0: c7 40 24 00 00 a8 c1        	movl	$3249012736, 36(%rax)
10000cce7: c7 40 2c 00 00 a8 c1        	movl	$3249012736, 44(%rax)
10000ccee: 4c 89 e0                    	movq	%r12, %rax
10000ccf1: 4c 3b 75 d8                 	cmpq	-40(%rbp), %r14
10000ccf5: 75 10                       	jne	16 <_mlx_init+0x207>
10000ccf7: 48 81 c4 e0 00 00 00        	addq	$224, %rsp
10000ccfe: 5b                          	popq	%rbx
10000ccff: 41 5c                       	popq	%r12
10000cd01: 41 5e                       	popq	%r14
10000cd03: 41 5f                       	popq	%r15
10000cd05: 5d                          	popq	%rbp
10000cd06: c3                          	retq
10000cd07: e8 e4 14 00 00              	callq	5348 <dyld_stub_binder+0x10000e1f0>
10000cd0c: 0f 1f 40 00                 	nopl	(%rax)

000000010000cd10 _mlx_loop:
10000cd10: 55                          	pushq	%rbp
10000cd11: 48 89 e5                    	movq	%rsp, %rbp
10000cd14: 53                          	pushq	%rbx
10000cd15: 48 83 ec 28                 	subq	$40, %rsp
10000cd19: 48 c7 45 d0 00 00 00 00     	movq	$0, -48(%rbp)
10000cd21: 48 89 7d d8                 	movq	%rdi, -40(%rbp)
10000cd25: 48 c7 45 f0 00 00 00 00     	movq	$0, -16(%rbp)
10000cd2d: 48 c7 45 e8 00 00 00 00     	movq	$0, -24(%rbp)
10000cd35: 48 c7 45 e0 00 00 00 00     	movq	$0, -32(%rbp)
10000cd3d: c7 47 38 01 00 00 00        	movl	$1, 56(%rdi)
10000cd44: 4c 8d 05 45 fd ff ff        	leaq	-699(%rip), %r8
10000cd4b: 4c 8d 4d d0                 	leaq	-48(%rbp), %r9
10000cd4f: 31 ff                       	xorl	%edi, %edi
10000cd51: be 02 00 00 00              	movl	$2, %esi
10000cd56: ba 01 00 00 00              	movl	$1, %edx
10000cd5b: 31 c9                       	xorl	%ecx, %ecx
10000cd5d: e8 5e 14 00 00              	callq	5214 <dyld_stub_binder+0x10000e1c0>
10000cd62: 48 89 c3                    	movq	%rax, %rbx
10000cd65: e8 50 14 00 00              	callq	5200 <dyld_stub_binder+0x10000e1ba>
10000cd6a: 48 8b 0d bf b2 01 00        	movq	111295(%rip), %rcx
10000cd71: 48 8b 11                    	movq	(%rcx), %rdx
10000cd74: 48 89 c7                    	movq	%rax, %rdi
10000cd77: 48 89 de                    	movq	%rbx, %rsi
10000cd7a: e8 2f 14 00 00              	callq	5167 <dyld_stub_binder+0x10000e1ae>
10000cd7f: 48 8b 05 7a b2 01 00        	movq	111226(%rip), %rax
10000cd86: 48 8b 38                    	movq	(%rax), %rdi
10000cd89: 48 8b 35 48 fd 01 00        	movq	130376(%rip), %rsi
10000cd90: ff 15 a2 b2 01 00           	callq	*111266(%rip)
10000cd96: 48 83 c4 28                 	addq	$40, %rsp
10000cd9a: 5b                          	popq	%rbx
10000cd9b: 5d                          	popq	%rbp
10000cd9c: c3                          	retq
10000cd9d: 0f 1f 00                    	nopl	(%rax)

000000010000cda0 _mlx_pixel_put:
10000cda0: 55                          	pushq	%rbp
10000cda1: 48 89 e5                    	movq	%rsp, %rbp
10000cda4: 41 57                       	pushq	%r15
10000cda6: 41 56                       	pushq	%r14
10000cda8: 41 55                       	pushq	%r13
10000cdaa: 41 54                       	pushq	%r12
10000cdac: 53                          	pushq	%rbx
10000cdad: 50                          	pushq	%rax
10000cdae: 45 89 c7                    	movl	%r8d, %r15d
10000cdb1: 41 89 ce                    	movl	%ecx, %r14d
10000cdb4: 41 89 d4                    	movl	%edx, %r12d
10000cdb7: 48 89 f3                    	movq	%rsi, %rbx
10000cdba: 83 7b 14 00                 	cmpl	$0, 20(%rbx)
10000cdbe: 74 2d                       	je	45 <_mlx_pixel_put+0x4d>
10000cdc0: 48 8b 3b                    	movq	(%rbx), %rdi
10000cdc3: 48 8b 35 3e fd 01 00        	movq	130366(%rip), %rsi
10000cdca: 4c 8b 2d 67 b2 01 00        	movq	111207(%rip), %r13
10000cdd1: 41 ff d5                    	callq	*%r13
10000cdd4: 48 8b 3b                    	movq	(%rbx), %rdi
10000cdd7: 48 8b 35 02 fd 01 00        	movq	130306(%rip), %rsi
10000cdde: 44 89 fa                    	movl	%r15d, %edx
10000cde1: 44 89 e1                    	movl	%r12d, %ecx
10000cde4: 45 89 f0                    	movl	%r14d, %r8d
10000cde7: 41 ff d5                    	callq	*%r13
10000cdea: ff 43 10                    	incl	16(%rbx)
10000cded: 48 83 c4 08                 	addq	$8, %rsp
10000cdf1: 5b                          	popq	%rbx
10000cdf2: 41 5c                       	popq	%r12
10000cdf4: 41 5d                       	popq	%r13
10000cdf6: 41 5e                       	popq	%r14
10000cdf8: 41 5f                       	popq	%r15
10000cdfa: 5d                          	popq	%rbp
10000cdfb: c3                          	retq
10000cdfc: 0f 1f 40 00                 	nopl	(%rax)

000000010000ce00 _mlx_int_loop_once:
10000ce00: 55                          	pushq	%rbp
10000ce01: 48 89 e5                    	movq	%rsp, %rbp
10000ce04: 41 57                       	pushq	%r15
10000ce06: 41 56                       	pushq	%r14
10000ce08: 41 55                       	pushq	%r13
10000ce0a: 41 54                       	pushq	%r12
10000ce0c: 53                          	pushq	%rbx
10000ce0d: 50                          	pushq	%rax
10000ce0e: 48 8b 3d 4b fd 01 00        	movq	130379(%rip), %rdi
10000ce15: 48 8b 35 cc fc 01 00        	movq	130252(%rip), %rsi
10000ce1c: 4c 8b 3d 15 b2 01 00        	movq	111125(%rip), %r15
10000ce23: f2 0f 10 05 75 40 00 00     	movsd	16501(%rip), %xmm0
10000ce2b: 41 ff d7                    	callq	*%r15
10000ce2e: 49 89 c6                    	movq	%rax, %r14
10000ce31: 4c 8b 25 c8 b1 01 00        	movq	111048(%rip), %r12
10000ce38: 49 8b 3c 24                 	movq	(%r12), %rdi
10000ce3c: 48 8b 05 c5 b1 01 00        	movq	111045(%rip), %rax
10000ce43: 48 8b 18                    	movq	(%rax), %rbx
10000ce46: 48 8b 35 a3 fc 01 00        	movq	130211(%rip), %rsi
10000ce4d: 48 c7 c2 ff ff ff ff        	movq	$-1, %rdx
10000ce54: 41 b9 01 00 00 00           	movl	$1, %r9d
10000ce5a: 4c 89 f1                    	movq	%r14, %rcx
10000ce5d: 49 89 d8                    	movq	%rbx, %r8
10000ce60: 41 ff d7                    	callq	*%r15
10000ce63: 48 85 c0                    	testq	%rax, %rax
10000ce66: 74 49                       	je	73 <_mlx_int_loop_once+0xb1>
10000ce68: 4c 8b 2d 81 fc 01 00        	movq	130177(%rip), %r13
10000ce6f: 90                          	nop
10000ce70: 49 8b 3c 24                 	movq	(%r12), %rdi
10000ce74: 48 8b 35 7d fc 01 00        	movq	130173(%rip), %rsi
10000ce7b: 48 89 c2                    	movq	%rax, %rdx
10000ce7e: 41 ff d7                    	callq	*%r15
10000ce81: 49 8b 3c 24                 	movq	(%r12), %rdi
10000ce85: 48 8b 35 74 fc 01 00        	movq	130164(%rip), %rsi
10000ce8c: 41 ff d7                    	callq	*%r15
10000ce8f: 49 8b 3c 24                 	movq	(%r12), %rdi
10000ce93: 48 c7 c2 ff ff ff ff        	movq	$-1, %rdx
10000ce9a: 41 b9 01 00 00 00           	movl	$1, %r9d
10000cea0: 4c 89 ee                    	movq	%r13, %rsi
10000cea3: 4c 89 f1                    	movq	%r14, %rcx
10000cea6: 49 89 d8                    	movq	%rbx, %r8
10000cea9: 41 ff d7                    	callq	*%r15
10000ceac: 48 85 c0                    	testq	%rax, %rax
10000ceaf: 75 bf                       	jne	-65 <_mlx_int_loop_once+0x70>
10000ceb1: 48 8b 35 88 fb 01 00        	movq	129928(%rip), %rsi
10000ceb8: 4c 89 f7                    	movq	%r14, %rdi
10000cebb: 48 83 c4 08                 	addq	$8, %rsp
10000cebf: 5b                          	popq	%rbx
10000cec0: 41 5c                       	popq	%r12
10000cec2: 41 5d                       	popq	%r13
10000cec4: 41 5e                       	popq	%r14
10000cec6: 41 5f                       	popq	%r15
10000cec8: 5d                          	popq	%rbp
10000cec9: ff 25 69 b1 01 00           	jmpq	*110953(%rip)
10000cecf: 90                          	nop

000000010000ced0 _mlx_do_sync:
10000ced0: 55                          	pushq	%rbp
10000ced1: 48 89 e5                    	movq	%rsp, %rbp
10000ced4: 41 57                       	pushq	%r15
10000ced6: 41 56                       	pushq	%r14
10000ced8: 41 55                       	pushq	%r13
10000ceda: 41 54                       	pushq	%r12
10000cedc: 53                          	pushq	%rbx
10000cedd: 48 83 ec 28                 	subq	$40, %rsp
10000cee1: 48 89 7d d0                 	movq	%rdi, -48(%rbp)
10000cee5: 4c 8b 67 08                 	movq	8(%rdi), %r12
10000cee9: 4d 85 e4                    	testq	%r12, %r12
10000ceec: 0f 84 2f 01 00 00           	je	303 <_mlx_do_sync+0x151>
10000cef2: 48 8b 05 0f b1 01 00        	movq	110863(%rip), %rax
10000cef9: 48 8b 00                    	movq	(%rax), %rax
10000cefc: 48 89 45 c0                 	movq	%rax, -64(%rbp)
10000cf00: 4c 8b 2d f1 fb 01 00        	movq	130033(%rip), %r13
10000cf07: 48 8b 05 f2 fb 01 00        	movq	130034(%rip), %rax
10000cf0e: 48 8b 15 23 b1 01 00        	movq	110883(%rip), %rdx
10000cf15: 4c 8b 3d e4 b0 01 00        	movq	110820(%rip), %r15
10000cf1c: 0f 1f 40 00                 	nopl	(%rax)
10000cf20: 41 83 7c 24 14 00           	cmpl	$0, 20(%r12)
10000cf26: 0f 84 e7 00 00 00           	je	231 <_mlx_do_sync+0x143>
10000cf2c: 49 8b 3c 24                 	movq	(%r12), %rdi
10000cf30: 49 89 c6                    	movq	%rax, %r14
10000cf33: 48 8b 35 ce fb 01 00        	movq	129998(%rip), %rsi
10000cf3a: 48 89 d3                    	movq	%rdx, %rbx
10000cf3d: ff d3                       	callq	*%rbx
10000cf3f: 49 8b 3c 24                 	movq	(%r12), %rdi
10000cf43: 48 8b 35 16 fb 01 00        	movq	129814(%rip), %rsi
10000cf4a: ff d3                       	callq	*%rbx
10000cf4c: e8 6b 13 00 00              	callq	4971 <dyld_stub_binder+0x10000e2bc>
10000cf51: 48 89 da                    	movq	%rbx, %rdx
10000cf54: 4c 89 f0                    	movq	%r14, %rax
10000cf57: 48 8b 4d d0                 	movq	-48(%rbp), %rcx
10000cf5b: 83 79 38 00                 	cmpl	$0, 56(%rcx)
10000cf5f: 0f 85 ae 00 00 00           	jne	174 <_mlx_do_sync+0x143>
10000cf65: 4c 89 65 c8                 	movq	%r12, -56(%rbp)
10000cf69: 48 8b 3d f0 fb 01 00        	movq	130032(%rip), %rdi
10000cf70: 48 8b 35 71 fb 01 00        	movq	129905(%rip), %rsi
10000cf77: f2 0f 10 05 21 3f 00 00     	movsd	16161(%rip), %xmm0
10000cf7f: 49 89 d6                    	movq	%rdx, %r14
10000cf82: 41 ff d6                    	callq	*%r14
10000cf85: 49 89 c5                    	movq	%rax, %r13
10000cf88: 49 8b 3f                    	movq	(%r15), %rdi
10000cf8b: 48 c7 c2 ff ff ff ff        	movq	$-1, %rdx
10000cf92: 41 b9 01 00 00 00           	movl	$1, %r9d
10000cf98: 4c 8b 25 51 fb 01 00        	movq	129873(%rip), %r12
10000cf9f: 4c 89 e6                    	movq	%r12, %rsi
10000cfa2: 4c 89 e9                    	movq	%r13, %rcx
10000cfa5: 48 8b 5d c0                 	movq	-64(%rbp), %rbx
10000cfa9: eb 38                       	jmp	56 <_mlx_do_sync+0x113>
10000cfab: 0f 1f 44 00 00              	nopl	(%rax,%rax)
10000cfb0: 49 8b 3f                    	movq	(%r15), %rdi
10000cfb3: 48 8b 35 3e fb 01 00        	movq	129854(%rip), %rsi
10000cfba: 48 89 c2                    	movq	%rax, %rdx
10000cfbd: 41 ff d6                    	callq	*%r14
10000cfc0: 49 8b 3f                    	movq	(%r15), %rdi
10000cfc3: 48 8b 35 36 fb 01 00        	movq	129846(%rip), %rsi
10000cfca: 41 ff d6                    	callq	*%r14
10000cfcd: 49 8b 3f                    	movq	(%r15), %rdi
10000cfd0: 48 c7 c2 ff ff ff ff        	movq	$-1, %rdx
10000cfd7: 41 b9 01 00 00 00           	movl	$1, %r9d
10000cfdd: 4c 89 e6                    	movq	%r12, %rsi
10000cfe0: 4c 89 e9                    	movq	%r13, %rcx
10000cfe3: 49 89 d8                    	movq	%rbx, %r8
10000cfe6: 41 ff d6                    	callq	*%r14
10000cfe9: 48 85 c0                    	testq	%rax, %rax
10000cfec: 75 c2                       	jne	-62 <_mlx_do_sync+0xe0>
10000cfee: 4c 89 ef                    	movq	%r13, %rdi
10000cff1: 48 8b 35 48 fa 01 00        	movq	129608(%rip), %rsi
10000cff8: ff 15 3a b0 01 00           	callq	*110650(%rip)
10000cffe: 4c 8b 2d f3 fa 01 00        	movq	129779(%rip), %r13
10000d005: 48 8b 05 f4 fa 01 00        	movq	129780(%rip), %rax
10000d00c: 4c 89 f2                    	movq	%r14, %rdx
10000d00f: 4c 8b 65 c8                 	movq	-56(%rbp), %r12
10000d013: 4d 8b 64 24 18              	movq	24(%r12), %r12
10000d018: 4d 85 e4                    	testq	%r12, %r12
10000d01b: 0f 85 ff fe ff ff           	jne	-257 <_mlx_do_sync+0x50>
10000d021: 31 c0                       	xorl	%eax, %eax
10000d023: 48 83 c4 28                 	addq	$40, %rsp
10000d027: 5b                          	popq	%rbx
10000d028: 41 5c                       	popq	%r12
10000d02a: 41 5d                       	popq	%r13
10000d02c: 41 5e                       	popq	%r14
10000d02e: 41 5f                       	popq	%r15
10000d030: 5d                          	popq	%rbp
10000d031: c3                          	retq
10000d032: 66 66 66 66 66 2e 0f 1f 84 00 00 00 00 00   	nopw	%cs:(%rax,%rax)

000000010000d040 _mlx_loop_hook:
10000d040: 55                          	pushq	%rbp
10000d041: 48 89 e5                    	movq	%rsp, %rbp
10000d044: 41 57                       	pushq	%r15
10000d046: 41 56                       	pushq	%r14
10000d048: 53                          	pushq	%rbx
10000d049: 48 83 ec 28                 	subq	$40, %rsp
10000d04d: 49 89 d7                    	movq	%rdx, %r15
10000d050: 49 89 f6                    	movq	%rsi, %r14
10000d053: 48 89 fb                    	movq	%rdi, %rbx
10000d056: 48 c7 45 c0 00 00 00 00     	movq	$0, -64(%rbp)
10000d05e: 48 89 5d c8                 	movq	%rbx, -56(%rbp)
10000d062: 48 c7 45 e0 00 00 00 00     	movq	$0, -32(%rbp)
10000d06a: 48 c7 45 d8 00 00 00 00     	movq	$0, -40(%rbp)
10000d072: 48 c7 45 d0 00 00 00 00     	movq	$0, -48(%rbp)
10000d07a: 48 83 7b 18 00              	cmpq	$0, 24(%rbx)
10000d07f: 74 1a                       	je	26 <_mlx_loop_hook+0x5b>
10000d081: 48 8b 7b 28                 	movq	40(%rbx), %rdi
10000d085: e8 42 11 00 00              	callq	4418 <dyld_stub_binder+0x10000e1cc>
10000d08a: 48 8b 7b 28                 	movq	40(%rbx), %rdi
10000d08e: 48 8b 35 ab f9 01 00        	movq	129451(%rip), %rsi
10000d095: ff 15 9d af 01 00           	callq	*110493(%rip)
10000d09b: 4c 89 73 18                 	movq	%r14, 24(%rbx)
10000d09f: 4c 89 7b 20                 	movq	%r15, 32(%rbx)
10000d0a3: 4d 85 f6                    	testq	%r14, %r14
10000d0a6: 74 4a                       	je	74 <_mlx_loop_hook+0xb2>
10000d0a8: 48 8b 05 79 af 01 00        	movq	110457(%rip), %rax
10000d0af: 48 8b 38                    	movq	(%rax), %rdi
10000d0b2: 48 8d 0d c7 f9 ff ff        	leaq	-1593(%rip), %rcx
10000d0b9: f2 0f 10 0d 4f 3f 00 00     	movsd	16207(%rip), %xmm1
10000d0c1: 4c 8d 45 c0                 	leaq	-64(%rbp), %r8
10000d0c5: 0f 57 c0                    	xorps	%xmm0, %xmm0
10000d0c8: 31 f6                       	xorl	%esi, %esi
10000d0ca: 31 d2                       	xorl	%edx, %edx
10000d0cc: e8 f5 10 00 00              	callq	4341 <dyld_stub_binder+0x10000e1c6>
10000d0d1: 49 89 c6                    	movq	%rax, %r14
10000d0d4: 4c 89 73 28                 	movq	%r14, 40(%rbx)
10000d0d8: e8 dd 10 00 00              	callq	4317 <dyld_stub_binder+0x10000e1ba>
10000d0dd: 48 8b 0d 4c af 01 00        	movq	110412(%rip), %rcx
10000d0e4: 48 8b 11                    	movq	(%rcx), %rdx
10000d0e7: 48 89 c7                    	movq	%rax, %rdi
10000d0ea: 4c 89 f6                    	movq	%r14, %rsi
10000d0ed: e8 c2 10 00 00              	callq	4290 <dyld_stub_binder+0x10000e1b4>
10000d0f2: 31 c0                       	xorl	%eax, %eax
10000d0f4: 48 83 c4 28                 	addq	$40, %rsp
10000d0f8: 5b                          	popq	%rbx
10000d0f9: 41 5e                       	popq	%r14
10000d0fb: 41 5f                       	popq	%r15
10000d0fd: 5d                          	popq	%rbp
10000d0fe: c3                          	retq
10000d0ff: 90                          	nop

000000010000d100 _mlx_new_image:
10000d100: 55                          	pushq	%rbp
10000d101: 48 89 e5                    	movq	%rsp, %rbp
10000d104: 41 57                       	pushq	%r15
10000d106: 41 56                       	pushq	%r14
10000d108: 41 54                       	pushq	%r12
10000d10a: 53                          	pushq	%rbx
10000d10b: 41 89 d7                    	movl	%edx, %r15d
10000d10e: 41 89 f6                    	movl	%esi, %r14d
10000d111: 49 89 fc                    	movq	%rdi, %r12
10000d114: bf 38 00 00 00              	movl	$56, %edi
10000d119: e8 16 12 00 00              	callq	4630 <dyld_stub_binder+0x10000e334>
10000d11e: 48 89 c3                    	movq	%rax, %rbx
10000d121: 31 c0                       	xorl	%eax, %eax
10000d123: 48 85 db                    	testq	%rbx, %rbx
10000d126: 74 7a                       	je	122 <_mlx_new_image+0xa2>
10000d128: 49 8b 44 24 10              	movq	16(%r12), %rax
10000d12d: 48 89 43 30                 	movq	%rax, 48(%rbx)
10000d131: 49 89 5c 24 10              	movq	%rbx, 16(%r12)
10000d136: 44 89 33                    	movl	%r14d, (%rbx)
10000d139: 44 89 7b 04                 	movl	%r15d, 4(%rbx)
10000d13d: c7 43 10 00 00 00 00        	movl	$0, 16(%rbx)
10000d144: c7 43 14 00 00 00 00        	movl	$0, 20(%rbx)
10000d14b: f3 41 0f 2a c6              	cvtsi2ss	%r14d, %xmm0
10000d150: f3 0f 11 43 18              	movss	%xmm0, 24(%rbx)
10000d155: c7 43 1c 00 00 00 00        	movl	$0, 28(%rbx)
10000d15c: f3 0f 11 43 20              	movss	%xmm0, 32(%rbx)
10000d161: 45 0f af f7                 	imull	%r15d, %r14d
10000d165: 41 f7 df                    	negl	%r15d
10000d168: 0f 57 c0                    	xorps	%xmm0, %xmm0
10000d16b: f3 41 0f 2a c7              	cvtsi2ss	%r15d, %xmm0
10000d170: f3 0f 11 43 24              	movss	%xmm0, 36(%rbx)
10000d175: c7 43 28 00 00 00 00        	movl	$0, 40(%rbx)
10000d17c: f3 0f 11 43 2c              	movss	%xmm0, 44(%rbx)
10000d181: 41 c1 e6 02                 	shll	$2, %r14d
10000d185: 4d 63 f6                    	movslq	%r14d, %r14
10000d188: 4c 89 f7                    	movq	%r14, %rdi
10000d18b: e8 a4 11 00 00              	callq	4516 <dyld_stub_binder+0x10000e334>
10000d190: 48 89 43 08                 	movq	%rax, 8(%rbx)
10000d194: 48 89 c7                    	movq	%rax, %rdi
10000d197: 4c 89 f6                    	movq	%r14, %rsi
10000d19a: e8 3f 10 00 00              	callq	4159 <dyld_stub_binder+0x10000e1de>
10000d19f: 48 89 d8                    	movq	%rbx, %rax
10000d1a2: 5b                          	popq	%rbx
10000d1a3: 41 5c                       	popq	%r12
10000d1a5: 41 5e                       	popq	%r14
10000d1a7: 41 5f                       	popq	%r15
10000d1a9: 5d                          	popq	%rbp
10000d1aa: c3                          	retq
10000d1ab: 0f 1f 44 00 00              	nopl	(%rax,%rax)

000000010000d1b0 _add_img_to_ctx:
10000d1b0: 55                          	pushq	%rbp
10000d1b1: 48 89 e5                    	movq	%rsp, %rbp
10000d1b4: 41 57                       	pushq	%r15
10000d1b6: 41 56                       	pushq	%r14
10000d1b8: 41 54                       	pushq	%r12
10000d1ba: 53                          	pushq	%rbx
10000d1bb: 48 83 ec 20                 	subq	$32, %rsp
10000d1bf: 49 89 f7                    	movq	%rsi, %r15
10000d1c2: 49 89 fe                    	movq	%rdi, %r14
10000d1c5: 4d 8b 67 08                 	movq	8(%r15), %r12
10000d1c9: 4d 85 e4                    	testq	%r12, %r12
10000d1cc: 74 25                       	je	37 <_add_img_to_ctx+0x43>
10000d1ce: 4c 89 e3                    	movq	%r12, %rbx
10000d1d1: 66 66 66 66 66 66 2e 0f 1f 84 00 00 00 00 00	nopw	%cs:(%rax,%rax)
10000d1e0: 4c 39 73 08                 	cmpq	%r14, 8(%rbx)
10000d1e4: 0f 84 f4 00 00 00           	je	244 <_add_img_to_ctx+0x12e>
10000d1ea: 48 8b 5b 10                 	movq	16(%rbx), %rbx
10000d1ee: 48 85 db                    	testq	%rbx, %rbx
10000d1f1: 75 ed                       	jne	-19 <_add_img_to_ctx+0x30>
10000d1f3: bf 18 00 00 00              	movl	$24, %edi
10000d1f8: e8 37 11 00 00              	callq	4407 <dyld_stub_binder+0x10000e334>
10000d1fd: 48 89 c3                    	movq	%rax, %rbx
10000d200: 4c 89 73 08                 	movq	%r14, 8(%rbx)
10000d204: 4c 89 63 10                 	movq	%r12, 16(%rbx)
10000d208: 49 89 5f 08                 	movq	%rbx, 8(%r15)
10000d20c: bf 01 00 00 00              	movl	$1, %edi
10000d211: 48 89 de                    	movq	%rbx, %rsi
10000d214: e8 af 10 00 00              	callq	4271 <dyld_stub_binder+0x10000e2c8>
10000d219: 8b 33                       	movl	(%rbx), %esi
10000d21b: bf e1 0d 00 00              	movl	$3553, %edi
10000d220: e8 2b 10 00 00              	callq	4139 <dyld_stub_binder+0x10000e250>
10000d225: bf e1 0d 00 00              	movl	$3553, %edi
10000d22a: be 01 28 00 00              	movl	$10241, %esi
10000d22f: ba 01 26 00 00              	movl	$9729, %edx
10000d234: e8 cb 10 00 00              	callq	4299 <dyld_stub_binder+0x10000e304>
10000d239: bf e1 0d 00 00              	movl	$3553, %edi
10000d23e: be 00 28 00 00              	movl	$10240, %esi
10000d243: ba 01 26 00 00              	movl	$9729, %edx
10000d248: e8 b7 10 00 00              	callq	4279 <dyld_stub_binder+0x10000e304>
10000d24d: bf e1 0d 00 00              	movl	$3553, %edi
10000d252: be 02 28 00 00              	movl	$10242, %esi
10000d257: ba 2f 81 00 00              	movl	$33071, %edx
10000d25c: e8 a3 10 00 00              	callq	4259 <dyld_stub_binder+0x10000e304>
10000d261: bf e1 0d 00 00              	movl	$3553, %edi
10000d266: be 03 28 00 00              	movl	$10243, %esi
10000d26b: ba 2f 81 00 00              	movl	$33071, %edx
10000d270: e8 8f 10 00 00              	callq	4239 <dyld_stub_binder+0x10000e304>
10000d275: 41 8b 0e                    	movl	(%r14), %ecx
10000d278: 45 8b 46 04                 	movl	4(%r14), %r8d
10000d27c: 49 8b 46 08                 	movq	8(%r14), %rax
10000d280: 48 89 44 24 10              	movq	%rax, 16(%rsp)
10000d285: c7 44 24 08 01 14 00 00     	movl	$5121, 8(%rsp)
10000d28d: c7 04 24 e1 80 00 00        	movl	$32993, (%rsp)
10000d294: bf e1 0d 00 00              	movl	$3553, %edi
10000d299: 31 f6                       	xorl	%esi, %esi
10000d29b: ba 58 80 00 00              	movl	$32856, %edx
10000d2a0: 45 31 c9                    	xorl	%r9d, %r9d
10000d2a3: e8 56 10 00 00              	callq	4182 <dyld_stub_binder+0x10000e2fe>
10000d2a8: 48 8d 73 04                 	leaq	4(%rbx), %rsi
10000d2ac: bf 01 00 00 00              	movl	$1, %edi
10000d2b1: e8 0c 10 00 00              	callq	4108 <dyld_stub_binder+0x10000e2c2>
10000d2b6: 8b 73 04                    	movl	4(%rbx), %esi
10000d2b9: bf 92 88 00 00              	movl	$34962, %edi
10000d2be: e8 87 0f 00 00              	callq	3975 <dyld_stub_binder+0x10000e24a>
10000d2c3: 49 83 c6 10                 	addq	$16, %r14
10000d2c7: bf 92 88 00 00              	movl	$34962, %edi
10000d2cc: be 20 00 00 00              	movl	$32, %esi
10000d2d1: b9 e8 88 00 00              	movl	$35048, %ecx
10000d2d6: 4c 89 f2                    	movq	%r14, %rdx
10000d2d9: e8 84 0f 00 00              	callq	3972 <dyld_stub_binder+0x10000e262>
10000d2de: 48 89 d8                    	movq	%rbx, %rax
10000d2e1: 48 83 c4 20                 	addq	$32, %rsp
10000d2e5: 5b                          	popq	%rbx
10000d2e6: 41 5c                       	popq	%r12
10000d2e8: 41 5e                       	popq	%r14
10000d2ea: 41 5f                       	popq	%r15
10000d2ec: 5d                          	popq	%rbp
10000d2ed: c3                          	retq
10000d2ee: 66 90                       	nop

000000010000d2f0 _mlx_put_image_to_window:
10000d2f0: 55                          	pushq	%rbp
10000d2f1: 48 89 e5                    	movq	%rsp, %rbp
10000d2f4: 41 57                       	pushq	%r15
10000d2f6: 41 56                       	pushq	%r14
10000d2f8: 41 55                       	pushq	%r13
10000d2fa: 41 54                       	pushq	%r12
10000d2fc: 53                          	pushq	%rbx
10000d2fd: 48 83 ec 18                 	subq	$24, %rsp
10000d301: 45 89 c6                    	movl	%r8d, %r14d
10000d304: 41 89 cf                    	movl	%ecx, %r15d
10000d307: 49 89 d4                    	movq	%rdx, %r12
10000d30a: 48 89 f3                    	movq	%rsi, %rbx
10000d30d: 83 7b 14 00                 	cmpl	$0, 20(%rbx)
10000d311: 0f 84 81 00 00 00           	je	129 <_mlx_put_image_to_window+0xa8>
10000d317: 48 8b 3b                    	movq	(%rbx), %rdi
10000d31a: 48 8b 35 e7 f7 01 00        	movq	128999(%rip), %rsi
10000d321: ff 15 11 ad 01 00           	callq	*109841(%rip)
10000d327: 4c 89 e7                    	movq	%r12, %rdi
10000d32a: 48 89 de                    	movq	%rbx, %rsi
10000d32d: e8 7e fe ff ff              	callq	-386 <_add_img_to_ctx>
10000d332: 49 89 c5                    	movq	%rax, %r13
10000d335: 41 8b 75 00                 	movl	(%r13), %esi
10000d339: bf e1 0d 00 00              	movl	$3553, %edi
10000d33e: e8 0d 0f 00 00              	callq	3853 <dyld_stub_binder+0x10000e250>
10000d343: 41 8b 0c 24                 	movl	(%r12), %ecx
10000d347: 45 8b 44 24 04              	movl	4(%r12), %r8d
10000d34c: 49 8b 44 24 08              	movq	8(%r12), %rax
10000d351: 48 89 44 24 10              	movq	%rax, 16(%rsp)
10000d356: c7 44 24 08 01 14 00 00     	movl	$5121, 8(%rsp)
10000d35e: c7 04 24 e1 80 00 00        	movl	$32993, (%rsp)
10000d365: bf e1 0d 00 00              	movl	$3553, %edi
10000d36a: 31 f6                       	xorl	%esi, %esi
10000d36c: ba 58 80 00 00              	movl	$32856, %edx
10000d371: 45 31 c9                    	xorl	%r9d, %r9d
10000d374: e8 85 0f 00 00              	callq	3973 <dyld_stub_binder+0x10000e2fe>
10000d379: 48 8b 3b                    	movq	(%rbx), %rdi
10000d37c: 48 8b 35 8d f7 01 00        	movq	128909(%rip), %rsi
10000d383: 4c 89 e2                    	movq	%r12, %rdx
10000d386: 4c 89 e9                    	movq	%r13, %rcx
10000d389: 45 89 f8                    	movl	%r15d, %r8d
10000d38c: 45 89 f1                    	movl	%r14d, %r9d
10000d38f: ff 15 a3 ac 01 00           	callq	*109731(%rip)
10000d395: ff 43 10                    	incl	16(%rbx)
10000d398: 48 83 c4 18                 	addq	$24, %rsp
10000d39c: 5b                          	popq	%rbx
10000d39d: 41 5c                       	popq	%r12
10000d39f: 41 5d                       	popq	%r13
10000d3a1: 41 5e                       	popq	%r14
10000d3a3: 41 5f                       	popq	%r15
10000d3a5: 5d                          	popq	%rbp
10000d3a6: c3                          	retq
10000d3a7: 66 0f 1f 84 00 00 00 00 00  	nopw	(%rax,%rax)

000000010000d3b0 _mlx_get_data_addr:
10000d3b0: 55                          	pushq	%rbp
10000d3b1: 48 89 e5                    	movq	%rsp, %rbp
10000d3b4: c7 06 20 00 00 00           	movl	$32, (%rsi)
10000d3ba: 8b 07                       	movl	(%rdi), %eax
10000d3bc: c1 e0 02                    	shll	$2, %eax
10000d3bf: 89 02                       	movl	%eax, (%rdx)
10000d3c1: c7 01 00 00 00 00           	movl	$0, (%rcx)
10000d3c7: 48 8b 47 08                 	movq	8(%rdi), %rax
10000d3cb: 5d                          	popq	%rbp
10000d3cc: c3                          	retq
10000d3cd: 0f 1f 00                    	nopl	(%rax)

000000010000d3d0 _mlx_get_color_value:
10000d3d0: 55                          	pushq	%rbp
10000d3d1: 48 89 e5                    	movq	%rsp, %rbp
10000d3d4: 89 f0                       	movl	%esi, %eax
10000d3d6: 5d                          	popq	%rbp
10000d3d7: c3                          	retq
10000d3d8: 0f 1f 84 00 00 00 00 00     	nopl	(%rax,%rax)

000000010000d3e0 _mlx_string_put:
10000d3e0: 55                          	pushq	%rbp
10000d3e1: 48 89 e5                    	movq	%rsp, %rbp
10000d3e4: 41 57                       	pushq	%r15
10000d3e6: 41 56                       	pushq	%r14
10000d3e8: 41 55                       	pushq	%r13
10000d3ea: 41 54                       	pushq	%r12
10000d3ec: 53                          	pushq	%rbx
10000d3ed: 48 83 ec 28                 	subq	$40, %rsp
10000d3f1: 4c 89 cb                    	movq	%r9, %rbx
10000d3f4: 44 89 45 d4                 	movl	%r8d, -44(%rbp)
10000d3f8: 89 4d d0                    	movl	%ecx, -48(%rbp)
10000d3fb: 41 89 d5                    	movl	%edx, %r13d
10000d3fe: 49 89 f4                    	movq	%rsi, %r12
10000d401: 49 89 fe                    	movq	%rdi, %r14
10000d404: 41 83 7c 24 14 00           	cmpl	$0, 20(%r12)
10000d40a: 0f 84 89 00 00 00           	je	137 <_mlx_string_put+0xb9>
10000d410: 49 8b 3c 24                 	movq	(%r12), %rdi
10000d414: 48 8b 35 ed f6 01 00        	movq	128749(%rip), %rsi
10000d41b: ff 15 17 ac 01 00           	callq	*109591(%rip)
10000d421: 49 8b 7e 30                 	movq	48(%r14), %rdi
10000d425: 4c 89 e6                    	movq	%r12, %rsi
10000d428: e8 83 fd ff ff              	callq	-637 <_add_img_to_ctx>
10000d42d: 49 89 c7                    	movq	%rax, %r15
10000d430: 8a 03                       	movb	(%rbx), %al
10000d432: 84 c0                       	testb	%al, %al
10000d434: 74 5e                       	je	94 <_mlx_string_put+0xb4>
10000d436: 48 ff c3                    	incq	%rbx
10000d439: 0f 1f 80 00 00 00 00        	nopl	(%rax)
10000d440: 0f b6 c8                    	movzbl	%al, %ecx
10000d443: 83 f9 20                    	cmpl	$32, %ecx
10000d446: 72 43                       	jb	67 <_mlx_string_put+0xab>
10000d448: 84 c0                       	testb	%al, %al
10000d44a: 78 3f                       	js	63 <_mlx_string_put+0xab>
10000d44c: 8d 04 49                    	leal	(%rcx,%rcx,2), %eax
10000d44f: 8d 04 85 80 fe ff ff        	leal	-384(,%rax,4), %eax
10000d456: 49 8b 3c 24                 	movq	(%r12), %rdi
10000d45a: 49 8b 56 30                 	movq	48(%r14), %rdx
10000d45e: 8b 4d d4                    	movl	-44(%rbp), %ecx
10000d461: 89 0c 24                    	movl	%ecx, (%rsp)
10000d464: 89 44 24 08                 	movl	%eax, 8(%rsp)
10000d468: c7 44 24 10 00 00 00 00     	movl	$0, 16(%rsp)
10000d470: 48 8b 35 a1 f6 01 00        	movq	128673(%rip), %rsi
10000d477: 4c 89 f9                    	movq	%r15, %rcx
10000d47a: 45 89 e8                    	movl	%r13d, %r8d
10000d47d: 44 8b 4d d0                 	movl	-48(%rbp), %r9d
10000d481: ff 15 b1 ab 01 00           	callq	*109489(%rip)
10000d487: 41 83 c5 0a                 	addl	$10, %r13d
10000d48b: 8a 03                       	movb	(%rbx), %al
10000d48d: 48 ff c3                    	incq	%rbx
10000d490: 84 c0                       	testb	%al, %al
10000d492: 75 ac                       	jne	-84 <_mlx_string_put+0x60>
10000d494: 41 ff 44 24 10              	incl	16(%r12)
10000d499: 31 c0                       	xorl	%eax, %eax
10000d49b: 48 83 c4 28                 	addq	$40, %rsp
10000d49f: 5b                          	popq	%rbx
10000d4a0: 41 5c                       	popq	%r12
10000d4a2: 41 5d                       	popq	%r13
10000d4a4: 41 5e                       	popq	%r14
10000d4a6: 41 5f                       	popq	%r15
10000d4a8: 5d                          	popq	%rbp
10000d4a9: c3                          	retq
10000d4aa: 66 0f 1f 44 00 00           	nopw	(%rax,%rax)

000000010000d4b0 _mlx_destroy_image:
10000d4b0: 55                          	pushq	%rbp
10000d4b1: 48 89 e5                    	movq	%rsp, %rbp
10000d4b4: 41 57                       	pushq	%r15
10000d4b6: 41 56                       	pushq	%r14
10000d4b8: 41 55                       	pushq	%r13
10000d4ba: 41 54                       	pushq	%r12
10000d4bc: 53                          	pushq	%rbx
10000d4bd: 48 83 ec 58                 	subq	$88, %rsp
10000d4c1: 49 89 f7                    	movq	%rsi, %r15
10000d4c4: 48 8b 47 10                 	movq	16(%rdi), %rax
10000d4c8: 48 89 45 b8                 	movq	%rax, -72(%rbp)
10000d4cc: 48 85 c0                    	testq	%rax, %rax
10000d4cf: 74 2d                       	je	45 <_mlx_destroy_image+0x4e>
10000d4d1: 48 8d 4d 88                 	leaq	-120(%rbp), %rcx
10000d4d5: 66 66 2e 0f 1f 84 00 00 00 00 00    	nopw	%cs:(%rax,%rax)
10000d4e0: 4c 39 f8                    	cmpq	%r15, %rax
10000d4e3: 75 08                       	jne	8 <_mlx_destroy_image+0x3d>
10000d4e5: 49 8b 47 30                 	movq	48(%r15), %rax
10000d4e9: 48 89 41 30                 	movq	%rax, 48(%rcx)
10000d4ed: 48 85 c0                    	testq	%rax, %rax
10000d4f0: 74 0c                       	je	12 <_mlx_destroy_image+0x4e>
10000d4f2: 48 89 c1                    	movq	%rax, %rcx
10000d4f5: 48 8b 40 30                 	movq	48(%rax), %rax
10000d4f9: 48 85 c0                    	testq	%rax, %rax
10000d4fc: 75 e2                       	jne	-30 <_mlx_destroy_image+0x30>
10000d4fe: 48 8b 45 b8                 	movq	-72(%rbp), %rax
10000d502: 48 89 47 10                 	movq	%rax, 16(%rdi)
10000d506: 4c 8b 6f 08                 	movq	8(%rdi), %r13
10000d50a: 4d 85 ed                    	testq	%r13, %r13
10000d50d: 0f 84 87 00 00 00           	je	135 <_mlx_destroy_image+0xea>
10000d513: 4c 8b 35 ee f5 01 00        	movq	128494(%rip), %r14
10000d51a: 4c 8d 65 c0                 	leaq	-64(%rbp), %r12
10000d51e: 66 90                       	nop
10000d520: 49 8b 45 08                 	movq	8(%r13), %rax
10000d524: 48 89 45 d0                 	movq	%rax, -48(%rbp)
10000d528: 48 85 c0                    	testq	%rax, %rax
10000d52b: 74 5c                       	je	92 <_mlx_destroy_image+0xd9>
10000d52d: 4c 89 e3                    	movq	%r12, %rbx
10000d530: 4c 39 78 08                 	cmpq	%r15, 8(%rax)
10000d534: 75 42                       	jne	66 <_mlx_destroy_image+0xc8>
10000d536: 49 8b 7d 00                 	movq	(%r13), %rdi
10000d53a: 4c 89 f6                    	movq	%r14, %rsi
10000d53d: ff 15 f5 aa 01 00           	callq	*109301(%rip)
10000d543: 48 8b 73 10                 	movq	16(%rbx), %rsi
10000d547: 48 83 c6 04                 	addq	$4, %rsi
10000d54b: bf 01 00 00 00              	movl	$1, %edi
10000d550: e8 31 0d 00 00              	callq	3377 <dyld_stub_binder+0x10000e286>
10000d555: 48 8b 73 10                 	movq	16(%rbx), %rsi
10000d559: bf 01 00 00 00              	movl	$1, %edi
10000d55e: e8 35 0d 00 00              	callq	3381 <dyld_stub_binder+0x10000e298>
10000d563: 48 8b 7b 10                 	movq	16(%rbx), %rdi
10000d567: 48 8b 47 10                 	movq	16(%rdi), %rax
10000d56b: 48 89 43 10                 	movq	%rax, 16(%rbx)
10000d56f: e8 be 0c 00 00              	callq	3262 <dyld_stub_binder+0x10000e232>
10000d574: 48 8b 43 10                 	movq	16(%rbx), %rax
10000d578: 48 85 c0                    	testq	%rax, %rax
10000d57b: 74 0c                       	je	12 <_mlx_destroy_image+0xd9>
10000d57d: 48 89 c3                    	movq	%rax, %rbx
10000d580: 48 8b 40 10                 	movq	16(%rax), %rax
10000d584: 48 85 c0                    	testq	%rax, %rax
10000d587: 75 a7                       	jne	-89 <_mlx_destroy_image+0x80>
10000d589: 48 8b 45 d0                 	movq	-48(%rbp), %rax
10000d58d: 49 89 45 08                 	movq	%rax, 8(%r13)
10000d591: 4d 8b 6d 18                 	movq	24(%r13), %r13
10000d595: 4d 85 ed                    	testq	%r13, %r13
10000d598: 75 86                       	jne	-122 <_mlx_destroy_image+0x70>
10000d59a: 49 8b 7f 08                 	movq	8(%r15), %rdi
10000d59e: e8 8f 0c 00 00              	callq	3215 <dyld_stub_binder+0x10000e232>
10000d5a3: 4c 89 ff                    	movq	%r15, %rdi
10000d5a6: e8 87 0c 00 00              	callq	3207 <dyld_stub_binder+0x10000e232>
10000d5ab: 31 c0                       	xorl	%eax, %eax
10000d5ad: 48 83 c4 58                 	addq	$88, %rsp
10000d5b1: 5b                          	popq	%rbx
10000d5b2: 41 5c                       	popq	%r12
10000d5b4: 41 5d                       	popq	%r13
10000d5b6: 41 5e                       	popq	%r14
10000d5b8: 41 5f                       	popq	%r15
10000d5ba: 5d                          	popq	%rbp
10000d5bb: c3                          	retq
10000d5bc: 90                          	nop
10000d5bd: 90                          	nop
10000d5be: 90                          	nop
10000d5bf: 90                          	nop

000000010000d5c0 _mlx_int_get_line:
10000d5c0: 55                          	pushq	%rbp
10000d5c1: 48 89 e5                    	movq	%rsp, %rbp
10000d5c4: 41 57                       	pushq	%r15
10000d5c6: 41 56                       	pushq	%r14
10000d5c8: 41 55                       	pushq	%r13
10000d5ca: 41 54                       	pushq	%r12
10000d5cc: 53                          	pushq	%rbx
10000d5cd: 50                          	pushq	%rax
10000d5ce: 89 d3                       	movl	%edx, %ebx
10000d5d0: 49 89 f7                    	movq	%rsi, %r15
10000d5d3: 49 89 fe                    	movq	%rdi, %r14
10000d5d6: 49 63 3f                    	movslq	(%r15), %rdi
10000d5d9: 29 fa                       	subl	%edi, %edx
10000d5db: 4c 01 f7                    	addq	%r14, %rdi
10000d5de: 48 8d 35 5a 38 00 00        	leaq	14426(%rip), %rsi
10000d5e5: e8 76 09 00 00              	callq	2422 <_mlx_int_str_str>
10000d5ea: 41 89 c4                    	movl	%eax, %r12d
10000d5ed: 31 c9                       	xorl	%ecx, %ecx
10000d5ef: 41 83 fc ff                 	cmpl	$-1, %r12d
10000d5f3: 74 65                       	je	101 <_mlx_int_get_line+0x9a>
10000d5f5: 49 63 07                    	movslq	(%r15), %rax
10000d5f8: 4d 63 ec                    	movslq	%r12d, %r13
10000d5fb: 49 8d 7c 05 01              	leaq	1(%r13,%rax), %rdi
10000d600: 4c 01 f7                    	addq	%r14, %rdi
10000d603: ff cb                       	decl	%ebx
10000d605: 44 29 e3                    	subl	%r12d, %ebx
10000d608: 29 c3                       	subl	%eax, %ebx
10000d60a: 48 8d 35 2e 38 00 00        	leaq	14382(%rip), %rsi
10000d611: 89 da                       	movl	%ebx, %edx
10000d613: e8 48 09 00 00              	callq	2376 <_mlx_int_str_str>
10000d618: 31 c9                       	xorl	%ecx, %ecx
10000d61a: 83 f8 ff                    	cmpl	$-1, %eax
10000d61d: 74 3b                       	je	59 <_mlx_int_get_line+0x9a>
10000d61f: 49 63 0f                    	movslq	(%r15), %rcx
10000d622: 4c 01 e9                    	addq	%r13, %rcx
10000d625: 4c 89 ea                    	movq	%r13, %rdx
10000d628: 48 ff c2                    	incq	%rdx
10000d62b: 41 c6 04 0e 00              	movb	$0, (%r14,%rcx)
10000d630: 49 63 0f                    	movslq	(%r15), %rcx
10000d633: 48 63 f0                    	movslq	%eax, %rsi
10000d636: 48 01 d6                    	addq	%rdx, %rsi
10000d639: 48 01 ce                    	addq	%rcx, %rsi
10000d63c: 41 c6 04 36 00              	movb	$0, (%r14,%rsi)
10000d641: 41 8b 0f                    	movl	(%r15), %ecx
10000d644: 41 8d 54 0d 01              	leal	1(%r13,%rcx), %edx
10000d649: 41 01 c4                    	addl	%eax, %r12d
10000d64c: 42 8d 44 21 02              	leal	2(%rcx,%r12), %eax
10000d651: 41 89 07                    	movl	%eax, (%r15)
10000d654: 48 63 ca                    	movslq	%edx, %rcx
10000d657: 4c 01 f1                    	addq	%r14, %rcx
10000d65a: 48 89 c8                    	movq	%rcx, %rax
10000d65d: 48 83 c4 08                 	addq	$8, %rsp
10000d661: 5b                          	popq	%rbx
10000d662: 41 5c                       	popq	%r12
10000d664: 41 5d                       	popq	%r13
10000d666: 41 5e                       	popq	%r14
10000d668: 41 5f                       	popq	%r15
10000d66a: 5d                          	popq	%rbp
10000d66b: c3                          	retq
10000d66c: 0f 1f 40 00                 	nopl	(%rax)

000000010000d670 _mlx_int_static_line:
10000d670: 55                          	pushq	%rbp
10000d671: 48 89 e5                    	movq	%rsp, %rbp
10000d674: 41 57                       	pushq	%r15
10000d676: 41 56                       	pushq	%r14
10000d678: 41 54                       	pushq	%r12
10000d67a: 53                          	pushq	%rbx
10000d67b: 49 bc 00 00 00 00 01 00 00 00       	movabsq	$4294967296, %r12
10000d685: 48 63 06                    	movslq	(%rsi), %rax
10000d688: 8d 48 01                    	leal	1(%rax), %ecx
10000d68b: 89 0e                       	movl	%ecx, (%rsi)
10000d68d: 4c 8b 34 c7                 	movq	(%rdi,%rax,8), %r14
10000d691: 4c 89 f7                    	movq	%r14, %rdi
10000d694: e8 0d 0d 00 00              	callq	3341 <dyld_stub_binder+0x10000e3a6>
10000d699: 48 89 c3                    	movq	%rax, %rbx
10000d69c: 3b 1d 0e 26 02 00           	cmpl	140814(%rip), %ebx
10000d6a2: 48 8b 3d ff 25 02 00        	movq	140799(%rip), %rdi
10000d6a9: 7e 39                       	jle	57 <_mlx_int_static_line+0x74>
10000d6ab: 48 85 ff                    	testq	%rdi, %rdi
10000d6ae: 74 05                       	je	5 <_mlx_int_static_line+0x45>
10000d6b0: e8 7d 0b 00 00              	callq	2941 <dyld_stub_binder+0x10000e232>
10000d6b5: 49 89 df                    	movq	%rbx, %r15
10000d6b8: 49 c1 e7 20                 	shlq	$32, %r15
10000d6bc: 4d 01 e7                    	addq	%r12, %r15
10000d6bf: 49 c1 ff 20                 	sarq	$32, %r15
10000d6c3: 4c 89 ff                    	movq	%r15, %rdi
10000d6c6: e8 69 0c 00 00              	callq	3177 <dyld_stub_binder+0x10000e334>
10000d6cb: 48 89 c7                    	movq	%rax, %rdi
10000d6ce: 48 89 3d d3 25 02 00        	movq	%rdi, 140755(%rip)
10000d6d5: 31 c0                       	xorl	%eax, %eax
10000d6d7: 48 85 ff                    	testq	%rdi, %rdi
10000d6da: 74 2f                       	je	47 <_mlx_int_static_line+0x9b>
10000d6dc: 89 1d ce 25 02 00           	movl	%ebx, 140750(%rip)
10000d6e2: eb 0e                       	jmp	14 <_mlx_int_static_line+0x82>
10000d6e4: 48 c1 e3 20                 	shlq	$32, %rbx
10000d6e8: 4c 01 e3                    	addq	%r12, %rbx
10000d6eb: 48 c1 fb 20                 	sarq	$32, %rbx
10000d6ef: 49 89 df                    	movq	%rbx, %r15
10000d6f2: 48 c7 c1 ff ff ff ff        	movq	$-1, %rcx
10000d6f9: 4c 89 f6                    	movq	%r14, %rsi
10000d6fc: 4c 89 fa                    	movq	%r15, %rdx
10000d6ff: e8 f2 0a 00 00              	callq	2802 <dyld_stub_binder+0x10000e1f6>
10000d704: 48 8b 05 9d 25 02 00        	movq	140701(%rip), %rax
10000d70b: 5b                          	popq	%rbx
10000d70c: 41 5c                       	popq	%r12
10000d70e: 41 5e                       	popq	%r14
10000d710: 41 5f                       	popq	%r15
10000d712: 5d                          	popq	%rbp
10000d713: c3                          	retq
10000d714: 66 66 66 2e 0f 1f 84 00 00 00 00 00 	nopw	%cs:(%rax,%rax)

000000010000d720 _mlx_int_get_col_name:
10000d720: 55                          	pushq	%rbp
10000d721: 48 89 e5                    	movq	%rsp, %rbp
10000d724: 31 c0                       	xorl	%eax, %eax
10000d726: 85 f6                       	testl	%esi, %esi
10000d728: 74 62                       	je	98 <_mlx_int_get_col_name+0x6c>
10000d72a: 44 8d 46 ff                 	leal	-1(%rsi), %r8d
10000d72e: 40 f6 c6 03                 	testb	$3, %sil
10000d732: 74 1f                       	je	31 <_mlx_int_get_col_name+0x33>
10000d734: 89 f2                       	movl	%esi, %edx
10000d736: 83 e2 03                    	andl	$3, %edx
10000d739: f7 da                       	negl	%edx
10000d73b: 31 c0                       	xorl	%eax, %eax
10000d73d: 0f 1f 00                    	nopl	(%rax)
10000d740: ff ce                       	decl	%esi
10000d742: c1 e0 08                    	shll	$8, %eax
10000d745: 0f be 0f                    	movsbl	(%rdi), %ecx
10000d748: 48 ff c7                    	incq	%rdi
10000d74b: 01 c8                       	addl	%ecx, %eax
10000d74d: ff c2                       	incl	%edx
10000d74f: 75 ef                       	jne	-17 <_mlx_int_get_col_name+0x20>
10000d751: eb 02                       	jmp	2 <_mlx_int_get_col_name+0x35>
10000d753: 31 c0                       	xorl	%eax, %eax
10000d755: 41 83 f8 03                 	cmpl	$3, %r8d
10000d759: 72 31                       	jb	49 <_mlx_int_get_col_name+0x6c>
10000d75b: 0f 1f 44 00 00              	nopl	(%rax,%rax)
10000d760: c1 e0 08                    	shll	$8, %eax
10000d763: 0f be 0f                    	movsbl	(%rdi), %ecx
10000d766: 01 c1                       	addl	%eax, %ecx
10000d768: c1 e1 08                    	shll	$8, %ecx
10000d76b: 0f be 47 01                 	movsbl	1(%rdi), %eax
10000d76f: 01 c8                       	addl	%ecx, %eax
10000d771: c1 e0 08                    	shll	$8, %eax
10000d774: 0f be 4f 02                 	movsbl	2(%rdi), %ecx
10000d778: 01 c1                       	addl	%eax, %ecx
10000d77a: c1 e1 08                    	shll	$8, %ecx
10000d77d: 0f be 47 03                 	movsbl	3(%rdi), %eax
10000d781: 01 c8                       	addl	%ecx, %eax
10000d783: 48 83 c7 04                 	addq	$4, %rdi
10000d787: 83 c6 fc                    	addl	$-4, %esi
10000d78a: 75 d4                       	jne	-44 <_mlx_int_get_col_name+0x40>
10000d78c: 5d                          	popq	%rbp
10000d78d: c3                          	retq
10000d78e: 66 90                       	nop

000000010000d790 _mlx_int_get_text_rgb:
10000d790: 55                          	pushq	%rbp
10000d791: 48 89 e5                    	movq	%rsp, %rbp
10000d794: 41 57                       	pushq	%r15
10000d796: 41 56                       	pushq	%r14
10000d798: 41 55                       	pushq	%r13
10000d79a: 41 54                       	pushq	%r12
10000d79c: 53                          	pushq	%rbx
10000d79d: 48 83 ec 58                 	subq	$88, %rsp
10000d7a1: 49 89 fc                    	movq	%rdi, %r12
10000d7a4: 4c 8b 3d 65 a8 01 00        	movq	108645(%rip), %r15
10000d7ab: 4d 8b 3f                    	movq	(%r15), %r15
10000d7ae: 4c 89 7d d0                 	movq	%r15, -48(%rbp)
10000d7b2: 41 0f b6 04 24              	movzbl	(%r12), %eax
10000d7b7: 83 f8 23                    	cmpl	$35, %eax
10000d7ba: 75 17                       	jne	23 <_mlx_int_get_text_rgb+0x43>
10000d7bc: 49 ff c4                    	incq	%r12
10000d7bf: 31 f6                       	xorl	%esi, %esi
10000d7c1: ba 10 00 00 00              	movl	$16, %edx
10000d7c6: 4c 89 e7                    	movq	%r12, %rdi
10000d7c9: e8 de 0b 00 00              	callq	3038 <dyld_stub_binder+0x10000e3ac>
10000d7ce: 49 89 c6                    	movq	%rax, %r14
10000d7d1: eb 7a                       	jmp	122 <_mlx_int_get_text_rgb+0xbd>
10000d7d3: 48 85 f6                    	testq	%rsi, %rsi
10000d7d6: 74 2e                       	je	46 <_mlx_int_get_text_rgb+0x76>
10000d7d8: 4c 8d 75 90                 	leaq	-112(%rbp), %r14
10000d7dc: 48 89 34 24                 	movq	%rsi, (%rsp)
10000d7e0: 4c 8d 05 5a 36 00 00        	leaq	13914(%rip), %r8
10000d7e7: be 40 00 00 00              	movl	$64, %esi
10000d7ec: ba 00 00 00 00              	movl	$0, %edx
10000d7f1: b9 40 00 00 00              	movl	$64, %ecx
10000d7f6: 31 c0                       	xorl	%eax, %eax
10000d7f8: 4c 89 f7                    	movq	%r14, %rdi
10000d7fb: 4d 89 e1                    	movq	%r12, %r9
10000d7fe: e8 e7 09 00 00              	callq	2535 <dyld_stub_binder+0x10000e1ea>
10000d803: 4d 89 f4                    	movq	%r14, %r12
10000d806: 48 8b 3d c3 f4 01 00        	movq	128195(%rip), %rdi
10000d80d: 45 31 f6                    	xorl	%r14d, %r14d
10000d810: 48 85 ff                    	testq	%rdi, %rdi
10000d813: 74 38                       	je	56 <_mlx_int_get_text_rgb+0xbd>
10000d815: 48 8d 1d c4 f4 01 00        	leaq	128196(%rip), %rbx
10000d81c: 45 31 ed                    	xorl	%r13d, %r13d
10000d81f: 90                          	nop
10000d820: 4c 89 e6                    	movq	%r12, %rsi
10000d823: e8 6c 0b 00 00              	callq	2924 <dyld_stub_binder+0x10000e394>
10000d828: 85 c0                       	testl	%eax, %eax
10000d82a: 74 11                       	je	17 <_mlx_int_get_text_rgb+0xad>
10000d82c: 49 ff c5                    	incq	%r13
10000d82f: 48 8b 3b                    	movq	(%rbx), %rdi
10000d832: 48 83 c3 10                 	addq	$16, %rbx
10000d836: 48 85 ff                    	testq	%rdi, %rdi
10000d839: 75 e5                       	jne	-27 <_mlx_int_get_text_rgb+0x90>
10000d83b: eb 10                       	jmp	16 <_mlx_int_get_text_rgb+0xbd>
10000d83d: 49 c1 e5 04                 	shlq	$4, %r13
10000d841: 48 8d 05 88 f4 01 00        	leaq	128136(%rip), %rax
10000d848: 45 8b 74 05 08              	movl	8(%r13,%rax), %r14d
10000d84d: 4c 3b 7d d0                 	cmpq	-48(%rbp), %r15
10000d851: 75 12                       	jne	18 <_mlx_int_get_text_rgb+0xd5>
10000d853: 44 89 f0                    	movl	%r14d, %eax
10000d856: 48 83 c4 58                 	addq	$88, %rsp
10000d85a: 5b                          	popq	%rbx
10000d85b: 41 5c                       	popq	%r12
10000d85d: 41 5d                       	popq	%r13
10000d85f: 41 5e                       	popq	%r14
10000d861: 41 5f                       	popq	%r15
10000d863: 5d                          	popq	%rbp
10000d864: c3                          	retq
10000d865: e8 86 09 00 00              	callq	2438 <dyld_stub_binder+0x10000e1f0>
10000d86a: 66 0f 1f 44 00 00           	nopw	(%rax,%rax)

000000010000d870 _mlx_int_xpm_set_pixel:
10000d870: 55                          	pushq	%rbp
10000d871: 48 89 e5                    	movq	%rsp, %rbp
10000d874: 49 63 c0                    	movslq	%r8d, %rax
10000d877: 89 0c 86                    	movl	%ecx, (%rsi,%rax,4)
10000d87a: 5d                          	popq	%rbp
10000d87b: c3                          	retq
10000d87c: 0f 1f 40 00                 	nopl	(%rax)

000000010000d880 _mlx_int_parse_xpm:
10000d880: 55                          	pushq	%rbp
10000d881: 48 89 e5                    	movq	%rsp, %rbp
10000d884: 41 57                       	pushq	%r15
10000d886: 41 56                       	pushq	%r14
10000d888: 41 55                       	pushq	%r13
10000d88a: 41 54                       	pushq	%r12
10000d88c: 53                          	pushq	%rbx
10000d88d: 48 83 ec 78                 	subq	$120, %rsp
10000d891: 49 89 cd                    	movq	%rcx, %r13
10000d894: 89 55 b0                    	movl	%edx, -80(%rbp)
10000d897: 48 89 f1                    	movq	%rsi, %rcx
10000d89a: 48 89 4d a8                 	movq	%rcx, -88(%rbp)
10000d89e: 49 89 fc                    	movq	%rdi, %r12
10000d8a1: c7 45 d4 00 00 00 00        	movl	$0, -44(%rbp)
10000d8a8: 45 31 ff                    	xorl	%r15d, %r15d
10000d8ab: 48 8d 75 d4                 	leaq	-44(%rbp), %rsi
10000d8af: 31 c0                       	xorl	%eax, %eax
10000d8b1: 48 89 cf                    	movq	%rcx, %rdi
10000d8b4: 41 ff d5                    	callq	*%r13
10000d8b7: 48 85 c0                    	testq	%rax, %rax
10000d8ba: 0f 84 ad 00 00 00           	je	173 <_mlx_int_parse_xpm+0xed>
10000d8c0: 48 89 c7                    	movq	%rax, %rdi
10000d8c3: e8 c8 07 00 00              	callq	1992 <_mlx_int_str_to_wordtab>
10000d8c8: 48 89 c3                    	movq	%rax, %rbx
10000d8cb: 45 31 ff                    	xorl	%r15d, %r15d
10000d8ce: 48 85 db                    	testq	%rbx, %rbx
10000d8d1: 0f 84 96 00 00 00           	je	150 <_mlx_int_parse_xpm+0xed>
10000d8d7: 48 8b 3b                    	movq	(%rbx), %rdi
10000d8da: e8 2f 09 00 00              	callq	2351 <dyld_stub_binder+0x10000e20e>
10000d8df: 41 89 c6                    	movl	%eax, %r14d
10000d8e2: 45 85 f6                    	testl	%r14d, %r14d
10000d8e5: 74 7b                       	je	123 <_mlx_int_parse_xpm+0xe2>
10000d8e7: 48 8b 7b 08                 	movq	8(%rbx), %rdi
10000d8eb: e8 1e 09 00 00              	callq	2334 <dyld_stub_binder+0x10000e20e>
10000d8f0: 41 89 c7                    	movl	%eax, %r15d
10000d8f3: 45 85 ff                    	testl	%r15d, %r15d
10000d8f6: 74 6a                       	je	106 <_mlx_int_parse_xpm+0xe2>
10000d8f8: 48 8b 7b 10                 	movq	16(%rbx), %rdi
10000d8fc: e8 0d 09 00 00              	callq	2317 <dyld_stub_binder+0x10000e20e>
10000d901: 89 45 8c                    	movl	%eax, -116(%rbp)
10000d904: 85 c0                       	testl	%eax, %eax
10000d906: 74 5a                       	je	90 <_mlx_int_parse_xpm+0xe2>
10000d908: 48 8b 7b 18                 	movq	24(%rbx), %rdi
10000d90c: e8 fd 08 00 00              	callq	2301 <dyld_stub_binder+0x10000e20e>
10000d911: 85 c0                       	testl	%eax, %eax
10000d913: 74 4d                       	je	77 <_mlx_int_parse_xpm+0xe2>
10000d915: 48 89 df                    	movq	%rbx, %rdi
10000d918: 48 89 c3                    	movq	%rax, %rbx
10000d91b: e8 12 09 00 00              	callq	2322 <dyld_stub_binder+0x10000e232>
10000d920: 48 89 d8                    	movq	%rbx, %rax
10000d923: 83 f8 02                    	cmpl	$2, %eax
10000d926: 7f 57                       	jg	87 <_mlx_int_parse_xpm+0xff>
10000d928: 44 89 bd 7c ff ff ff        	movl	%r15d, -132(%rbp)
10000d92f: 4c 89 b5 70 ff ff ff        	movq	%r14, -144(%rbp)
10000d936: b8 00 00 04 00              	movl	$262144, %eax
10000d93b: bf 00 04 00 00              	movl	$1024, %edi
10000d940: 48 0f 44 f8                 	cmoveq	%rax, %rdi
10000d944: e8 eb 09 00 00              	callq	2539 <dyld_stub_binder+0x10000e334>
10000d949: 45 31 f6                    	xorl	%r14d, %r14d
10000d94c: 48 85 c0                    	testq	%rax, %rax
10000d94f: 41 bf 00 00 00 00           	movl	$0, %r15d
10000d955: 74 16                       	je	22 <_mlx_int_parse_xpm+0xed>
10000d957: 4c 89 a5 68 ff ff ff        	movq	%r12, -152(%rbp)
10000d95e: 31 c9                       	xorl	%ecx, %ecx
10000d960: eb 51                       	jmp	81 <_mlx_int_parse_xpm+0x133>
10000d962: 48 89 df                    	movq	%rbx, %rdi
10000d965: e8 c8 08 00 00              	callq	2248 <dyld_stub_binder+0x10000e232>
10000d96a: 45 31 ff                    	xorl	%r15d, %r15d
10000d96d: 4c 89 f8                    	movq	%r15, %rax
10000d970: 48 83 c4 78                 	addq	$120, %rsp
10000d974: 5b                          	popq	%rbx
10000d975: 41 5c                       	popq	%r12
10000d977: 41 5d                       	popq	%r13
10000d979: 41 5e                       	popq	%r14
10000d97b: 41 5f                       	popq	%r15
10000d97d: 5d                          	popq	%rbp
10000d97e: c3                          	retq
10000d97f: 44 89 bd 7c ff ff ff        	movl	%r15d, -132(%rbp)
10000d986: 4c 89 b5 70 ff ff ff        	movq	%r14, -144(%rbp)
10000d98d: 48 63 7d 8c                 	movslq	-116(%rbp), %rdi
10000d991: 48 c1 e7 03                 	shlq	$3, %rdi
10000d995: e8 9a 09 00 00              	callq	2458 <dyld_stub_binder+0x10000e334>
10000d99a: 49 89 c6                    	movq	%rax, %r14
10000d99d: 31 c0                       	xorl	%eax, %eax
10000d99f: 4d 85 f6                    	testq	%r14, %r14
10000d9a2: 41 bf 00 00 00 00           	movl	$0, %r15d
10000d9a8: 74 c3                       	je	-61 <_mlx_int_parse_xpm+0xed>
10000d9aa: 4c 89 a5 68 ff ff ff        	movq	%r12, -152(%rbp)
10000d9b1: b1 01                       	movb	$1, %cl
10000d9b3: 48 89 4d b8                 	movq	%rcx, -72(%rbp)
10000d9b7: 8b 4d 8c                    	movl	-116(%rbp), %ecx
10000d9ba: 48 89 da                    	movq	%rbx, %rdx
10000d9bd: 48 89 55 90                 	movq	%rdx, -112(%rbp)
10000d9c1: 89 4d 8c                    	movl	%ecx, -116(%rbp)
10000d9c4: 48 89 45 80                 	movq	%rax, -128(%rbp)
10000d9c8: 48 63 c2                    	movslq	%edx, %rax
10000d9cb: 48 89 45 c8                 	movq	%rax, -56(%rbp)
10000d9cf: 8d 42 ff                    	leal	-1(%rdx), %eax
10000d9d2: 89 45 c4                    	movl	%eax, -60(%rbp)
10000d9d5: 89 d0                       	movl	%edx, %eax
10000d9d7: 83 e0 03                    	andl	$3, %eax
10000d9da: 89 45 b4                    	movl	%eax, -76(%rbp)
10000d9dd: f7 d8                       	negl	%eax
10000d9df: 89 45 88                    	movl	%eax, -120(%rbp)
10000d9e2: 4c 8d 3d 5e 34 00 00        	leaq	13406(%rip), %r15
10000d9e9: 89 cb                       	movl	%ecx, %ebx
10000d9eb: 0f 1f 44 00 00              	nopl	(%rax,%rax)
10000d9f0: 89 5d a4                    	movl	%ebx, -92(%rbp)
10000d9f3: 31 c0                       	xorl	%eax, %eax
10000d9f5: 48 8b 7d a8                 	movq	-88(%rbp), %rdi
10000d9f9: 48 8d 75 d4                 	leaq	-44(%rbp), %rsi
10000d9fd: 8b 55 b0                    	movl	-80(%rbp), %edx
10000da00: 41 ff d5                    	callq	*%r13
10000da03: 48 89 c3                    	movq	%rax, %rbx
10000da06: 48 85 db                    	testq	%rbx, %rbx
10000da09: 0f 84 99 02 00 00           	je	665 <_mlx_int_parse_xpm+0x428>
10000da0f: 48 8b 45 c8                 	movq	-56(%rbp), %rax
10000da13: 48 8d 3c 03                 	leaq	(%rbx,%rax), %rdi
10000da17: e8 74 06 00 00              	callq	1652 <_mlx_int_str_to_wordtab>
10000da1c: 49 89 c4                    	movq	%rax, %r12
10000da1f: 4d 85 e4                    	testq	%r12, %r12
10000da22: 0f 84 80 02 00 00           	je	640 <_mlx_int_parse_xpm+0x428>
10000da28: 4c 89 6d 98                 	movq	%r13, -104(%rbp)
10000da2c: ff 4d a4                    	decl	-92(%rbp)
10000da2f: 45 31 ed                    	xorl	%r13d, %r13d
10000da32: 66 66 66 66 66 2e 0f 1f 84 00 00 00 00 00   	nopw	%cs:(%rax,%rax)
10000da40: 4b 8b 3c ec                 	movq	(%r12,%r13,8), %rdi
10000da44: 48 85 ff                    	testq	%rdi, %rdi
10000da47: 74 0f                       	je	15 <_mlx_int_parse_xpm+0x1d8>
10000da49: 49 ff c5                    	incq	%r13
10000da4c: 4c 89 fe                    	movq	%r15, %rsi
10000da4f: e8 46 09 00 00              	callq	2374 <dyld_stub_binder+0x10000e39a>
10000da54: 85 c0                       	testl	%eax, %eax
10000da56: 75 e8                       	jne	-24 <_mlx_int_parse_xpm+0x1c0>
10000da58: 49 63 c5                    	movslq	%r13d, %rax
10000da5b: 49 8b 3c c4                 	movq	(%r12,%rax,8), %rdi
10000da5f: 48 85 ff                    	testq	%rdi, %rdi
10000da62: 0f 84 4a 02 00 00           	je	586 <_mlx_int_parse_xpm+0x432>
10000da68: 41 ff c5                    	incl	%r13d
10000da6b: 49 63 c5                    	movslq	%r13d, %rax
10000da6e: 49 8b 34 c4                 	movq	(%r12,%rax,8), %rsi
10000da72: e8 19 fd ff ff              	callq	-743 <_mlx_int_get_text_rgb>
10000da77: 31 c9                       	xorl	%ecx, %ecx
10000da79: 48 8b 55 90                 	movq	-112(%rbp), %rdx
10000da7d: f6 c2 03                    	testb	$3, %dl
10000da80: 8b 75 88                    	movl	-120(%rbp), %esi
10000da83: 74 1c                       	je	28 <_mlx_int_parse_xpm+0x221>
10000da85: 66 66 2e 0f 1f 84 00 00 00 00 00    	nopw	%cs:(%rax,%rax)
10000da90: ff ca                       	decl	%edx
10000da92: c1 e1 08                    	shll	$8, %ecx
10000da95: 0f be 3b                    	movsbl	(%rbx), %edi
10000da98: 48 ff c3                    	incq	%rbx
10000da9b: 01 f9                       	addl	%edi, %ecx
10000da9d: ff c6                       	incl	%esi
10000da9f: 75 ef                       	jne	-17 <_mlx_int_parse_xpm+0x210>
10000daa1: 83 7d c4 03                 	cmpl	$3, -60(%rbp)
10000daa5: 4c 8b 6d 98                 	movq	-104(%rbp), %r13
10000daa9: 72 31                       	jb	49 <_mlx_int_parse_xpm+0x25c>
10000daab: 0f 1f 44 00 00              	nopl	(%rax,%rax)
10000dab0: c1 e1 08                    	shll	$8, %ecx
10000dab3: 0f be 33                    	movsbl	(%rbx), %esi
10000dab6: 01 ce                       	addl	%ecx, %esi
10000dab8: c1 e6 08                    	shll	$8, %esi
10000dabb: 0f be 4b 01                 	movsbl	1(%rbx), %ecx
10000dabf: 01 f1                       	addl	%esi, %ecx
10000dac1: c1 e1 08                    	shll	$8, %ecx
10000dac4: 0f be 73 02                 	movsbl	2(%rbx), %esi
10000dac8: 01 ce                       	addl	%ecx, %esi
10000daca: c1 e6 08                    	shll	$8, %esi
10000dacd: 0f be 4b 03                 	movsbl	3(%rbx), %ecx
10000dad1: 01 f1                       	addl	%esi, %ecx
10000dad3: 48 83 c3 04                 	addq	$4, %rbx
10000dad7: 83 c2 fc                    	addl	$-4, %edx
10000dada: 75 d4                       	jne	-44 <_mlx_int_parse_xpm+0x230>
10000dadc: 48 8b 55 b8                 	movq	-72(%rbp), %rdx
10000dae0: 84 d2                       	testb	%dl, %dl
10000dae2: 74 11                       	je	17 <_mlx_int_parse_xpm+0x275>
10000dae4: 8b 5d a4                    	movl	-92(%rbp), %ebx
10000dae7: 48 63 d3                    	movslq	%ebx, %rdx
10000daea: 41 89 0c d6                 	movl	%ecx, (%r14,%rdx,8)
10000daee: 41 89 44 d6 04              	movl	%eax, 4(%r14,%rdx,8)
10000daf3: eb 0d                       	jmp	13 <_mlx_int_parse_xpm+0x282>
10000daf5: 48 63 c9                    	movslq	%ecx, %rcx
10000daf8: 48 8b 55 80                 	movq	-128(%rbp), %rdx
10000dafc: 89 04 8a                    	movl	%eax, (%rdx,%rcx,4)
10000daff: 8b 5d a4                    	movl	-92(%rbp), %ebx
10000db02: 4c 89 e7                    	movq	%r12, %rdi
10000db05: e8 28 07 00 00              	callq	1832 <dyld_stub_binder+0x10000e232>
10000db0a: 85 db                       	testl	%ebx, %ebx
10000db0c: 0f 85 de fe ff ff           	jne	-290 <_mlx_int_parse_xpm+0x170>
10000db12: 31 c0                       	xorl	%eax, %eax
10000db14: 48 8b bd 68 ff ff ff        	movq	-152(%rbp), %rdi
10000db1b: 48 8b 9d 70 ff ff ff        	movq	-144(%rbp), %rbx
10000db22: 89 de                       	movl	%ebx, %esi
10000db24: 8b 95 7c ff ff ff           	movl	-132(%rbp), %edx
10000db2a: e8 d1 f5 ff ff              	callq	-2607 <_mlx_new_image>
10000db2f: 49 89 c7                    	movq	%rax, %r15
10000db32: 4d 85 ff                    	testq	%r15, %r15
10000db35: 0f 84 6d 01 00 00           	je	365 <_mlx_int_parse_xpm+0x428>
10000db3b: 4d 8b 6f 08                 	movq	8(%r15), %r13
10000db3f: 44 8d 63 ff                 	leal	-1(%rbx), %r12d
10000db43: f7 5d b4                    	negl	-76(%rbp)
10000db46: 31 c0                       	xorl	%eax, %eax
10000db48: 48 8b 7d a8                 	movq	-88(%rbp), %rdi
10000db4c: 48 8d 75 d4                 	leaq	-44(%rbp), %rsi
10000db50: 8b 55 b0                    	movl	-80(%rbp), %edx
10000db53: ff 55 98                    	callq	*-104(%rbp)
10000db56: 48 85 c0                    	testq	%rax, %rax
10000db59: 0f 84 7d 01 00 00           	je	381 <_mlx_int_parse_xpm+0x45c>
10000db5f: ff 8d 7c ff ff ff           	decl	-132(%rbp)
10000db65: 48 8b 8d 70 ff ff ff        	movq	-144(%rbp), %rcx
10000db6c: 85 c9                       	testl	%ecx, %ecx
10000db6e: 41 b8 00 00 00 00           	movl	$0, %r8d
10000db74: 4c 8b 4d 80                 	movq	-128(%rbp), %r9
10000db78: 44 8b 55 8c                 	movl	-116(%rbp), %r10d
10000db7c: 4c 8b 5d 90                 	movq	-112(%rbp), %r11
10000db80: 0f 8e e9 00 00 00           	jle	233 <_mlx_int_parse_xpm+0x3ef>
10000db86: 66 2e 0f 1f 84 00 00 00 00 00       	nopw	%cs:(%rax,%rax)
10000db90: 4c 89 c6                    	movq	%r8, %rsi
10000db93: 48 0f af 75 c8              	imulq	-56(%rbp), %rsi
10000db98: 48 01 c6                    	addq	%rax, %rsi
10000db9b: 31 d2                       	xorl	%edx, %edx
10000db9d: 41 f6 c3 03                 	testb	$3, %r11b
10000dba1: 8b 5d b4                    	movl	-76(%rbp), %ebx
10000dba4: 44 89 df                    	movl	%r11d, %edi
10000dba7: 74 18                       	je	24 <_mlx_int_parse_xpm+0x341>
10000dba9: 0f 1f 80 00 00 00 00        	nopl	(%rax)
10000dbb0: ff cf                       	decl	%edi
10000dbb2: c1 e2 08                    	shll	$8, %edx
10000dbb5: 0f be 0e                    	movsbl	(%rsi), %ecx
10000dbb8: 48 ff c6                    	incq	%rsi
10000dbbb: 01 ca                       	addl	%ecx, %edx
10000dbbd: ff c3                       	incl	%ebx
10000dbbf: 75 ef                       	jne	-17 <_mlx_int_parse_xpm+0x330>
10000dbc1: 83 7d c4 03                 	cmpl	$3, -60(%rbp)
10000dbc5: 72 35                       	jb	53 <_mlx_int_parse_xpm+0x37c>
10000dbc7: 66 0f 1f 84 00 00 00 00 00  	nopw	(%rax,%rax)
10000dbd0: c1 e2 08                    	shll	$8, %edx
10000dbd3: 0f be 0e                    	movsbl	(%rsi), %ecx
10000dbd6: 01 d1                       	addl	%edx, %ecx
10000dbd8: c1 e1 08                    	shll	$8, %ecx
10000dbdb: 0f be 56 01                 	movsbl	1(%rsi), %edx
10000dbdf: 01 ca                       	addl	%ecx, %edx
10000dbe1: c1 e2 08                    	shll	$8, %edx
10000dbe4: 0f be 4e 02                 	movsbl	2(%rsi), %ecx
10000dbe8: 01 d1                       	addl	%edx, %ecx
10000dbea: c1 e1 08                    	shll	$8, %ecx
10000dbed: 0f be 56 03                 	movsbl	3(%rsi), %edx
10000dbf1: 01 ca                       	addl	%ecx, %edx
10000dbf3: 48 83 c6 04                 	addq	$4, %rsi
10000dbf7: 83 c7 fc                    	addl	$-4, %edi
10000dbfa: 75 d4                       	jne	-44 <_mlx_int_parse_xpm+0x350>
10000dbfc: 31 f6                       	xorl	%esi, %esi
10000dbfe: 48 8b 4d b8                 	movq	-72(%rbp), %rcx
10000dc02: 84 c9                       	testb	%cl, %cl
10000dc04: 44 89 d7                    	movl	%r10d, %edi
10000dc07: 75 1e                       	jne	30 <_mlx_int_parse_xpm+0x3a7>
10000dc09: 48 63 ca                    	movslq	%edx, %rcx
10000dc0c: 41 8b 34 89                 	movl	(%r9,%rcx,4), %esi
10000dc10: eb 3e                       	jmp	62 <_mlx_int_parse_xpm+0x3d0>
10000dc12: 66 66 66 66 66 2e 0f 1f 84 00 00 00 00 00   	nopw	%cs:(%rax,%rax)
10000dc20: 41 8b 74 fe fc              	movl	-4(%r14,%rdi,8), %esi
10000dc25: 31 ff                       	xorl	%edi, %edi
10000dc27: ff cf                       	decl	%edi
10000dc29: 48 63 df                    	movslq	%edi, %rbx
10000dc2c: 48 ff c3                    	incq	%rbx
10000dc2f: 90                          	nop
10000dc30: 48 89 df                    	movq	%rbx, %rdi
10000dc33: 85 ff                       	testl	%edi, %edi
10000dc35: 74 19                       	je	25 <_mlx_int_parse_xpm+0x3d0>
10000dc37: 48 8d 5f ff                 	leaq	-1(%rdi), %rbx
10000dc3b: 41 39 54 fe f8              	cmpl	%edx, -8(%r14,%rdi,8)
10000dc40: 75 ee                       	jne	-18 <_mlx_int_parse_xpm+0x3b0>
10000dc42: eb dc                       	jmp	-36 <_mlx_int_parse_xpm+0x3a0>
10000dc44: 66 66 66 2e 0f 1f 84 00 00 00 00 00 	nopw	%cs:(%rax,%rax)
10000dc50: 83 fe ff                    	cmpl	$-1, %esi
10000dc53: b9 00 00 00 ff              	movl	$4278190080, %ecx
10000dc58: 0f 44 f1                    	cmovel	%ecx, %esi
10000dc5b: 49 63 c8                    	movslq	%r8d, %rcx
10000dc5e: 41 89 74 8d 00              	movl	%esi, (%r13,%rcx,4)
10000dc63: 49 ff c0                    	incq	%r8
10000dc66: 44 39 e1                    	cmpl	%r12d, %ecx
10000dc69: 0f 85 21 ff ff ff           	jne	-223 <_mlx_int_parse_xpm+0x310>
10000dc6f: 49 63 07                    	movslq	(%r15), %rax
10000dc72: 4d 8d 6c 85 00              	leaq	(%r13,%rax,4), %r13
10000dc77: 83 bd 7c ff ff ff 00        	cmpl	$0, -132(%rbp)
10000dc7e: 0f 85 c2 fe ff ff           	jne	-318 <_mlx_int_parse_xpm+0x2c6>
10000dc84: 4d 85 f6                    	testq	%r14, %r14
10000dc87: 74 08                       	je	8 <_mlx_int_parse_xpm+0x411>
10000dc89: 4c 89 f7                    	movq	%r14, %rdi
10000dc8c: e8 a1 05 00 00              	callq	1441 <dyld_stub_binder+0x10000e232>
10000dc91: 48 8b 7d 80                 	movq	-128(%rbp), %rdi
10000dc95: 48 85 ff                    	testq	%rdi, %rdi
10000dc98: 0f 84 cf fc ff ff           	je	-817 <_mlx_int_parse_xpm+0xed>
10000dc9e: e8 8f 05 00 00              	callq	1423 <dyld_stub_binder+0x10000e232>
10000dca3: e9 c5 fc ff ff              	jmp	-827 <_mlx_int_parse_xpm+0xed>
10000dca8: 4d 85 f6                    	testq	%r14, %r14
10000dcab: 74 1a                       	je	26 <_mlx_int_parse_xpm+0x447>
10000dcad: 4c 89 f7                    	movq	%r14, %rdi
10000dcb0: eb 10                       	jmp	16 <_mlx_int_parse_xpm+0x442>
10000dcb2: 4d 85 f6                    	testq	%r14, %r14
10000dcb5: 74 08                       	je	8 <_mlx_int_parse_xpm+0x43f>
10000dcb7: 4c 89 f7                    	movq	%r14, %rdi
10000dcba: e8 73 05 00 00              	callq	1395 <dyld_stub_binder+0x10000e232>
10000dcbf: 4c 89 e7                    	movq	%r12, %rdi
10000dcc2: e8 6b 05 00 00              	callq	1387 <dyld_stub_binder+0x10000e232>
10000dcc7: 45 31 ff                    	xorl	%r15d, %r15d
10000dcca: 48 8b 7d 80                 	movq	-128(%rbp), %rdi
10000dcce: 48 85 ff                    	testq	%rdi, %rdi
10000dcd1: 0f 85 8e fc ff ff           	jne	-882 <_mlx_int_parse_xpm+0xe5>
10000dcd7: e9 91 fc ff ff              	jmp	-879 <_mlx_int_parse_xpm+0xed>
10000dcdc: 4d 85 f6                    	testq	%r14, %r14
10000dcdf: 74 08                       	je	8 <_mlx_int_parse_xpm+0x469>
10000dce1: 4c 89 f7                    	movq	%r14, %rdi
10000dce4: e8 49 05 00 00              	callq	1353 <dyld_stub_binder+0x10000e232>
10000dce9: 48 8b 7d 80                 	movq	-128(%rbp), %rdi
10000dced: 48 85 ff                    	testq	%rdi, %rdi
10000dcf0: 48 8b 9d 68 ff ff ff        	movq	-152(%rbp), %rbx
10000dcf7: 74 05                       	je	5 <_mlx_int_parse_xpm+0x47e>
10000dcf9: e8 34 05 00 00              	callq	1332 <dyld_stub_binder+0x10000e232>
10000dcfe: 48 89 df                    	movq	%rbx, %rdi
10000dd01: 4c 89 fe                    	movq	%r15, %rsi
10000dd04: e8 a7 f7 ff ff              	callq	-2137 <_mlx_destroy_image>
10000dd09: 45 31 ff                    	xorl	%r15d, %r15d
10000dd0c: e9 5c fc ff ff              	jmp	-932 <_mlx_int_parse_xpm+0xed>
10000dd11: 66 66 66 66 66 66 2e 0f 1f 84 00 00 00 00 00	nopw	%cs:(%rax,%rax)

000000010000dd20 _mlx_int_file_get_rid_comment:
10000dd20: 55                          	pushq	%rbp
10000dd21: 48 89 e5                    	movq	%rsp, %rbp
10000dd24: 41 57                       	pushq	%r15
10000dd26: 41 56                       	pushq	%r14
10000dd28: 41 55                       	pushq	%r13
10000dd2a: 41 54                       	pushq	%r12
10000dd2c: 53                          	pushq	%rbx
10000dd2d: 50                          	pushq	%rax
10000dd2e: 41 89 f6                    	movl	%esi, %r14d
10000dd31: 49 89 fd                    	movq	%rdi, %r13
10000dd34: 48 8d 35 0e 31 00 00        	leaq	12558(%rip), %rsi
10000dd3b: 44 89 f2                    	movl	%r14d, %edx
10000dd3e: e8 9d 02 00 00              	callq	669 <_mlx_int_str_str_cote>
10000dd43: 83 f8 ff                    	cmpl	$-1, %eax
10000dd46: 74 5b                       	je	91 <_mlx_int_file_get_rid_comment+0x83>
10000dd48: 45 8d 7e fe                 	leal	-2(%r14), %r15d
10000dd4c: 4c 8d 25 f6 30 00 00        	leaq	12534(%rip), %r12
10000dd53: 66 66 66 66 2e 0f 1f 84 00 00 00 00 00      	nopw	%cs:(%rax,%rax)
10000dd60: 48 98                       	cltq
10000dd62: 49 8d 5c 05 00              	leaq	(%r13,%rax), %rbx
10000dd67: 49 8d 7c 05 02              	leaq	2(%r13,%rax), %rdi
10000dd6c: 44 89 fa                    	movl	%r15d, %edx
10000dd6f: 29 c2                       	subl	%eax, %edx
10000dd71: 48 8d 35 d4 30 00 00        	leaq	12500(%rip), %rsi
10000dd78: e8 e3 01 00 00              	callq	483 <_mlx_int_str_str>
10000dd7d: 83 c0 04                    	addl	$4, %eax
10000dd80: 48 63 d0                    	movslq	%eax, %rdx
10000dd83: be 20 00 00 00              	movl	$32, %esi
10000dd88: 48 89 df                    	movq	%rbx, %rdi
10000dd8b: e8 b0 05 00 00              	callq	1456 <dyld_stub_binder+0x10000e340>
10000dd90: 4c 89 ef                    	movq	%r13, %rdi
10000dd93: 4c 89 e6                    	movq	%r12, %rsi
10000dd96: 44 89 f2                    	movl	%r14d, %edx
10000dd99: e8 42 02 00 00              	callq	578 <_mlx_int_str_str_cote>
10000dd9e: 83 f8 ff                    	cmpl	$-1, %eax
10000dda1: 75 bd                       	jne	-67 <_mlx_int_file_get_rid_comment+0x40>
10000dda3: 48 8d 35 a5 30 00 00        	leaq	12453(%rip), %rsi
10000ddaa: 4c 89 ef                    	movq	%r13, %rdi
10000ddad: 44 89 f2                    	movl	%r14d, %edx
10000ddb0: e8 2b 02 00 00              	callq	555 <_mlx_int_str_str_cote>
10000ddb5: 83 f8 ff                    	cmpl	$-1, %eax
10000ddb8: 74 59                       	je	89 <_mlx_int_file_get_rid_comment+0xf3>
10000ddba: 45 8d 7e fe                 	leal	-2(%r14), %r15d
10000ddbe: 4c 8d 25 8a 30 00 00        	leaq	12426(%rip), %r12
10000ddc5: 66 66 2e 0f 1f 84 00 00 00 00 00    	nopw	%cs:(%rax,%rax)
10000ddd0: 48 98                       	cltq
10000ddd2: 49 8d 5c 05 00              	leaq	(%r13,%rax), %rbx
10000ddd7: 49 8d 7c 05 02              	leaq	2(%r13,%rax), %rdi
10000dddc: 44 89 fa                    	movl	%r15d, %edx
10000dddf: 29 c2                       	subl	%eax, %edx
10000dde1: 48 8d 35 7d 0a 00 00        	leaq	2685(%rip), %rsi
10000dde8: e8 73 01 00 00              	callq	371 <_mlx_int_str_str>
10000dded: 83 c0 03                    	addl	$3, %eax
10000ddf0: 48 63 d0                    	movslq	%eax, %rdx
10000ddf3: be 20 00 00 00              	movl	$32, %esi
10000ddf8: 48 89 df                    	movq	%rbx, %rdi
10000ddfb: e8 40 05 00 00              	callq	1344 <dyld_stub_binder+0x10000e340>
10000de00: 4c 89 ef                    	movq	%r13, %rdi
10000de03: 4c 89 e6                    	movq	%r12, %rsi
10000de06: 44 89 f2                    	movl	%r14d, %edx
10000de09: e8 d2 01 00 00              	callq	466 <_mlx_int_str_str_cote>
10000de0e: 83 f8 ff                    	cmpl	$-1, %eax
10000de11: 75 bd                       	jne	-67 <_mlx_int_file_get_rid_comment+0xb0>
10000de13: 48 83 c4 08                 	addq	$8, %rsp
10000de17: 5b                          	popq	%rbx
10000de18: 41 5c                       	popq	%r12
10000de1a: 41 5d                       	popq	%r13
10000de1c: 41 5e                       	popq	%r14
10000de1e: 41 5f                       	popq	%r15
10000de20: 5d                          	popq	%rbp
10000de21: c3                          	retq
10000de22: 66 66 66 66 66 2e 0f 1f 84 00 00 00 00 00   	nopw	%cs:(%rax,%rax)

000000010000de30 _mlx_xpm_file_to_image:
10000de30: 55                          	pushq	%rbp
10000de31: 48 89 e5                    	movq	%rsp, %rbp
10000de34: 41 57                       	pushq	%r15
10000de36: 41 56                       	pushq	%r14
10000de38: 41 55                       	pushq	%r13
10000de3a: 41 54                       	pushq	%r12
10000de3c: 53                          	pushq	%rbx
10000de3d: 48 83 ec 18                 	subq	$24, %rsp
10000de41: 49 89 cf                    	movq	%rcx, %r15
10000de44: 48 89 d3                    	movq	%rdx, %rbx
10000de47: 48 89 f1                    	movq	%rsi, %rcx
10000de4a: 49 89 fc                    	movq	%rdi, %r12
10000de4d: 45 31 f6                    	xorl	%r14d, %r14d
10000de50: 31 f6                       	xorl	%esi, %esi
10000de52: 31 c0                       	xorl	%eax, %eax
10000de54: 48 89 cf                    	movq	%rcx, %rdi
10000de57: e8 fc 04 00 00              	callq	1276 <dyld_stub_binder+0x10000e358>
10000de5c: 41 89 c5                    	movl	%eax, %r13d
10000de5f: 41 83 fd ff                 	cmpl	$-1, %r13d
10000de63: 0f 84 a9 00 00 00           	je	169 <_mlx_xpm_file_to_image+0xe2>
10000de69: 48 89 5d c8                 	movq	%rbx, -56(%rbp)
10000de6d: 4c 89 7d d0                 	movq	%r15, -48(%rbp)
10000de71: 31 f6                       	xorl	%esi, %esi
10000de73: ba 02 00 00 00              	movl	$2, %edx
10000de78: 44 89 ef                    	movl	%r13d, %edi
10000de7b: e8 ae 04 00 00              	callq	1198 <dyld_stub_binder+0x10000e32e>
10000de80: 49 89 c6                    	movq	%rax, %r14
10000de83: 41 83 fe ff                 	cmpl	$-1, %r14d
10000de87: 74 76                       	je	118 <_mlx_xpm_file_to_image+0xcf>
10000de89: 49 63 de                    	movslq	%r14d, %rbx
10000de8c: 31 ff                       	xorl	%edi, %edi
10000de8e: ba 03 00 00 00              	movl	$3, %edx
10000de93: b9 02 00 00 00              	movl	$2, %ecx
10000de98: 45 31 c9                    	xorl	%r9d, %r9d
10000de9b: 48 89 de                    	movq	%rbx, %rsi
10000de9e: 45 89 e8                    	movl	%r13d, %r8d
10000dea1: e8 a0 04 00 00              	callq	1184 <dyld_stub_binder+0x10000e346>
10000dea6: 49 89 c7                    	movq	%rax, %r15
10000dea9: 49 83 ff ff                 	cmpq	$-1, %r15
10000dead: 74 50                       	je	80 <_mlx_xpm_file_to_image+0xcf>
10000deaf: 4c 89 ff                    	movq	%r15, %rdi
10000deb2: 44 89 f6                    	movl	%r14d, %esi
10000deb5: e8 66 fe ff ff              	callq	-410 <_mlx_int_file_get_rid_comment>
10000deba: 48 8d 0d ff f6 ff ff        	leaq	-2305(%rip), %rcx
10000dec1: 4c 89 e7                    	movq	%r12, %rdi
10000dec4: 4c 89 fe                    	movq	%r15, %rsi
10000dec7: 44 89 f2                    	movl	%r14d, %edx
10000deca: e8 b1 f9 ff ff              	callq	-1615 <_mlx_int_parse_xpm>
10000decf: 49 89 c6                    	movq	%rax, %r14
10000ded2: 4d 85 f6                    	testq	%r14, %r14
10000ded5: 74 13                       	je	19 <_mlx_xpm_file_to_image+0xba>
10000ded7: 41 8b 06                    	movl	(%r14), %eax
10000deda: 48 8b 4d c8                 	movq	-56(%rbp), %rcx
10000dede: 89 01                       	movl	%eax, (%rcx)
10000dee0: 41 8b 46 04                 	movl	4(%r14), %eax
10000dee4: 48 8b 4d d0                 	movq	-48(%rbp), %rcx
10000dee8: 89 01                       	movl	%eax, (%rcx)
10000deea: 4c 89 ff                    	movq	%r15, %rdi
10000deed: 48 89 de                    	movq	%rbx, %rsi
10000def0: e8 57 04 00 00              	callq	1111 <dyld_stub_binder+0x10000e34c>
10000def5: 44 89 ef                    	movl	%r13d, %edi
10000def8: e8 17 03 00 00              	callq	791 <dyld_stub_binder+0x10000e214>
10000defd: eb 13                       	jmp	19 <_mlx_xpm_file_to_image+0xe2>
10000deff: 45 31 f6                    	xorl	%r14d, %r14d
10000df02: 45 85 ed                    	testl	%r13d, %r13d
10000df05: 78 0b                       	js	11 <_mlx_xpm_file_to_image+0xe2>
10000df07: 44 89 ef                    	movl	%r13d, %edi
10000df0a: e8 05 03 00 00              	callq	773 <dyld_stub_binder+0x10000e214>
10000df0f: 45 31 f6                    	xorl	%r14d, %r14d
10000df12: 4c 89 f0                    	movq	%r14, %rax
10000df15: 48 83 c4 18                 	addq	$24, %rsp
10000df19: 5b                          	popq	%rbx
10000df1a: 41 5c                       	popq	%r12
10000df1c: 41 5d                       	popq	%r13
10000df1e: 41 5e                       	popq	%r14
10000df20: 41 5f                       	popq	%r15
10000df22: 5d                          	popq	%rbp
10000df23: c3                          	retq
10000df24: 66 66 66 2e 0f 1f 84 00 00 00 00 00 	nopw	%cs:(%rax,%rax)

000000010000df30 _mlx_xpm_to_image:
10000df30: 55                          	pushq	%rbp
10000df31: 48 89 e5                    	movq	%rsp, %rbp
10000df34: 41 56                       	pushq	%r14
10000df36: 53                          	pushq	%rbx
10000df37: 49 89 ce                    	movq	%rcx, %r14
10000df3a: 48 89 d3                    	movq	%rdx, %rbx
10000df3d: 48 8d 0d 2c f7 ff ff        	leaq	-2260(%rip), %rcx
10000df44: 31 d2                       	xorl	%edx, %edx
10000df46: e8 35 f9 ff ff              	callq	-1739 <_mlx_int_parse_xpm>
10000df4b: 48 85 c0                    	testq	%rax, %rax
10000df4e: 74 0a                       	je	10 <_mlx_xpm_to_image+0x2a>
10000df50: 8b 08                       	movl	(%rax), %ecx
10000df52: 89 0b                       	movl	%ecx, (%rbx)
10000df54: 8b 48 04                    	movl	4(%rax), %ecx
10000df57: 41 89 0e                    	movl	%ecx, (%r14)
10000df5a: 5b                          	popq	%rbx
10000df5b: 41 5e                       	popq	%r14
10000df5d: 5d                          	popq	%rbp
10000df5e: c3                          	retq
10000df5f: 90                          	nop

000000010000df60 _mlx_int_str_str:
10000df60: 55                          	pushq	%rbp
10000df61: 48 89 e5                    	movq	%rsp, %rbp
10000df64: 41 57                       	pushq	%r15
10000df66: 41 56                       	pushq	%r14
10000df68: 53                          	pushq	%rbx
10000df69: 50                          	pushq	%rax
10000df6a: 41 89 d7                    	movl	%edx, %r15d
10000df6d: 49 89 f6                    	movq	%rsi, %r14
10000df70: 48 89 fb                    	movq	%rdi, %rbx
10000df73: 4c 89 f7                    	movq	%r14, %rdi
10000df76: e8 2b 04 00 00              	callq	1067 <dyld_stub_binder+0x10000e3a6>
10000df7b: 48 89 c1                    	movq	%rax, %rcx
10000df7e: b8 ff ff ff ff              	movl	$4294967295, %eax
10000df83: 44 39 f9                    	cmpl	%r15d, %ecx
10000df86: 7f 49                       	jg	73 <_mlx_int_str_str+0x71>
10000df88: 4c 63 c9                    	movslq	%ecx, %r9
10000df8b: 41 80 7c 19 ff 00           	cmpb	$0, -1(%r9,%rbx)
10000df91: 74 3e                       	je	62 <_mlx_int_str_str+0x71>
10000df93: 45 8a 06                    	movb	(%r14), %r8b
10000df96: 31 d2                       	xorl	%edx, %edx
10000df98: 31 ff                       	xorl	%edi, %edi
10000df9a: 44 88 c1                    	movb	%r8b, %cl
10000df9d: 0f 1f 00                    	nopl	(%rax)
10000dfa0: 0f b6 34 3b                 	movzbl	(%rbx,%rdi), %esi
10000dfa4: 0f b6 c9                    	movzbl	%cl, %ecx
10000dfa7: 39 f1                       	cmpl	%esi, %ecx
10000dfa9: 75 15                       	jne	21 <_mlx_int_str_str+0x60>
10000dfab: 41 8a 4c 3e 01              	movb	1(%r14,%rdi), %cl
10000dfb0: 48 ff c7                    	incq	%rdi
10000dfb3: 84 c9                       	testb	%cl, %cl
10000dfb5: 75 e9                       	jne	-23 <_mlx_int_str_str+0x40>
10000dfb7: eb 16                       	jmp	22 <_mlx_int_str_str+0x6f>
10000dfb9: 0f 1f 80 00 00 00 00        	nopl	(%rax)
10000dfc0: ff c2                       	incl	%edx
10000dfc2: 42 80 3c 0b 00              	cmpb	$0, (%rbx,%r9)
10000dfc7: 48 8d 5b 01                 	leaq	1(%rbx), %rbx
10000dfcb: 75 cb                       	jne	-53 <_mlx_int_str_str+0x38>
10000dfcd: eb 02                       	jmp	2 <_mlx_int_str_str+0x71>
10000dfcf: 89 d0                       	movl	%edx, %eax
10000dfd1: 48 83 c4 08                 	addq	$8, %rsp
10000dfd5: 5b                          	popq	%rbx
10000dfd6: 41 5e                       	popq	%r14
10000dfd8: 41 5f                       	popq	%r15
10000dfda: 5d                          	popq	%rbp
10000dfdb: c3                          	retq
10000dfdc: 0f 1f 40 00                 	nopl	(%rax)

000000010000dfe0 _mlx_int_str_str_cote:
10000dfe0: 55                          	pushq	%rbp
10000dfe1: 48 89 e5                    	movq	%rsp, %rbp
10000dfe4: 41 57                       	pushq	%r15
10000dfe6: 41 56                       	pushq	%r14
10000dfe8: 53                          	pushq	%rbx
10000dfe9: 50                          	pushq	%rax
10000dfea: 41 89 d7                    	movl	%edx, %r15d
10000dfed: 49 89 f6                    	movq	%rsi, %r14
10000dff0: 48 89 fb                    	movq	%rdi, %rbx
10000dff3: 4c 89 f7                    	movq	%r14, %rdi
10000dff6: e8 ab 03 00 00              	callq	939 <dyld_stub_binder+0x10000e3a6>
10000dffb: 48 89 c1                    	movq	%rax, %rcx
10000dffe: b8 ff ff ff ff              	movl	$4294967295, %eax
10000e003: 44 39 f9                    	cmpl	%r15d, %ecx
10000e006: 7f 7b                       	jg	123 <_mlx_int_str_str_cote+0xa3>
10000e008: 4c 63 c1                    	movslq	%ecx, %r8
10000e00b: 41 80 7c 18 ff 00           	cmpb	$0, -1(%r8,%rbx)
10000e011: 74 70                       	je	112 <_mlx_int_str_str_cote+0xa3>
10000e013: 31 d2                       	xorl	%edx, %edx
10000e015: 45 31 c9                    	xorl	%r9d, %r9d
10000e018: 0f 1f 84 00 00 00 00 00     	nopl	(%rax,%rax)
10000e020: 89 d1                       	movl	%edx, %ecx
10000e022: 0f b6 3b                    	movzbl	(%rbx), %edi
10000e025: ba 01 00 00 00              	movl	$1, %edx
10000e02a: 29 ca                       	subl	%ecx, %edx
10000e02c: 83 ff 22                    	cmpl	$34, %edi
10000e02f: 0f 45 d1                    	cmovnel	%ecx, %edx
10000e032: 85 d2                       	testl	%edx, %edx
10000e034: 75 3a                       	jne	58 <_mlx_int_str_str_cote+0x90>
10000e036: 40 0f b6 cf                 	movzbl	%dil, %ecx
10000e03a: 41 0f b6 3e                 	movzbl	(%r14), %edi
10000e03e: 39 cf                       	cmpl	%ecx, %edi
10000e040: bf 01 00 00 00              	movl	$1, %edi
10000e045: 75 29                       	jne	41 <_mlx_int_str_str_cote+0x90>
10000e047: 66 0f 1f 84 00 00 00 00 00  	nopw	(%rax,%rax)
10000e050: 41 8a 0c 3e                 	movb	(%r14,%rdi), %cl
10000e054: 84 c9                       	testb	%cl, %cl
10000e056: 74 28                       	je	40 <_mlx_int_str_str_cote+0xa0>
10000e058: 0f b6 34 3b                 	movzbl	(%rbx,%rdi), %esi
10000e05c: 0f b6 c9                    	movzbl	%cl, %ecx
10000e05f: 48 ff c7                    	incq	%rdi
10000e062: 39 f1                       	cmpl	%esi, %ecx
10000e064: 74 ea                       	je	-22 <_mlx_int_str_str_cote+0x70>
10000e066: 66 2e 0f 1f 84 00 00 00 00 00       	nopw	%cs:(%rax,%rax)
10000e070: 41 ff c1                    	incl	%r9d
10000e073: 42 80 3c 03 00              	cmpb	$0, (%rbx,%r8)
10000e078: 48 8d 5b 01                 	leaq	1(%rbx), %rbx
10000e07c: 75 a2                       	jne	-94 <_mlx_int_str_str_cote+0x40>
10000e07e: eb 03                       	jmp	3 <_mlx_int_str_str_cote+0xa3>
10000e080: 44 89 c8                    	movl	%r9d, %eax
10000e083: 48 83 c4 08                 	addq	$8, %rsp
10000e087: 5b                          	popq	%rbx
10000e088: 41 5e                       	popq	%r14
10000e08a: 41 5f                       	popq	%r15
10000e08c: 5d                          	popq	%rbp
10000e08d: c3                          	retq
10000e08e: 66 90                       	nop

000000010000e090 _mlx_int_str_to_wordtab:
10000e090: 55                          	pushq	%rbp
10000e091: 48 89 e5                    	movq	%rsp, %rbp
10000e094: 41 56                       	pushq	%r14
10000e096: 53                          	pushq	%rbx
10000e097: 48 89 fb                    	movq	%rdi, %rbx
10000e09a: e8 07 03 00 00              	callq	775 <dyld_stub_binder+0x10000e3a6>
10000e09f: 49 89 c6                    	movq	%rax, %r14
10000e0a2: 31 c0                       	xorl	%eax, %eax
10000e0a4: 45 85 f6                    	testl	%r14d, %r14d
10000e0a7: 7e 6f                       	jle	111 <_mlx_int_str_to_wordtab+0x88>
10000e0a9: 48 b9 01 02 00 00 01 00 00 00       	movabsq	$4294967809, %rcx
10000e0b3: 31 d2                       	xorl	%edx, %edx
10000e0b5: 66 66 2e 0f 1f 84 00 00 00 00 00    	nopw	%cs:(%rax,%rax)
10000e0c0: 48 63 d2                    	movslq	%edx, %rdx
10000e0c3: eb 0e                       	jmp	14 <_mlx_int_str_to_wordtab+0x43>
10000e0c5: 66 66 2e 0f 1f 84 00 00 00 00 00    	nopw	%cs:(%rax,%rax)
10000e0d0: 48 ff c2                    	incq	%rdx
10000e0d3: 0f b6 34 13                 	movzbl	(%rbx,%rdx), %esi
10000e0d7: 83 fe 09                    	cmpl	$9, %esi
10000e0da: 74 f4                       	je	-12 <_mlx_int_str_to_wordtab+0x40>
10000e0dc: 40 84 f6                    	testb	%sil, %sil
10000e0df: 74 0b                       	je	11 <_mlx_int_str_to_wordtab+0x5c>
10000e0e1: 40 0f b6 f6                 	movzbl	%sil, %esi
10000e0e5: 83 fe 20                    	cmpl	$32, %esi
10000e0e8: 74 e6                       	je	-26 <_mlx_int_str_to_wordtab+0x40>
10000e0ea: ff c0                       	incl	%eax
10000e0ec: 48 63 d2                    	movslq	%edx, %rdx
10000e0ef: eb 12                       	jmp	18 <_mlx_int_str_to_wordtab+0x73>
10000e0f1: 66 66 66 66 66 66 2e 0f 1f 84 00 00 00 00 00	nopw	%cs:(%rax,%rax)
10000e100: 48 ff c2                    	incq	%rdx
10000e103: 0f b6 34 13                 	movzbl	(%rbx,%rdx), %esi
10000e107: 48 83 fe 20                 	cmpq	$32, %rsi
10000e10b: 77 f3                       	ja	-13 <_mlx_int_str_to_wordtab+0x70>
10000e10d: 48 0f a3 f1                 	btq	%rsi, %rcx
10000e111: 73 ed                       	jae	-19 <_mlx_int_str_to_wordtab+0x70>
10000e113: 44 39 f2                    	cmpl	%r14d, %edx
10000e116: 7c a8                       	jl	-88 <_mlx_int_str_to_wordtab+0x30>
10000e118: ff c0                       	incl	%eax
10000e11a: 48 63 f8                    	movslq	%eax, %rdi
10000e11d: 48 c1 e7 03                 	shlq	$3, %rdi
10000e121: e8 0e 02 00 00              	callq	526 <dyld_stub_binder+0x10000e334>
10000e126: 31 c9                       	xorl	%ecx, %ecx
10000e128: 48 85 c0                    	testq	%rax, %rax
10000e12b: 74 79                       	je	121 <_mlx_int_str_to_wordtab+0x116>
10000e12d: 45 85 f6                    	testl	%r14d, %r14d
10000e130: 7e 66                       	jle	102 <_mlx_int_str_to_wordtab+0x108>
10000e132: 48 ba 01 02 00 00 01 00 00 00       	movabsq	$4294967809, %rdx
10000e13c: 31 f6                       	xorl	%esi, %esi
10000e13e: 66 90                       	nop
10000e140: 48 63 f6                    	movslq	%esi, %rsi
10000e143: eb 12                       	jmp	18 <_mlx_int_str_to_wordtab+0xc7>
10000e145: 66 66 2e 0f 1f 84 00 00 00 00 00    	nopw	%cs:(%rax,%rax)
10000e150: c6 04 33 00                 	movb	$0, (%rbx,%rsi)
10000e154: 48 ff c6                    	incq	%rsi
10000e157: 0f b6 3c 33                 	movzbl	(%rbx,%rsi), %edi
10000e15b: 83 ff 09                    	cmpl	$9, %edi
10000e15e: 74 f0                       	je	-16 <_mlx_int_str_to_wordtab+0xc0>
10000e160: 40 84 ff                    	testb	%dil, %dil
10000e163: 74 16                       	je	22 <_mlx_int_str_to_wordtab+0xeb>
10000e165: 40 0f b6 ff                 	movzbl	%dil, %edi
10000e169: 83 ff 20                    	cmpl	$32, %edi
10000e16c: 74 e2                       	je	-30 <_mlx_int_str_to_wordtab+0xc0>
10000e16e: 48 8d 3c 33                 	leaq	(%rbx,%rsi), %rdi
10000e172: 48 63 c9                    	movslq	%ecx, %rcx
10000e175: 48 89 3c c8                 	movq	%rdi, (%rax,%rcx,8)
10000e179: ff c1                       	incl	%ecx
10000e17b: 48 63 f6                    	movslq	%esi, %rsi
10000e17e: eb 03                       	jmp	3 <_mlx_int_str_to_wordtab+0xf3>
10000e180: 48 ff c6                    	incq	%rsi
10000e183: 0f b6 3c 33                 	movzbl	(%rbx,%rsi), %edi
10000e187: 48 83 ff 20                 	cmpq	$32, %rdi
10000e18b: 77 f3                       	ja	-13 <_mlx_int_str_to_wordtab+0xf0>
10000e18d: 48 0f a3 fa                 	btq	%rdi, %rdx
10000e191: 73 ed                       	jae	-19 <_mlx_int_str_to_wordtab+0xf0>
10000e193: 44 39 f6                    	cmpl	%r14d, %esi
10000e196: 7c a8                       	jl	-88 <_mlx_int_str_to_wordtab+0xb0>
10000e198: 48 63 c9                    	movslq	%ecx, %rcx
10000e19b: 48 c7 04 c8 00 00 00 00     	movq	$0, (%rax,%rcx,8)
10000e1a3: 48 89 c1                    	movq	%rax, %rcx
10000e1a6: 48 89 c8                    	movq	%rcx, %rax
10000e1a9: 5b                          	popq	%rbx
10000e1aa: 41 5e                       	popq	%r14
10000e1ac: 5d                          	popq	%rbp
10000e1ad: c3                          	retq

Disassembly of section __TEXT,__stubs:

000000010000e1ae __stubs:
10000e1ae: ff 25 4c de 01 00           	jmpq	*122444(%rip)
10000e1b4: ff 25 4e de 01 00           	jmpq	*122446(%rip)
10000e1ba: ff 25 50 de 01 00           	jmpq	*122448(%rip)
10000e1c0: ff 25 52 de 01 00           	jmpq	*122450(%rip)
10000e1c6: ff 25 54 de 01 00           	jmpq	*122452(%rip)
10000e1cc: ff 25 56 de 01 00           	jmpq	*122454(%rip)
10000e1d2: ff 25 58 de 01 00           	jmpq	*122456(%rip)
10000e1d8: ff 25 5a de 01 00           	jmpq	*122458(%rip)
10000e1de: ff 25 5c de 01 00           	jmpq	*122460(%rip)
10000e1e4: ff 25 5e de 01 00           	jmpq	*122462(%rip)
10000e1ea: ff 25 60 de 01 00           	jmpq	*122464(%rip)
10000e1f0: ff 25 62 de 01 00           	jmpq	*122466(%rip)
10000e1f6: ff 25 64 de 01 00           	jmpq	*122468(%rip)
10000e1fc: ff 25 66 de 01 00           	jmpq	*122470(%rip)
10000e202: ff 25 68 de 01 00           	jmpq	*122472(%rip)
10000e208: ff 25 6a de 01 00           	jmpq	*122474(%rip)
10000e20e: ff 25 6c de 01 00           	jmpq	*122476(%rip)
10000e214: ff 25 6e de 01 00           	jmpq	*122478(%rip)
10000e21a: ff 25 70 de 01 00           	jmpq	*122480(%rip)
10000e220: ff 25 72 de 01 00           	jmpq	*122482(%rip)
10000e226: ff 25 74 de 01 00           	jmpq	*122484(%rip)
10000e22c: ff 25 76 de 01 00           	jmpq	*122486(%rip)
10000e232: ff 25 78 de 01 00           	jmpq	*122488(%rip)
10000e238: ff 25 7a de 01 00           	jmpq	*122490(%rip)
10000e23e: ff 25 7c de 01 00           	jmpq	*122492(%rip)
10000e244: ff 25 7e de 01 00           	jmpq	*122494(%rip)
10000e24a: ff 25 80 de 01 00           	jmpq	*122496(%rip)
10000e250: ff 25 82 de 01 00           	jmpq	*122498(%rip)
10000e256: ff 25 84 de 01 00           	jmpq	*122500(%rip)
10000e25c: ff 25 86 de 01 00           	jmpq	*122502(%rip)
10000e262: ff 25 88 de 01 00           	jmpq	*122504(%rip)
10000e268: ff 25 8a de 01 00           	jmpq	*122506(%rip)
10000e26e: ff 25 8c de 01 00           	jmpq	*122508(%rip)
10000e274: ff 25 8e de 01 00           	jmpq	*122510(%rip)
10000e27a: ff 25 90 de 01 00           	jmpq	*122512(%rip)
10000e280: ff 25 92 de 01 00           	jmpq	*122514(%rip)
10000e286: ff 25 94 de 01 00           	jmpq	*122516(%rip)
10000e28c: ff 25 96 de 01 00           	jmpq	*122518(%rip)
10000e292: ff 25 98 de 01 00           	jmpq	*122520(%rip)
10000e298: ff 25 9a de 01 00           	jmpq	*122522(%rip)
10000e29e: ff 25 9c de 01 00           	jmpq	*122524(%rip)
10000e2a4: ff 25 9e de 01 00           	jmpq	*122526(%rip)
10000e2aa: ff 25 a0 de 01 00           	jmpq	*122528(%rip)
10000e2b0: ff 25 a2 de 01 00           	jmpq	*122530(%rip)
10000e2b6: ff 25 a4 de 01 00           	jmpq	*122532(%rip)
10000e2bc: ff 25 a6 de 01 00           	jmpq	*122534(%rip)
10000e2c2: ff 25 a8 de 01 00           	jmpq	*122536(%rip)
10000e2c8: ff 25 aa de 01 00           	jmpq	*122538(%rip)
10000e2ce: ff 25 ac de 01 00           	jmpq	*122540(%rip)
10000e2d4: ff 25 ae de 01 00           	jmpq	*122542(%rip)
10000e2da: ff 25 b0 de 01 00           	jmpq	*122544(%rip)
10000e2e0: ff 25 b2 de 01 00           	jmpq	*122546(%rip)
10000e2e6: ff 25 b4 de 01 00           	jmpq	*122548(%rip)
10000e2ec: ff 25 b6 de 01 00           	jmpq	*122550(%rip)
10000e2f2: ff 25 b8 de 01 00           	jmpq	*122552(%rip)
10000e2f8: ff 25 ba de 01 00           	jmpq	*122554(%rip)
10000e2fe: ff 25 bc de 01 00           	jmpq	*122556(%rip)
10000e304: ff 25 be de 01 00           	jmpq	*122558(%rip)
10000e30a: ff 25 c0 de 01 00           	jmpq	*122560(%rip)
10000e310: ff 25 c2 de 01 00           	jmpq	*122562(%rip)
10000e316: ff 25 c4 de 01 00           	jmpq	*122564(%rip)
10000e31c: ff 25 c6 de 01 00           	jmpq	*122566(%rip)
10000e322: ff 25 c8 de 01 00           	jmpq	*122568(%rip)
10000e328: ff 25 ca de 01 00           	jmpq	*122570(%rip)
10000e32e: ff 25 cc de 01 00           	jmpq	*122572(%rip)
10000e334: ff 25 ce de 01 00           	jmpq	*122574(%rip)
10000e33a: ff 25 d0 de 01 00           	jmpq	*122576(%rip)
10000e340: ff 25 d2 de 01 00           	jmpq	*122578(%rip)
10000e346: ff 25 d4 de 01 00           	jmpq	*122580(%rip)
10000e34c: ff 25 d6 de 01 00           	jmpq	*122582(%rip)
10000e352: ff 25 d8 de 01 00           	jmpq	*122584(%rip)
10000e358: ff 25 da de 01 00           	jmpq	*122586(%rip)
10000e35e: ff 25 dc de 01 00           	jmpq	*122588(%rip)
10000e364: ff 25 de de 01 00           	jmpq	*122590(%rip)
10000e36a: ff 25 e0 de 01 00           	jmpq	*122592(%rip)
10000e370: ff 25 e2 de 01 00           	jmpq	*122594(%rip)
10000e376: ff 25 e4 de 01 00           	jmpq	*122596(%rip)
10000e37c: ff 25 e6 de 01 00           	jmpq	*122598(%rip)
10000e382: ff 25 e8 de 01 00           	jmpq	*122600(%rip)
10000e388: ff 25 ea de 01 00           	jmpq	*122602(%rip)
10000e38e: ff 25 ec de 01 00           	jmpq	*122604(%rip)
10000e394: ff 25 ee de 01 00           	jmpq	*122606(%rip)
10000e39a: ff 25 f0 de 01 00           	jmpq	*122608(%rip)
10000e3a0: ff 25 f2 de 01 00           	jmpq	*122610(%rip)
10000e3a6: ff 25 f4 de 01 00           	jmpq	*122612(%rip)
10000e3ac: ff 25 f6 de 01 00           	jmpq	*122614(%rip)
10000e3b2: ff 25 f8 de 01 00           	jmpq	*122616(%rip)
10000e3b8: ff 25 fa de 01 00           	jmpq	*122618(%rip)
10000e3be: ff 25 fc de 01 00           	jmpq	*122620(%rip)
10000e3c4: ff 25 fe de 01 00           	jmpq	*122622(%rip)

Disassembly of section __TEXT,__stub_helper:

000000010000e3cc __stub_helper:
10000e3cc: 4c 8d 1d cd e8 01 00        	leaq	125133(%rip), %r11
10000e3d3: 41 53                       	pushq	%r11
10000e3d5: ff 25 65 9c 01 00           	jmpq	*105573(%rip)
10000e3db: 90                          	nop
10000e3dc: 68 d1 01 00 00              	pushq	$465
10000e3e1: e9 e6 ff ff ff              	jmp	-26 <__stub_helper>
10000e3e6: 68 e9 01 00 00              	pushq	$489
10000e3eb: e9 dc ff ff ff              	jmp	-36 <__stub_helper>
10000e3f0: 68 00 02 00 00              	pushq	$512
10000e3f5: e9 d2 ff ff ff              	jmp	-46 <__stub_helper>
10000e3fa: 68 15 02 00 00              	pushq	$533
10000e3ff: e9 c8 ff ff ff              	jmp	-56 <__stub_helper>
10000e404: 68 2b 02 00 00              	pushq	$555
10000e409: e9 be ff ff ff              	jmp	-66 <__stub_helper>
10000e40e: 68 43 02 00 00              	pushq	$579
10000e413: e9 b4 ff ff ff              	jmp	-76 <__stub_helper>
10000e418: 68 57 02 00 00              	pushq	$599
10000e41d: e9 aa ff ff ff              	jmp	-86 <__stub_helper>
10000e422: 68 6c 02 00 00              	pushq	$620
10000e427: e9 a0 ff ff ff              	jmp	-96 <__stub_helper>
10000e42c: 68 7c 02 00 00              	pushq	$636
10000e431: e9 96 ff ff ff              	jmp	-106 <__stub_helper>
10000e436: 68 91 02 00 00              	pushq	$657
10000e43b: e9 8c ff ff ff              	jmp	-116 <__stub_helper>
10000e440: 68 a9 02 00 00              	pushq	$681
10000e445: e9 82 ff ff ff              	jmp	-126 <__stub_helper>
10000e44a: 68 c1 02 00 00              	pushq	$705
10000e44f: e9 78 ff ff ff              	jmp	-136 <__stub_helper>
10000e454: 68 d8 02 00 00              	pushq	$728
10000e459: e9 6e ff ff ff              	jmp	-146 <__stub_helper>
10000e45e: 68 f0 02 00 00              	pushq	$752
10000e463: e9 64 ff ff ff              	jmp	-156 <__stub_helper>
10000e468: 68 08 03 00 00              	pushq	$776
10000e46d: e9 5a ff ff ff              	jmp	-166 <__stub_helper>
10000e472: 68 1f 03 00 00              	pushq	$799
10000e477: e9 50 ff ff ff              	jmp	-176 <__stub_helper>
10000e47c: 68 38 03 00 00              	pushq	$824
10000e481: e9 46 ff ff ff              	jmp	-186 <__stub_helper>
10000e486: 68 4a 03 00 00              	pushq	$842
10000e48b: e9 3c ff ff ff              	jmp	-196 <__stub_helper>
10000e490: 68 6d 03 00 00              	pushq	$877
10000e495: e9 32 ff ff ff              	jmp	-206 <__stub_helper>
10000e49a: 68 82 03 00 00              	pushq	$898
10000e49f: e9 28 ff ff ff              	jmp	-216 <__stub_helper>
10000e4a4: 68 93 03 00 00              	pushq	$915
10000e4a9: e9 1e ff ff ff              	jmp	-226 <__stub_helper>
10000e4ae: 68 b5 03 00 00              	pushq	$949
10000e4b3: e9 14 ff ff ff              	jmp	-236 <__stub_helper>
10000e4b8: 68 c5 03 00 00              	pushq	$965
10000e4bd: e9 0a ff ff ff              	jmp	-246 <__stub_helper>
10000e4c2: 68 da 03 00 00              	pushq	$986
10000e4c7: e9 00 ff ff ff              	jmp	-256 <__stub_helper>
10000e4cc: 68 f0 03 00 00              	pushq	$1008
10000e4d1: e9 f6 fe ff ff              	jmp	-266 <__stub_helper>
10000e4d6: 68 0c 04 00 00              	pushq	$1036
10000e4db: e9 ec fe ff ff              	jmp	-276 <__stub_helper>
10000e4e0: 68 28 04 00 00              	pushq	$1064
10000e4e5: e9 e2 fe ff ff              	jmp	-286 <__stub_helper>
10000e4ea: 68 3f 04 00 00              	pushq	$1087
10000e4ef: e9 d8 fe ff ff              	jmp	-296 <__stub_helper>
10000e4f4: 68 5a 04 00 00              	pushq	$1114
10000e4f9: e9 ce fe ff ff              	jmp	-306 <__stub_helper>
10000e4fe: 68 70 04 00 00              	pushq	$1136
10000e503: e9 c4 fe ff ff              	jmp	-316 <__stub_helper>
10000e508: 68 8d 04 00 00              	pushq	$1165
10000e50d: e9 ba fe ff ff              	jmp	-326 <__stub_helper>
10000e512: 68 a3 04 00 00              	pushq	$1187
10000e517: e9 b0 fe ff ff              	jmp	-336 <__stub_helper>
10000e51c: 68 ba 04 00 00              	pushq	$1210
10000e521: e9 a6 fe ff ff              	jmp	-346 <__stub_helper>
10000e526: 68 cf 04 00 00              	pushq	$1231
10000e52b: e9 9c fe ff ff              	jmp	-356 <__stub_helper>
10000e530: 68 e7 04 00 00              	pushq	$1255
10000e535: e9 92 fe ff ff              	jmp	-366 <__stub_helper>
10000e53a: 68 ff 04 00 00              	pushq	$1279
10000e53f: e9 88 fe ff ff              	jmp	-376 <__stub_helper>
10000e544: 68 13 05 00 00              	pushq	$1299
10000e549: e9 7e fe ff ff              	jmp	-386 <__stub_helper>
10000e54e: 68 27 05 00 00              	pushq	$1319
10000e553: e9 74 fe ff ff              	jmp	-396 <__stub_helper>
10000e558: 68 3c 05 00 00              	pushq	$1340
10000e55d: e9 6a fe ff ff              	jmp	-406 <__stub_helper>
10000e562: 68 51 05 00 00              	pushq	$1361
10000e567: e9 60 fe ff ff              	jmp	-416 <__stub_helper>
10000e56c: 68 c4 00 00 00              	pushq	$196
10000e571: e9 56 fe ff ff              	jmp	-426 <__stub_helper>
10000e576: 68 dc 00 00 00              	pushq	$220
10000e57b: e9 4c fe ff ff              	jmp	-436 <__stub_helper>
10000e580: 68 eb 00 00 00              	pushq	$235
10000e585: e9 42 fe ff ff              	jmp	-446 <__stub_helper>
10000e58a: 68 fa 00 00 00              	pushq	$250
10000e58f: e9 38 fe ff ff              	jmp	-456 <__stub_helper>
10000e594: 68 10 01 00 00              	pushq	$272
10000e599: e9 2e fe ff ff              	jmp	-466 <__stub_helper>
10000e59e: 68 28 01 00 00              	pushq	$296
10000e5a3: e9 24 fe ff ff              	jmp	-476 <__stub_helper>
10000e5a8: 68 3d 01 00 00              	pushq	$317
10000e5ad: e9 1a fe ff ff              	jmp	-486 <__stub_helper>
10000e5b2: 68 49 01 00 00              	pushq	$329
10000e5b7: e9 10 fe ff ff              	jmp	-496 <__stub_helper>
10000e5bc: 68 56 01 00 00              	pushq	$342
10000e5c1: e9 06 fe ff ff              	jmp	-506 <__stub_helper>
10000e5c6: 68 64 01 00 00              	pushq	$356
10000e5cb: e9 fc fd ff ff              	jmp	-516 <__stub_helper>
10000e5d0: 68 71 01 00 00              	pushq	$369
10000e5d5: e9 f2 fd ff ff              	jmp	-526 <__stub_helper>
10000e5da: 68 7f 01 00 00              	pushq	$383
10000e5df: e9 e8 fd ff ff              	jmp	-536 <__stub_helper>
10000e5e4: 68 8b 01 00 00              	pushq	$395
10000e5e9: e9 de fd ff ff              	jmp	-546 <__stub_helper>
10000e5ee: 68 98 01 00 00              	pushq	$408
10000e5f3: e9 d4 fd ff ff              	jmp	-556 <__stub_helper>
10000e5f8: 68 a7 01 00 00              	pushq	$423
10000e5fd: e9 ca fd ff ff              	jmp	-566 <__stub_helper>
10000e602: 68 b5 01 00 00              	pushq	$437
10000e607: e9 c0 fd ff ff              	jmp	-576 <__stub_helper>
10000e60c: 68 c2 01 00 00              	pushq	$450
10000e611: e9 b6 fd ff ff              	jmp	-586 <__stub_helper>
10000e616: 68 6f 05 00 00              	pushq	$1391
10000e61b: e9 ac fd ff ff              	jmp	-596 <__stub_helper>
10000e620: 68 7d 05 00 00              	pushq	$1405
10000e625: e9 a2 fd ff ff              	jmp	-606 <__stub_helper>
10000e62a: 68 8c 05 00 00              	pushq	$1420
10000e62f: e9 98 fd ff ff              	jmp	-616 <__stub_helper>
10000e634: 68 9b 05 00 00              	pushq	$1435
10000e639: e9 8e fd ff ff              	jmp	-626 <__stub_helper>
10000e63e: 68 aa 05 00 00              	pushq	$1450
10000e643: e9 84 fd ff ff              	jmp	-636 <__stub_helper>
10000e648: 68 b7 05 00 00              	pushq	$1463
10000e64d: e9 7a fd ff ff              	jmp	-646 <__stub_helper>
10000e652: 68 e1 05 00 00              	pushq	$1505
10000e657: e9 70 fd ff ff              	jmp	-656 <__stub_helper>
10000e65c: 68 ee 05 00 00              	pushq	$1518
10000e661: e9 66 fd ff ff              	jmp	-666 <__stub_helper>
10000e666: 68 fa 05 00 00              	pushq	$1530
10000e66b: e9 5c fd ff ff              	jmp	-676 <__stub_helper>
10000e670: 68 09 06 00 00              	pushq	$1545
10000e675: e9 52 fd ff ff              	jmp	-686 <__stub_helper>
10000e67a: 68 20 06 00 00              	pushq	$1568
10000e67f: e9 48 fd ff ff              	jmp	-696 <__stub_helper>
10000e684: 68 35 06 00 00              	pushq	$1589
10000e689: e9 3e fd ff ff              	jmp	-706 <__stub_helper>
10000e68e: 68 50 06 00 00              	pushq	$1616
10000e693: e9 34 fd ff ff              	jmp	-716 <__stub_helper>
10000e698: 68 6b 06 00 00              	pushq	$1643
10000e69d: e9 2a fd ff ff              	jmp	-726 <__stub_helper>
10000e6a2: 68 88 06 00 00              	pushq	$1672
10000e6a7: e9 20 fd ff ff              	jmp	-736 <__stub_helper>
10000e6ac: 68 95 06 00 00              	pushq	$1685
10000e6b1: e9 16 fd ff ff              	jmp	-746 <__stub_helper>
10000e6b6: 68 a4 06 00 00              	pushq	$1700
10000e6bb: e9 0c fd ff ff              	jmp	-756 <__stub_helper>
10000e6c0: 68 b7 06 00 00              	pushq	$1719
10000e6c5: e9 02 fd ff ff              	jmp	-766 <__stub_helper>
10000e6ca: 68 c6 06 00 00              	pushq	$1734
10000e6cf: e9 f8 fc ff ff              	jmp	-776 <__stub_helper>
10000e6d4: 68 d5 06 00 00              	pushq	$1749
10000e6d9: e9 ee fc ff ff              	jmp	-786 <__stub_helper>
10000e6de: 68 e4 06 00 00              	pushq	$1764
10000e6e3: e9 e4 fc ff ff              	jmp	-796 <__stub_helper>
10000e6e8: 68 f3 06 00 00              	pushq	$1779
10000e6ed: e9 da fc ff ff              	jmp	-806 <__stub_helper>
10000e6f2: 68 02 07 00 00              	pushq	$1794
10000e6f7: e9 d0 fc ff ff              	jmp	-816 <__stub_helper>
10000e6fc: 68 0e 07 00 00              	pushq	$1806
10000e701: e9 c6 fc ff ff              	jmp	-826 <__stub_helper>
10000e706: 68 1d 07 00 00              	pushq	$1821
10000e70b: e9 bc fc ff ff              	jmp	-836 <__stub_helper>
10000e710: 68 a8 00 00 00              	pushq	$168
10000e715: e9 b2 fc ff ff              	jmp	-846 <__stub_helper>
10000e71a: 68 00 00 00 00              	pushq	$0
10000e71f: e9 a8 fc ff ff              	jmp	-856 <__stub_helper>
10000e724: 68 1c 00 00 00              	pushq	$28
10000e729: e9 9e fc ff ff              	jmp	-866 <__stub_helper>
10000e72e: 68 35 00 00 00              	pushq	$53
10000e733: e9 94 fc ff ff              	jmp	-876 <__stub_helper>
10000e738: 68 4d 00 00 00              	pushq	$77
10000e73d: e9 8a fc ff ff              	jmp	-886 <__stub_helper>
10000e742: 68 6c 00 00 00              	pushq	$108
10000e747: e9 80 fc ff ff              	jmp	-896 <__stub_helper>
10000e74c: 68 88 00 00 00              	pushq	$136
10000e751: e9 76 fc ff ff              	jmp	-906 <__stub_helper>
10000e756: 68 c6 05 00 00              	pushq	$1478
10000e75b: e9 6c fc ff ff              	jmp	-916 <__stub_helper>
